
rv32si-p-dirty:     file format elf32-littleriscv


Disassembly of section .text.init:

80000000 <_start>:
80000000:	80000537          	lui	a0,0x80000
80000004:	00002597          	auipc	a1,0x2
80000008:	ffc58593          	addi	a1,a1,-4 # 80002000 <begin_signature>
8000000c:	00c5d593          	srli	a1,a1,0xc
80000010:	00a5e5b3          	or	a1,a1,a0
80000014:	18059073          	csrw	satp,a1
80000018:	12000073          	sfence.vma
8000001c:	000215b7          	lui	a1,0x21
80000020:	80058593          	addi	a1,a1,-2048 # 20800 <_start-0x7ffdf800>
80000024:	3005a073          	csrs	mstatus,a1
80000028:	00200193          	li	gp,2
8000002c:	00100393          	li	t2,1
80000030:	80002517          	auipc	a0,0x80002
80000034:	fc752c23          	sw	t2,-40(a0) # 2008 <_start-0x7fffdff8>
80000038:	00300193          	li	gp,3
8000003c:	000415b7          	lui	a1,0x41
80000040:	80058593          	addi	a1,a1,-2048 # 40800 <_start-0x7ffbf800>
80000044:	3005a073          	csrs	mstatus,a1
80000048:	80002297          	auipc	t0,0x80002
8000004c:	fc02a283          	lw	t0,-64(t0) # 2008 <_start-0x7fffdff8>
80000050:	0e029663          	bnez	t0,8000013c <die>
80000054:	80002517          	auipc	a0,0x80002
80000058:	fa752a23          	sw	t2,-76(a0) # 2008 <_start-0x7fffdff8>
8000005c:	80002297          	auipc	t0,0x80002
80000060:	fac2a283          	lw	t0,-84(t0) # 2008 <_start-0x7fffdff8>
80000064:	0c729c63          	bne	t0,t2,8000013c <die>
80000068:	000202b7          	lui	t0,0x20
8000006c:	3002b073          	csrc	mstatus,t0
80000070:	00002297          	auipc	t0,0x2
80000074:	f902a283          	lw	t0,-112(t0) # 80002000 <begin_signature>
80000078:	0c000513          	li	a0,192
8000007c:	00a2f2b3          	and	t0,t0,a0
80000080:	0aa29e63          	bne	t0,a0,8000013c <die>
80000084:	000202b7          	lui	t0,0x20
80000088:	3002a073          	csrs	mstatus,t0
8000008c:	00400193          	li	gp,4
80000090:	80002517          	auipc	a0,0x80002
80000094:	f7052503          	lw	a0,-144(a0) # 2000 <_start-0x7fffe000>
80000098:	40056513          	ori	a0,a0,1024
8000009c:	80002297          	auipc	t0,0x80002
800000a0:	f6a2a223          	sw	a0,-156(t0) # 2000 <_start-0x7fffe000>
800000a4:	12000073          	sfence.vma
800000a8:	80002297          	auipc	t0,0x80002
800000ac:	f4a2ac23          	sw	a0,-168(t0) # 2000 <_start-0x7fffe000>
800000b0:	08c0006f          	j	8000013c <die>
800000b4:	00000513          	li	a0,0
800000b8:	08c0006f          	j	80000144 <halt>
800000bc:	00301663          	bne	zero,gp,800000c8 <pass>

800000c0 <fail>:
800000c0:	00100513          	li	a0,1
800000c4:	0800006f          	j	80000144 <halt>

800000c8 <pass>:
800000c8:	00000513          	li	a0,0
800000cc:	0780006f          	j	80000144 <halt>

800000d0 <mtvec_handler>:
800000d0:	342022f3          	csrr	t0,mcause
800000d4:	ff128293          	addi	t0,t0,-15
800000d8:	06029263          	bnez	t0,8000013c <die>
800000dc:	00200313          	li	t1,2
800000e0:	02619263          	bne	gp,t1,80000104 <skip+0x10>
800000e4:	00002297          	auipc	t0,0x2
800000e8:	f1c2a283          	lw	t0,-228(t0) # 80002000 <begin_signature>
800000ec:	0802f313          	andi	t1,t0,128
800000f0:	04031663          	bnez	t1,8000013c <die>

800000f4 <skip>:
800000f4:	341022f3          	csrr	t0,mepc
800000f8:	00428293          	addi	t0,t0,4
800000fc:	34129073          	csrw	mepc,t0
80000100:	30200073          	mret
80000104:	00300313          	li	t1,3
80000108:	02619463          	bne	gp,t1,80000130 <skip+0x3c>
8000010c:	00002297          	auipc	t0,0x2
80000110:	ef42a283          	lw	t0,-268(t0) # 80002000 <begin_signature>
80000114:	0802f313          	andi	t1,t0,128
80000118:	02031263          	bnez	t1,8000013c <die>
8000011c:	0802e293          	ori	t0,t0,128
80000120:	00002317          	auipc	t1,0x2
80000124:	ee532023          	sw	t0,-288(t1) # 80002000 <begin_signature>
80000128:	12000073          	sfence.vma
8000012c:	30200073          	mret
80000130:	00400313          	li	t1,4
80000134:	00619463          	bne	gp,t1,8000013c <die>
80000138:	f91ff06f          	j	800000c8 <pass>

8000013c <die>:
8000013c:	00100513          	li	a0,1
80000140:	0040006f          	j	80000144 <halt>

80000144 <halt>:
80000144:	0000006f          	j	80000144 <halt>
80000148:	0000                	unimp
8000014a:	0000                	unimp
8000014c:	0000                	unimp
8000014e:	0000                	unimp
80000150:	0000                	unimp
80000152:	0000                	unimp
80000154:	0000                	unimp
80000156:	0000                	unimp
80000158:	0000                	unimp
8000015a:	0000                	unimp
8000015c:	0000                	unimp
8000015e:	0000                	unimp
80000160:	0000                	unimp
80000162:	0000                	unimp
80000164:	0000                	unimp
80000166:	0000                	unimp
80000168:	0000                	unimp
8000016a:	0000                	unimp
8000016c:	0000                	unimp
8000016e:	0000                	unimp
80000170:	0000                	unimp
80000172:	0000                	unimp
80000174:	0000                	unimp
80000176:	0000                	unimp
80000178:	0000                	unimp
8000017a:	0000                	unimp
8000017c:	0000                	unimp
8000017e:	0000                	unimp
80000180:	0000                	unimp
80000182:	0000                	unimp

Disassembly of section .data:

80002000 <begin_signature>:
80002000:	005f 2000 0000      	0x2000005f
80002006:	0000                	unimp

80002008 <dummy>:
80002008:	0000                	unimp
8000200a:	0000                	unimp
8000200c:	0000                	unimp
8000200e:	0000                	unimp
