
rv64mi-p-scall:     file format elf64-littleriscv


Disassembly of section .text.init:

0000000080000000 <_start>:
    80000000:	00200193          	li	gp,2
    80000004:	00800313          	li	t1,8
    80000008:	000022b7          	lui	t0,0x2
    8000000c:	8002829b          	addiw	t0,t0,-2048
    80000010:	3002b073          	csrc	mstatus,t0
    80000014:	300023f3          	csrr	t2,mstatus
    80000018:	0072f2b3          	and	t0,t0,t2
    8000001c:	00028463          	beqz	t0,80000024 <_start+0x24>
    80000020:	00b00313          	li	t1,11
    80000024:	000022b7          	lui	t0,0x2
    80000028:	8002829b          	addiw	t0,t0,-2048
    8000002c:	3002b073          	csrc	mstatus,t0
    80000030:	00000297          	auipc	t0,0x0
    80000034:	01028293          	addi	t0,t0,16 # 80000040 <_start+0x40>
    80000038:	34129073          	csrw	mepc,t0
    8000003c:	30200073          	mret
    80000040:	00100193          	li	gp,1

0000000080000044 <do_scall>:
    80000044:	00000073          	ecall
    80000048:	0080006f          	j	80000050 <fail>
    8000004c:	00301663          	bne	zero,gp,80000058 <pass>

0000000080000050 <fail>:
    80000050:	00100513          	li	a0,1
    80000054:	0380006f          	j	8000008c <halt>

0000000080000058 <pass>:
    80000058:	00000513          	li	a0,0
    8000005c:	0300006f          	j	8000008c <halt>

0000000080000060 <mtvec_handler>:
    80000060:	342022f3          	csrr	t0,mcause
    80000064:	305023f3          	csrr	t2,mtvec
    80000068:	0023f393          	andi	t2,t2,2
    8000006c:	00038463          	beqz	t2,80000074 <skip_mask>
    80000070:	0ff2f293          	zext.b	t0,t0

0000000080000074 <skip_mask>:
    80000074:	fc629ee3          	bne	t0,t1,80000050 <fail>
    80000078:	00000397          	auipc	t2,0x0
    8000007c:	fcc38393          	addi	t2,t2,-52 # 80000044 <do_scall>
    80000080:	341022f3          	csrr	t0,mepc
    80000084:	fc7296e3          	bne	t0,t2,80000050 <fail>
    80000088:	fd1ff06f          	j	80000058 <pass>

000000008000008c <halt>:
    8000008c:	0000006f          	j	8000008c <halt>
    80000090:	0000                	unimp
    80000092:	0000                	unimp
    80000094:	0000                	unimp
    80000096:	0000                	unimp
    80000098:	0000                	unimp
    8000009a:	0000                	unimp
    8000009c:	0000                	unimp
    8000009e:	0000                	unimp
    800000a0:	0000                	unimp
    800000a2:	0000                	unimp
    800000a4:	0000                	unimp
    800000a6:	0000                	unimp
    800000a8:	0000                	unimp
    800000aa:	0000                	unimp
    800000ac:	0000                	unimp
    800000ae:	0000                	unimp
    800000b0:	0000                	unimp
    800000b2:	0000                	unimp
    800000b4:	0000                	unimp
    800000b6:	0000                	unimp
    800000b8:	0000                	unimp
    800000ba:	0000                	unimp
    800000bc:	0000                	unimp
    800000be:	0000                	unimp
    800000c0:	0000                	unimp
    800000c2:	0000                	unimp
