
rv64mi-p-access:     file format elf64-littleriscv


Disassembly of section .text.init:

0000000080000000 <_start>:
    80000000:	00000397          	auipc	t2,0x0
    80000004:	05038393          	addi	t2,t2,80 # 80000050 <fail>
    80000008:	fff0029b          	addiw	t0,zero,-1
    8000000c:	03f29293          	slli	t0,t0,0x3f
    80000010:	0072c2b3          	xor	t0,t0,t2
    80000014:	00200193          	li	gp,2
    80000018:	00100313          	li	t1,1
    8000001c:	00000497          	auipc	s1,0x0
    80000020:	01048493          	addi	s1,s1,16 # 8000002c <_start+0x2c>
    80000024:	00000393          	li	t2,0
    80000028:	000283e7          	jalr	t2,t0
    8000002c:	00300193          	li	gp,3
    80000030:	00500313          	li	t1,5
    80000034:	00000497          	auipc	s1,0x0
    80000038:	01448493          	addi	s1,s1,20 # 80000048 <_start+0x48>
    8000003c:	00048393          	mv	t2,s1
    80000040:	00028383          	lb	t2,0(t0)
    80000044:	00c0006f          	j	80000050 <fail>
    80000048:	0100006f          	j	80000058 <pass>
    8000004c:	00301663          	bne	zero,gp,80000058 <pass>

0000000080000050 <fail>:
    80000050:	00100513          	li	a0,1
    80000054:	0340006f          	j	80000088 <halt>

0000000080000058 <pass>:
    80000058:	00000513          	li	a0,0
    8000005c:	02c0006f          	j	80000088 <halt>

0000000080000060 <mtvec_handler>:
    80000060:	00200513          	li	a0,2
    80000064:	00a18863          	beq	gp,a0,80000074 <mtvec_handler+0x14>
    80000068:	00300513          	li	a0,3
    8000006c:	00a18463          	beq	gp,a0,80000074 <mtvec_handler+0x14>
    80000070:	fe1ff06f          	j	80000050 <fail>
    80000074:	fc939ee3          	bne	t2,s1,80000050 <fail>
    80000078:	342023f3          	csrr	t2,mcause
    8000007c:	fc639ae3          	bne	t2,t1,80000050 <fail>
    80000080:	34149073          	csrw	mepc,s1
    80000084:	30200073          	mret

0000000080000088 <halt>:
    80000088:	0000006f          	j	80000088 <halt>
    8000008c:	0000                	unimp
    8000008e:	0000                	unimp
    80000090:	0000                	unimp
    80000092:	0000                	unimp
    80000094:	0000                	unimp
    80000096:	0000                	unimp
    80000098:	0000                	unimp
    8000009a:	0000                	unimp
    8000009c:	0000                	unimp
    8000009e:	0000                	unimp
    800000a0:	0000                	unimp
    800000a2:	0000                	unimp
    800000a4:	0000                	unimp
    800000a6:	0000                	unimp
    800000a8:	0000                	unimp
    800000aa:	0000                	unimp
    800000ac:	0000                	unimp
    800000ae:	0000                	unimp
    800000b0:	0000                	unimp
    800000b2:	0000                	unimp
    800000b4:	0000                	unimp
    800000b6:	0000                	unimp
    800000b8:	0000                	unimp
    800000ba:	0000                	unimp
    800000bc:	0000                	unimp
    800000be:	0000                	unimp
    800000c0:	0000                	unimp
    800000c2:	0000                	unimp
