
rv32uzbkb-p-packh:     file format elf32-littleriscv


Disassembly of section .text.init:

80000000 <_start>:
80000000:	00100193          	li	gp,1
80000004:	00200593          	li	a1,2
80000008:	00100613          	li	a2,1
8000000c:	08c5f733          	packh	a4,a1,a2
80000010:	10200393          	li	t2,258
80000014:	2c771263          	bne	a4,t2,800002d8 <fail>

80000018 <test_2>:
80000018:	00200193          	li	gp,2
8000001c:	00000593          	li	a1,0
80000020:	0ff00613          	li	a2,255
80000024:	08c5f733          	packh	a4,a1,a2
80000028:	000103b7          	lui	t2,0x10
8000002c:	f0038393          	addi	t2,t2,-256 # ff00 <_start-0x7fff0100>
80000030:	2a771463          	bne	a4,t2,800002d8 <fail>

80000034 <test_3>:
80000034:	00300193          	li	gp,3
80000038:	0cd00593          	li	a1,205
8000003c:	0ab00613          	li	a2,171
80000040:	08c5f733          	packh	a4,a1,a2
80000044:	0000b3b7          	lui	t2,0xb
80000048:	bcd38393          	addi	t2,t2,-1075 # abcd <_start-0x7fff5433>
8000004c:	28771663          	bne	a4,t2,800002d8 <fail>

80000050 <test_4>:
80000050:	00400193          	li	gp,4
80000054:	00000593          	li	a1,0
80000058:	00000613          	li	a2,0
8000005c:	08c5f733          	packh	a4,a1,a2
80000060:	00000393          	li	t2,0
80000064:	26771a63          	bne	a4,t2,800002d8 <fail>

80000068 <test_5>:
80000068:	00500193          	li	gp,5
8000006c:	00f00593          	li	a1,15
80000070:	0f000613          	li	a2,240
80000074:	08c5f733          	packh	a4,a1,a2
80000078:	0000f3b7          	lui	t2,0xf
8000007c:	00f38393          	addi	t2,t2,15 # f00f <_start-0x7fff0ff1>
80000080:	24771c63          	bne	a4,t2,800002d8 <fail>

80000084 <test_6>:
80000084:	00600193          	li	gp,6
80000088:	00400593          	li	a1,4
8000008c:	00300613          	li	a2,3
80000090:	08c5f5b3          	packh	a1,a1,a2
80000094:	30400393          	li	t2,772
80000098:	24759063          	bne	a1,t2,800002d8 <fail>

8000009c <test_7>:
8000009c:	00700193          	li	gp,7
800000a0:	00800593          	li	a1,8
800000a4:	00700613          	li	a2,7
800000a8:	08c5f633          	packh	a2,a1,a2
800000ac:	70800393          	li	t2,1800
800000b0:	22761463          	bne	a2,t2,800002d8 <fail>

800000b4 <test_8>:
800000b4:	00800193          	li	gp,8
800000b8:	0ab00593          	li	a1,171
800000bc:	08b5f5b3          	packh	a1,a1,a1
800000c0:	0000b3b7          	lui	t2,0xb
800000c4:	bab38393          	addi	t2,t2,-1109 # abab <_start-0x7fff5455>
800000c8:	20759863          	bne	a1,t2,800002d8 <fail>

800000cc <test_9>:
800000cc:	00900193          	li	gp,9
800000d0:	00000213          	li	tp,0
800000d4:	07800093          	li	ra,120
800000d8:	05600113          	li	sp,86
800000dc:	0820f733          	packh	a4,ra,sp
800000e0:	00070313          	mv	t1,a4
800000e4:	00120213          	addi	tp,tp,1 # 1 <_start-0x7fffffff>
800000e8:	00200293          	li	t0,2
800000ec:	fe5214e3          	bne	tp,t0,800000d4 <test_9+0x8>
800000f0:	000053b7          	lui	t2,0x5
800000f4:	67838393          	addi	t2,t2,1656 # 5678 <_start-0x7fffa988>
800000f8:	1e731063          	bne	t1,t2,800002d8 <fail>

800000fc <test_10>:
800000fc:	00a00193          	li	gp,10
80000100:	00000213          	li	tp,0
80000104:	03400093          	li	ra,52
80000108:	01200113          	li	sp,18
8000010c:	0820f733          	packh	a4,ra,sp
80000110:	00000013          	nop
80000114:	00070313          	mv	t1,a4
80000118:	00120213          	addi	tp,tp,1 # 1 <_start-0x7fffffff>
8000011c:	00200293          	li	t0,2
80000120:	fe5212e3          	bne	tp,t0,80000104 <test_10+0x8>
80000124:	000013b7          	lui	t2,0x1
80000128:	23438393          	addi	t2,t2,564 # 1234 <_start-0x7fffedcc>
8000012c:	1a731663          	bne	t1,t2,800002d8 <fail>

80000130 <test_11>:
80000130:	00b00193          	li	gp,11
80000134:	00000213          	li	tp,0
80000138:	0ff00093          	li	ra,255
8000013c:	0ff00113          	li	sp,255
80000140:	0820f733          	packh	a4,ra,sp
80000144:	00000013          	nop
80000148:	00000013          	nop
8000014c:	00070313          	mv	t1,a4
80000150:	00120213          	addi	tp,tp,1 # 1 <_start-0x7fffffff>
80000154:	00200293          	li	t0,2
80000158:	fe5210e3          	bne	tp,t0,80000138 <test_11+0x8>
8000015c:	000103b7          	lui	t2,0x10
80000160:	fff38393          	addi	t2,t2,-1 # ffff <_start-0x7fff0001>
80000164:	16731a63          	bne	t1,t2,800002d8 <fail>

80000168 <test_12>:
80000168:	00c00193          	li	gp,12
8000016c:	00000213          	li	tp,0
80000170:	01200093          	li	ra,18
80000174:	03400113          	li	sp,52
80000178:	0820f733          	packh	a4,ra,sp
8000017c:	00120213          	addi	tp,tp,1 # 1 <_start-0x7fffffff>
80000180:	00200293          	li	t0,2
80000184:	fe5216e3          	bne	tp,t0,80000170 <test_12+0x8>
80000188:	000033b7          	lui	t2,0x3
8000018c:	41238393          	addi	t2,t2,1042 # 3412 <_start-0x7fffcbee>
80000190:	14771463          	bne	a4,t2,800002d8 <fail>

80000194 <test_13>:
80000194:	00d00193          	li	gp,13
80000198:	00000213          	li	tp,0
8000019c:	0cd00093          	li	ra,205
800001a0:	0ab00113          	li	sp,171
800001a4:	00000013          	nop
800001a8:	0820f733          	packh	a4,ra,sp
800001ac:	00120213          	addi	tp,tp,1 # 1 <_start-0x7fffffff>
800001b0:	00200293          	li	t0,2
800001b4:	fe5214e3          	bne	tp,t0,8000019c <test_13+0x8>
800001b8:	0000b3b7          	lui	t2,0xb
800001bc:	bcd38393          	addi	t2,t2,-1075 # abcd <_start-0x7fff5433>
800001c0:	10771c63          	bne	a4,t2,800002d8 <fail>

800001c4 <test_14>:
800001c4:	00e00193          	li	gp,14
800001c8:	00000213          	li	tp,0
800001cc:	00f00093          	li	ra,15
800001d0:	00000013          	nop
800001d4:	0f000113          	li	sp,240
800001d8:	0820f733          	packh	a4,ra,sp
800001dc:	00120213          	addi	tp,tp,1 # 1 <_start-0x7fffffff>
800001e0:	00200293          	li	t0,2
800001e4:	fe5214e3          	bne	tp,t0,800001cc <test_14+0x8>
800001e8:	0000f3b7          	lui	t2,0xf
800001ec:	00f38393          	addi	t2,t2,15 # f00f <_start-0x7fff0ff1>
800001f0:	0e771463          	bne	a4,t2,800002d8 <fail>

800001f4 <test_15>:
800001f4:	00f00193          	li	gp,15
800001f8:	00000213          	li	tp,0
800001fc:	07800113          	li	sp,120
80000200:	05600093          	li	ra,86
80000204:	0820f733          	packh	a4,ra,sp
80000208:	00120213          	addi	tp,tp,1 # 1 <_start-0x7fffffff>
8000020c:	00200293          	li	t0,2
80000210:	fe5216e3          	bne	tp,t0,800001fc <test_15+0x8>
80000214:	000083b7          	lui	t2,0x8
80000218:	85638393          	addi	t2,t2,-1962 # 7856 <_start-0x7fff87aa>
8000021c:	0a771e63          	bne	a4,t2,800002d8 <fail>

80000220 <test_16>:
80000220:	01000193          	li	gp,16
80000224:	00000213          	li	tp,0
80000228:	01200113          	li	sp,18
8000022c:	00000013          	nop
80000230:	03400093          	li	ra,52
80000234:	0820f733          	packh	a4,ra,sp
80000238:	00120213          	addi	tp,tp,1 # 1 <_start-0x7fffffff>
8000023c:	00200293          	li	t0,2
80000240:	fe5214e3          	bne	tp,t0,80000228 <test_16+0x8>
80000244:	000013b7          	lui	t2,0x1
80000248:	23438393          	addi	t2,t2,564 # 1234 <_start-0x7fffedcc>
8000024c:	08771663          	bne	a4,t2,800002d8 <fail>

80000250 <test_17>:
80000250:	01100193          	li	gp,17
80000254:	00000213          	li	tp,0
80000258:	0ab00113          	li	sp,171
8000025c:	0cd00093          	li	ra,205
80000260:	00000013          	nop
80000264:	0820f733          	packh	a4,ra,sp
80000268:	00120213          	addi	tp,tp,1 # 1 <_start-0x7fffffff>
8000026c:	00200293          	li	t0,2
80000270:	fe5214e3          	bne	tp,t0,80000258 <test_17+0x8>
80000274:	0000b3b7          	lui	t2,0xb
80000278:	bcd38393          	addi	t2,t2,-1075 # abcd <_start-0x7fff5433>
8000027c:	04771e63          	bne	a4,t2,800002d8 <fail>

80000280 <test_18>:
80000280:	01200193          	li	gp,18
80000284:	05600093          	li	ra,86
80000288:	08107133          	packh	sp,zero,ra
8000028c:	000053b7          	lui	t2,0x5
80000290:	60038393          	addi	t2,t2,1536 # 5600 <_start-0x7fffaa00>
80000294:	04711263          	bne	sp,t2,800002d8 <fail>

80000298 <test_19>:
80000298:	01300193          	li	gp,19
8000029c:	03400093          	li	ra,52
800002a0:	0800f133          	packh	sp,ra,zero
800002a4:	03400393          	li	t2,52
800002a8:	02711863          	bne	sp,t2,800002d8 <fail>

800002ac <test_20>:
800002ac:	01400193          	li	gp,20
800002b0:	080070b3          	packh	ra,zero,zero
800002b4:	00000393          	li	t2,0
800002b8:	02709063          	bne	ra,t2,800002d8 <fail>

800002bc <test_21>:
800002bc:	01500193          	li	gp,21
800002c0:	05600093          	li	ra,86
800002c4:	03400113          	li	sp,52
800002c8:	0820f033          	packh	zero,ra,sp
800002cc:	00000393          	li	t2,0
800002d0:	00701463          	bne	zero,t2,800002d8 <fail>
800002d4:	00301663          	bne	zero,gp,800002e0 <pass>

800002d8 <fail>:
800002d8:	00100513          	li	a0,1
800002dc:	00c0006f          	j	800002e8 <halt>

800002e0 <pass>:
800002e0:	00000513          	li	a0,0
800002e4:	0040006f          	j	800002e8 <halt>

800002e8 <halt>:
800002e8:	0000006f          	j	800002e8 <halt>
800002ec:	0000                	.insn	2, 0x
800002ee:	0000                	.insn	2, 0x
800002f0:	0000                	.insn	2, 0x
800002f2:	0000                	.insn	2, 0x
800002f4:	0000                	.insn	2, 0x
800002f6:	0000                	.insn	2, 0x
800002f8:	0000                	.insn	2, 0x
800002fa:	0000                	.insn	2, 0x
800002fc:	0000                	.insn	2, 0x
800002fe:	0000                	.insn	2, 0x
80000300:	0000                	.insn	2, 0x
80000302:	0000                	.insn	2, 0x
