
rv64um-p-mulhu:     file format elf64-littleriscv


Disassembly of section .text.init:

0000000080000000 <_start>:
    80000000:	00000093          	li	ra,0
    80000004:	00000113          	li	sp,0
    80000008:	0220b733          	mulhu	a4,ra,sp
    8000000c:	00000393          	li	t2,0
    80000010:	00200193          	li	gp,2
    80000014:	4e771063          	bne	a4,t2,800004f4 <fail>

0000000080000018 <test_3>:
    80000018:	00100093          	li	ra,1
    8000001c:	00100113          	li	sp,1
    80000020:	0220b733          	mulhu	a4,ra,sp
    80000024:	00000393          	li	t2,0
    80000028:	00300193          	li	gp,3
    8000002c:	4c771463          	bne	a4,t2,800004f4 <fail>

0000000080000030 <test_4>:
    80000030:	00300093          	li	ra,3
    80000034:	00700113          	li	sp,7
    80000038:	0220b733          	mulhu	a4,ra,sp
    8000003c:	00000393          	li	t2,0
    80000040:	00400193          	li	gp,4
    80000044:	4a771863          	bne	a4,t2,800004f4 <fail>

0000000080000048 <test_5>:
    80000048:	00000093          	li	ra,0
    8000004c:	ffff8137          	lui	sp,0xffff8
    80000050:	0220b733          	mulhu	a4,ra,sp
    80000054:	00000393          	li	t2,0
    80000058:	00500193          	li	gp,5
    8000005c:	48771c63          	bne	a4,t2,800004f4 <fail>

0000000080000060 <test_6>:
    80000060:	800000b7          	lui	ra,0x80000
    80000064:	00000113          	li	sp,0
    80000068:	0220b733          	mulhu	a4,ra,sp
    8000006c:	00000393          	li	t2,0
    80000070:	00600193          	li	gp,6
    80000074:	48771063          	bne	a4,t2,800004f4 <fail>

0000000080000078 <test_7>:
    80000078:	800000b7          	lui	ra,0x80000
    8000007c:	ffff8137          	lui	sp,0xffff8
    80000080:	0220b733          	mulhu	a4,ra,sp
    80000084:	ffff03b7          	lui	t2,0xffff0
    80000088:	fff3839b          	addiw	t2,t2,-1
    8000008c:	00f39393          	slli	t2,t2,0xf
    80000090:	00700193          	li	gp,7
    80000094:	46771063          	bne	a4,t2,800004f4 <fail>

0000000080000098 <test_30>:
    80000098:	faaab0b7          	lui	ra,0xfaaab
    8000009c:	aab0809b          	addiw	ra,ra,-1365
    800000a0:	00c09093          	slli	ra,ra,0xc
    800000a4:	aab08093          	addi	ra,ra,-1365 # fffffffffaaaaaab <_end+0xffffffff7aaa8aab>
    800000a8:	00c09093          	slli	ra,ra,0xc
    800000ac:	aab08093          	addi	ra,ra,-1365
    800000b0:	00c09093          	slli	ra,ra,0xc
    800000b4:	aab08093          	addi	ra,ra,-1365
    800000b8:	00030137          	lui	sp,0x30
    800000bc:	e7d1011b          	addiw	sp,sp,-387
    800000c0:	0220b733          	mulhu	a4,ra,sp
    800000c4:	000203b7          	lui	t2,0x20
    800000c8:	efe3839b          	addiw	t2,t2,-258
    800000cc:	01e00193          	li	gp,30
    800000d0:	42771263          	bne	a4,t2,800004f4 <fail>

00000000800000d4 <test_31>:
    800000d4:	000300b7          	lui	ra,0x30
    800000d8:	e7d0809b          	addiw	ra,ra,-387
    800000dc:	faaab137          	lui	sp,0xfaaab
    800000e0:	aab1011b          	addiw	sp,sp,-1365
    800000e4:	00c11113          	slli	sp,sp,0xc
    800000e8:	aab10113          	addi	sp,sp,-1365 # fffffffffaaaaaab <_end+0xffffffff7aaa8aab>
    800000ec:	00c11113          	slli	sp,sp,0xc
    800000f0:	aab10113          	addi	sp,sp,-1365
    800000f4:	00c11113          	slli	sp,sp,0xc
    800000f8:	aab10113          	addi	sp,sp,-1365
    800000fc:	0220b733          	mulhu	a4,ra,sp
    80000100:	000203b7          	lui	t2,0x20
    80000104:	efe3839b          	addiw	t2,t2,-258
    80000108:	01f00193          	li	gp,31
    8000010c:	3e771463          	bne	a4,t2,800004f4 <fail>

0000000080000110 <test_8>:
    80000110:	00d0009b          	addiw	ra,zero,13
    80000114:	02009093          	slli	ra,ra,0x20
    80000118:	00b0011b          	addiw	sp,zero,11
    8000011c:	02011113          	slli	sp,sp,0x20
    80000120:	0220b0b3          	mulhu	ra,ra,sp
    80000124:	08f00393          	li	t2,143
    80000128:	00800193          	li	gp,8
    8000012c:	3c709463          	bne	ra,t2,800004f4 <fail>

0000000080000130 <test_9>:
    80000130:	0070009b          	addiw	ra,zero,7
    80000134:	02109093          	slli	ra,ra,0x21
    80000138:	00b0011b          	addiw	sp,zero,11
    8000013c:	02011113          	slli	sp,sp,0x20
    80000140:	0220b133          	mulhu	sp,ra,sp
    80000144:	09a00393          	li	t2,154
    80000148:	00900193          	li	gp,9
    8000014c:	3a711463          	bne	sp,t2,800004f4 <fail>

0000000080000150 <test_10>:
    80000150:	00d0009b          	addiw	ra,zero,13
    80000154:	02009093          	slli	ra,ra,0x20
    80000158:	0210b0b3          	mulhu	ra,ra,ra
    8000015c:	0a900393          	li	t2,169
    80000160:	00a00193          	li	gp,10
    80000164:	38709863          	bne	ra,t2,800004f4 <fail>

0000000080000168 <test_11>:
    80000168:	00000213          	li	tp,0
    8000016c:	00d0009b          	addiw	ra,zero,13
    80000170:	02009093          	slli	ra,ra,0x20
    80000174:	00b0011b          	addiw	sp,zero,11
    80000178:	02011113          	slli	sp,sp,0x20
    8000017c:	0220b733          	mulhu	a4,ra,sp
    80000180:	00070313          	mv	t1,a4
    80000184:	00120213          	addi	tp,tp,1 # 1 <_start-0x7fffffff>
    80000188:	00200293          	li	t0,2
    8000018c:	fe5210e3          	bne	tp,t0,8000016c <test_11+0x4>
    80000190:	08f00393          	li	t2,143
    80000194:	00b00193          	li	gp,11
    80000198:	34731e63          	bne	t1,t2,800004f4 <fail>

000000008000019c <test_12>:
    8000019c:	00000213          	li	tp,0
    800001a0:	0070009b          	addiw	ra,zero,7
    800001a4:	02109093          	slli	ra,ra,0x21
    800001a8:	00b0011b          	addiw	sp,zero,11
    800001ac:	02011113          	slli	sp,sp,0x20
    800001b0:	0220b733          	mulhu	a4,ra,sp
    800001b4:	00000013          	nop
    800001b8:	00070313          	mv	t1,a4
    800001bc:	00120213          	addi	tp,tp,1 # 1 <_start-0x7fffffff>
    800001c0:	00200293          	li	t0,2
    800001c4:	fc521ee3          	bne	tp,t0,800001a0 <test_12+0x4>
    800001c8:	09a00393          	li	t2,154
    800001cc:	00c00193          	li	gp,12
    800001d0:	32731263          	bne	t1,t2,800004f4 <fail>

00000000800001d4 <test_13>:
    800001d4:	00000213          	li	tp,0
    800001d8:	00f0009b          	addiw	ra,zero,15
    800001dc:	02009093          	slli	ra,ra,0x20
    800001e0:	00b0011b          	addiw	sp,zero,11
    800001e4:	02011113          	slli	sp,sp,0x20
    800001e8:	0220b733          	mulhu	a4,ra,sp
    800001ec:	00000013          	nop
    800001f0:	00000013          	nop
    800001f4:	00070313          	mv	t1,a4
    800001f8:	00120213          	addi	tp,tp,1 # 1 <_start-0x7fffffff>
    800001fc:	00200293          	li	t0,2
    80000200:	fc521ce3          	bne	tp,t0,800001d8 <test_13+0x4>
    80000204:	0a500393          	li	t2,165
    80000208:	00d00193          	li	gp,13
    8000020c:	2e731463          	bne	t1,t2,800004f4 <fail>

0000000080000210 <test_14>:
    80000210:	00000213          	li	tp,0
    80000214:	00d0009b          	addiw	ra,zero,13
    80000218:	02009093          	slli	ra,ra,0x20
    8000021c:	00b0011b          	addiw	sp,zero,11
    80000220:	02011113          	slli	sp,sp,0x20
    80000224:	0220b733          	mulhu	a4,ra,sp
    80000228:	00120213          	addi	tp,tp,1 # 1 <_start-0x7fffffff>
    8000022c:	00200293          	li	t0,2
    80000230:	fe5212e3          	bne	tp,t0,80000214 <test_14+0x4>
    80000234:	08f00393          	li	t2,143
    80000238:	00e00193          	li	gp,14
    8000023c:	2a771c63          	bne	a4,t2,800004f4 <fail>

0000000080000240 <test_15>:
    80000240:	00000213          	li	tp,0
    80000244:	0070009b          	addiw	ra,zero,7
    80000248:	02109093          	slli	ra,ra,0x21
    8000024c:	00b0011b          	addiw	sp,zero,11
    80000250:	02011113          	slli	sp,sp,0x20
    80000254:	00000013          	nop
    80000258:	0220b733          	mulhu	a4,ra,sp
    8000025c:	00120213          	addi	tp,tp,1 # 1 <_start-0x7fffffff>
    80000260:	00200293          	li	t0,2
    80000264:	fe5210e3          	bne	tp,t0,80000244 <test_15+0x4>
    80000268:	09a00393          	li	t2,154
    8000026c:	00f00193          	li	gp,15
    80000270:	28771263          	bne	a4,t2,800004f4 <fail>

0000000080000274 <test_16>:
    80000274:	00000213          	li	tp,0
    80000278:	00f0009b          	addiw	ra,zero,15
    8000027c:	02009093          	slli	ra,ra,0x20
    80000280:	00b0011b          	addiw	sp,zero,11
    80000284:	02011113          	slli	sp,sp,0x20
    80000288:	00000013          	nop
    8000028c:	00000013          	nop
    80000290:	0220b733          	mulhu	a4,ra,sp
    80000294:	00120213          	addi	tp,tp,1 # 1 <_start-0x7fffffff>
    80000298:	00200293          	li	t0,2
    8000029c:	fc521ee3          	bne	tp,t0,80000278 <test_16+0x4>
    800002a0:	0a500393          	li	t2,165
    800002a4:	01000193          	li	gp,16
    800002a8:	24771663          	bne	a4,t2,800004f4 <fail>

00000000800002ac <test_17>:
    800002ac:	00000213          	li	tp,0
    800002b0:	00d0009b          	addiw	ra,zero,13
    800002b4:	02009093          	slli	ra,ra,0x20
    800002b8:	00000013          	nop
    800002bc:	00b0011b          	addiw	sp,zero,11
    800002c0:	02011113          	slli	sp,sp,0x20
    800002c4:	0220b733          	mulhu	a4,ra,sp
    800002c8:	00120213          	addi	tp,tp,1 # 1 <_start-0x7fffffff>
    800002cc:	00200293          	li	t0,2
    800002d0:	fe5210e3          	bne	tp,t0,800002b0 <test_17+0x4>
    800002d4:	08f00393          	li	t2,143
    800002d8:	01100193          	li	gp,17
    800002dc:	20771c63          	bne	a4,t2,800004f4 <fail>

00000000800002e0 <test_18>:
    800002e0:	00000213          	li	tp,0
    800002e4:	0070009b          	addiw	ra,zero,7
    800002e8:	02109093          	slli	ra,ra,0x21
    800002ec:	00000013          	nop
    800002f0:	00b0011b          	addiw	sp,zero,11
    800002f4:	02011113          	slli	sp,sp,0x20
    800002f8:	00000013          	nop
    800002fc:	0220b733          	mulhu	a4,ra,sp
    80000300:	00120213          	addi	tp,tp,1 # 1 <_start-0x7fffffff>
    80000304:	00200293          	li	t0,2
    80000308:	fc521ee3          	bne	tp,t0,800002e4 <test_18+0x4>
    8000030c:	09a00393          	li	t2,154
    80000310:	01200193          	li	gp,18
    80000314:	1e771063          	bne	a4,t2,800004f4 <fail>

0000000080000318 <test_19>:
    80000318:	00000213          	li	tp,0
    8000031c:	00f0009b          	addiw	ra,zero,15
    80000320:	02009093          	slli	ra,ra,0x20
    80000324:	00000013          	nop
    80000328:	00000013          	nop
    8000032c:	00b0011b          	addiw	sp,zero,11
    80000330:	02011113          	slli	sp,sp,0x20
    80000334:	0220b733          	mulhu	a4,ra,sp
    80000338:	00120213          	addi	tp,tp,1 # 1 <_start-0x7fffffff>
    8000033c:	00200293          	li	t0,2
    80000340:	fc521ee3          	bne	tp,t0,8000031c <test_19+0x4>
    80000344:	0a500393          	li	t2,165
    80000348:	01300193          	li	gp,19
    8000034c:	1a771463          	bne	a4,t2,800004f4 <fail>

0000000080000350 <test_20>:
    80000350:	00000213          	li	tp,0
    80000354:	00b0011b          	addiw	sp,zero,11
    80000358:	02011113          	slli	sp,sp,0x20
    8000035c:	00d0009b          	addiw	ra,zero,13
    80000360:	02009093          	slli	ra,ra,0x20
    80000364:	0220b733          	mulhu	a4,ra,sp
    80000368:	00120213          	addi	tp,tp,1 # 1 <_start-0x7fffffff>
    8000036c:	00200293          	li	t0,2
    80000370:	fe5212e3          	bne	tp,t0,80000354 <test_20+0x4>
    80000374:	08f00393          	li	t2,143
    80000378:	01400193          	li	gp,20
    8000037c:	16771c63          	bne	a4,t2,800004f4 <fail>

0000000080000380 <test_21>:
    80000380:	00000213          	li	tp,0
    80000384:	00b0011b          	addiw	sp,zero,11
    80000388:	02011113          	slli	sp,sp,0x20
    8000038c:	0070009b          	addiw	ra,zero,7
    80000390:	02109093          	slli	ra,ra,0x21
    80000394:	00000013          	nop
    80000398:	0220b733          	mulhu	a4,ra,sp
    8000039c:	00120213          	addi	tp,tp,1 # 1 <_start-0x7fffffff>
    800003a0:	00200293          	li	t0,2
    800003a4:	fe5210e3          	bne	tp,t0,80000384 <test_21+0x4>
    800003a8:	09a00393          	li	t2,154
    800003ac:	01500193          	li	gp,21
    800003b0:	14771263          	bne	a4,t2,800004f4 <fail>

00000000800003b4 <test_22>:
    800003b4:	00000213          	li	tp,0
    800003b8:	00b0011b          	addiw	sp,zero,11
    800003bc:	02011113          	slli	sp,sp,0x20
    800003c0:	00f0009b          	addiw	ra,zero,15
    800003c4:	02009093          	slli	ra,ra,0x20
    800003c8:	00000013          	nop
    800003cc:	00000013          	nop
    800003d0:	0220b733          	mulhu	a4,ra,sp
    800003d4:	00120213          	addi	tp,tp,1 # 1 <_start-0x7fffffff>
    800003d8:	00200293          	li	t0,2
    800003dc:	fc521ee3          	bne	tp,t0,800003b8 <test_22+0x4>
    800003e0:	0a500393          	li	t2,165
    800003e4:	01600193          	li	gp,22
    800003e8:	10771663          	bne	a4,t2,800004f4 <fail>

00000000800003ec <test_23>:
    800003ec:	00000213          	li	tp,0
    800003f0:	00b0011b          	addiw	sp,zero,11
    800003f4:	02011113          	slli	sp,sp,0x20
    800003f8:	00000013          	nop
    800003fc:	00d0009b          	addiw	ra,zero,13
    80000400:	02009093          	slli	ra,ra,0x20
    80000404:	0220b733          	mulhu	a4,ra,sp
    80000408:	00120213          	addi	tp,tp,1 # 1 <_start-0x7fffffff>
    8000040c:	00200293          	li	t0,2
    80000410:	fe5210e3          	bne	tp,t0,800003f0 <test_23+0x4>
    80000414:	08f00393          	li	t2,143
    80000418:	01700193          	li	gp,23
    8000041c:	0c771c63          	bne	a4,t2,800004f4 <fail>

0000000080000420 <test_24>:
    80000420:	00000213          	li	tp,0
    80000424:	00b0011b          	addiw	sp,zero,11
    80000428:	02011113          	slli	sp,sp,0x20
    8000042c:	00000013          	nop
    80000430:	0070009b          	addiw	ra,zero,7
    80000434:	02109093          	slli	ra,ra,0x21
    80000438:	00000013          	nop
    8000043c:	0220b733          	mulhu	a4,ra,sp
    80000440:	00120213          	addi	tp,tp,1 # 1 <_start-0x7fffffff>
    80000444:	00200293          	li	t0,2
    80000448:	fc521ee3          	bne	tp,t0,80000424 <test_24+0x4>
    8000044c:	09a00393          	li	t2,154
    80000450:	01800193          	li	gp,24
    80000454:	0a771063          	bne	a4,t2,800004f4 <fail>

0000000080000458 <test_25>:
    80000458:	00000213          	li	tp,0
    8000045c:	00b0011b          	addiw	sp,zero,11
    80000460:	02011113          	slli	sp,sp,0x20
    80000464:	00000013          	nop
    80000468:	00000013          	nop
    8000046c:	00f0009b          	addiw	ra,zero,15
    80000470:	02009093          	slli	ra,ra,0x20
    80000474:	0220b733          	mulhu	a4,ra,sp
    80000478:	00120213          	addi	tp,tp,1 # 1 <_start-0x7fffffff>
    8000047c:	00200293          	li	t0,2
    80000480:	fc521ee3          	bne	tp,t0,8000045c <test_25+0x4>
    80000484:	0a500393          	li	t2,165
    80000488:	01900193          	li	gp,25
    8000048c:	06771463          	bne	a4,t2,800004f4 <fail>

0000000080000490 <test_26>:
    80000490:	01f0009b          	addiw	ra,zero,31
    80000494:	02009093          	slli	ra,ra,0x20
    80000498:	02103133          	mulhu	sp,zero,ra
    8000049c:	00000393          	li	t2,0
    800004a0:	01a00193          	li	gp,26
    800004a4:	04711863          	bne	sp,t2,800004f4 <fail>

00000000800004a8 <test_27>:
    800004a8:	0010009b          	addiw	ra,zero,1
    800004ac:	02509093          	slli	ra,ra,0x25
    800004b0:	0200b133          	mulhu	sp,ra,zero
    800004b4:	00000393          	li	t2,0
    800004b8:	01b00193          	li	gp,27
    800004bc:	02711c63          	bne	sp,t2,800004f4 <fail>

00000000800004c0 <test_28>:
    800004c0:	020030b3          	mulhu	ra,zero,zero
    800004c4:	00000393          	li	t2,0
    800004c8:	01c00193          	li	gp,28
    800004cc:	02709463          	bne	ra,t2,800004f4 <fail>

00000000800004d0 <test_29>:
    800004d0:	0210009b          	addiw	ra,zero,33
    800004d4:	02009093          	slli	ra,ra,0x20
    800004d8:	0110011b          	addiw	sp,zero,17
    800004dc:	02111113          	slli	sp,sp,0x21
    800004e0:	0220b033          	mulhu	zero,ra,sp
    800004e4:	00000393          	li	t2,0
    800004e8:	01d00193          	li	gp,29
    800004ec:	00701463          	bne	zero,t2,800004f4 <fail>
    800004f0:	00301663          	bne	zero,gp,800004fc <pass>

00000000800004f4 <fail>:
    800004f4:	00100513          	li	a0,1
    800004f8:	00c0006f          	j	80000504 <halt>

00000000800004fc <pass>:
    800004fc:	00000513          	li	a0,0
    80000500:	0040006f          	j	80000504 <halt>

0000000080000504 <halt>:
    80000504:	0000006f          	j	80000504 <halt>
    80000508:	0000                	unimp
    8000050a:	0000                	unimp
    8000050c:	0000                	unimp
    8000050e:	0000                	unimp
    80000510:	0000                	unimp
    80000512:	0000                	unimp
    80000514:	0000                	unimp
    80000516:	0000                	unimp
    80000518:	0000                	unimp
    8000051a:	0000                	unimp
    8000051c:	0000                	unimp
    8000051e:	0000                	unimp
    80000520:	0000                	unimp
    80000522:	0000                	unimp
    80000524:	0000                	unimp
    80000526:	0000                	unimp
    80000528:	0000                	unimp
    8000052a:	0000                	unimp
    8000052c:	0000                	unimp
    8000052e:	0000                	unimp
    80000530:	0000                	unimp
    80000532:	0000                	unimp
    80000534:	0000                	unimp
    80000536:	0000                	unimp
    80000538:	0000                	unimp
    8000053a:	0000                	unimp
    8000053c:	0000                	unimp
    8000053e:	0000                	unimp
    80000540:	0000                	unimp
    80000542:	0000                	unimp
