
rv64um-p-mul:     file format elf64-littleriscv


Disassembly of section .text.init:

0000000080000000 <_start>:
    80000000:	000080b7          	lui	ra,0x8
    80000004:	e000809b          	addiw	ra,ra,-512
    80000008:	06db7137          	lui	sp,0x6db7
    8000000c:	db71011b          	addiw	sp,sp,-585
    80000010:	00c11113          	slli	sp,sp,0xc
    80000014:	db710113          	addi	sp,sp,-585 # 6db6db7 <_start-0x79249249>
    80000018:	00c11113          	slli	sp,sp,0xc
    8000001c:	db710113          	addi	sp,sp,-585
    80000020:	00c11113          	slli	sp,sp,0xc
    80000024:	db710113          	addi	sp,sp,-585
    80000028:	02208733          	mul	a4,ra,sp
    8000002c:	000013b7          	lui	t2,0x1
    80000030:	2003839b          	addiw	t2,t2,512
    80000034:	02000193          	li	gp,32
    80000038:	48771a63          	bne	a4,t2,800004cc <fail>

000000008000003c <test_33>:
    8000003c:	000080b7          	lui	ra,0x8
    80000040:	fc00809b          	addiw	ra,ra,-64
    80000044:	06db7137          	lui	sp,0x6db7
    80000048:	db71011b          	addiw	sp,sp,-585
    8000004c:	00c11113          	slli	sp,sp,0xc
    80000050:	db710113          	addi	sp,sp,-585 # 6db6db7 <_start-0x79249249>
    80000054:	00c11113          	slli	sp,sp,0xc
    80000058:	db710113          	addi	sp,sp,-585
    8000005c:	00c11113          	slli	sp,sp,0xc
    80000060:	db710113          	addi	sp,sp,-585
    80000064:	02208733          	mul	a4,ra,sp
    80000068:	000013b7          	lui	t2,0x1
    8000006c:	2403839b          	addiw	t2,t2,576
    80000070:	02100193          	li	gp,33
    80000074:	44771c63          	bne	a4,t2,800004cc <fail>

0000000080000078 <test_2>:
    80000078:	00000093          	li	ra,0
    8000007c:	00000113          	li	sp,0
    80000080:	02208733          	mul	a4,ra,sp
    80000084:	00000393          	li	t2,0
    80000088:	00200193          	li	gp,2
    8000008c:	44771063          	bne	a4,t2,800004cc <fail>

0000000080000090 <test_3>:
    80000090:	00100093          	li	ra,1
    80000094:	00100113          	li	sp,1
    80000098:	02208733          	mul	a4,ra,sp
    8000009c:	00100393          	li	t2,1
    800000a0:	00300193          	li	gp,3
    800000a4:	42771463          	bne	a4,t2,800004cc <fail>

00000000800000a8 <test_4>:
    800000a8:	00300093          	li	ra,3
    800000ac:	00700113          	li	sp,7
    800000b0:	02208733          	mul	a4,ra,sp
    800000b4:	01500393          	li	t2,21
    800000b8:	00400193          	li	gp,4
    800000bc:	40771863          	bne	a4,t2,800004cc <fail>

00000000800000c0 <test_5>:
    800000c0:	00000093          	li	ra,0
    800000c4:	ffff8137          	lui	sp,0xffff8
    800000c8:	02208733          	mul	a4,ra,sp
    800000cc:	00000393          	li	t2,0
    800000d0:	00500193          	li	gp,5
    800000d4:	3e771c63          	bne	a4,t2,800004cc <fail>

00000000800000d8 <test_6>:
    800000d8:	800000b7          	lui	ra,0x80000
    800000dc:	00000113          	li	sp,0
    800000e0:	02208733          	mul	a4,ra,sp
    800000e4:	00000393          	li	t2,0
    800000e8:	00600193          	li	gp,6
    800000ec:	3e771063          	bne	a4,t2,800004cc <fail>

00000000800000f0 <test_7>:
    800000f0:	800000b7          	lui	ra,0x80000
    800000f4:	ffff8137          	lui	sp,0xffff8
    800000f8:	02208733          	mul	a4,ra,sp
    800000fc:	0010039b          	addiw	t2,zero,1
    80000100:	02e39393          	slli	t2,t2,0x2e
    80000104:	00700193          	li	gp,7
    80000108:	3c771263          	bne	a4,t2,800004cc <fail>

000000008000010c <test_30>:
    8000010c:	faaab0b7          	lui	ra,0xfaaab
    80000110:	aab0809b          	addiw	ra,ra,-1365
    80000114:	00c09093          	slli	ra,ra,0xc
    80000118:	aab08093          	addi	ra,ra,-1365 # fffffffffaaaaaab <_end+0xffffffff7aaa8aab>
    8000011c:	00c09093          	slli	ra,ra,0xc
    80000120:	aab08093          	addi	ra,ra,-1365
    80000124:	00c09093          	slli	ra,ra,0xc
    80000128:	aab08093          	addi	ra,ra,-1365
    8000012c:	00030137          	lui	sp,0x30
    80000130:	e7d1011b          	addiw	sp,sp,-387
    80000134:	02208733          	mul	a4,ra,sp
    80000138:	000103b7          	lui	t2,0x10
    8000013c:	f7f3839b          	addiw	t2,t2,-129
    80000140:	01e00193          	li	gp,30
    80000144:	38771463          	bne	a4,t2,800004cc <fail>

0000000080000148 <test_31>:
    80000148:	000300b7          	lui	ra,0x30
    8000014c:	e7d0809b          	addiw	ra,ra,-387
    80000150:	faaab137          	lui	sp,0xfaaab
    80000154:	aab1011b          	addiw	sp,sp,-1365
    80000158:	00c11113          	slli	sp,sp,0xc
    8000015c:	aab10113          	addi	sp,sp,-1365 # fffffffffaaaaaab <_end+0xffffffff7aaa8aab>
    80000160:	00c11113          	slli	sp,sp,0xc
    80000164:	aab10113          	addi	sp,sp,-1365
    80000168:	00c11113          	slli	sp,sp,0xc
    8000016c:	aab10113          	addi	sp,sp,-1365
    80000170:	02208733          	mul	a4,ra,sp
    80000174:	000103b7          	lui	t2,0x10
    80000178:	f7f3839b          	addiw	t2,t2,-129
    8000017c:	01f00193          	li	gp,31
    80000180:	34771663          	bne	a4,t2,800004cc <fail>

0000000080000184 <test_8>:
    80000184:	00d00093          	li	ra,13
    80000188:	00b00113          	li	sp,11
    8000018c:	022080b3          	mul	ra,ra,sp
    80000190:	08f00393          	li	t2,143
    80000194:	00800193          	li	gp,8
    80000198:	32709a63          	bne	ra,t2,800004cc <fail>

000000008000019c <test_9>:
    8000019c:	00e00093          	li	ra,14
    800001a0:	00b00113          	li	sp,11
    800001a4:	02208133          	mul	sp,ra,sp
    800001a8:	09a00393          	li	t2,154
    800001ac:	00900193          	li	gp,9
    800001b0:	30711e63          	bne	sp,t2,800004cc <fail>

00000000800001b4 <test_10>:
    800001b4:	00d00093          	li	ra,13
    800001b8:	021080b3          	mul	ra,ra,ra
    800001bc:	0a900393          	li	t2,169
    800001c0:	00a00193          	li	gp,10
    800001c4:	30709463          	bne	ra,t2,800004cc <fail>

00000000800001c8 <test_11>:
    800001c8:	00000213          	li	tp,0
    800001cc:	00d00093          	li	ra,13
    800001d0:	00b00113          	li	sp,11
    800001d4:	02208733          	mul	a4,ra,sp
    800001d8:	00070313          	mv	t1,a4
    800001dc:	00120213          	addi	tp,tp,1 # 1 <_start-0x7fffffff>
    800001e0:	00200293          	li	t0,2
    800001e4:	fe5214e3          	bne	tp,t0,800001cc <test_11+0x4>
    800001e8:	08f00393          	li	t2,143
    800001ec:	00b00193          	li	gp,11
    800001f0:	2c731e63          	bne	t1,t2,800004cc <fail>

00000000800001f4 <test_12>:
    800001f4:	00000213          	li	tp,0
    800001f8:	00e00093          	li	ra,14
    800001fc:	00b00113          	li	sp,11
    80000200:	02208733          	mul	a4,ra,sp
    80000204:	00000013          	nop
    80000208:	00070313          	mv	t1,a4
    8000020c:	00120213          	addi	tp,tp,1 # 1 <_start-0x7fffffff>
    80000210:	00200293          	li	t0,2
    80000214:	fe5212e3          	bne	tp,t0,800001f8 <test_12+0x4>
    80000218:	09a00393          	li	t2,154
    8000021c:	00c00193          	li	gp,12
    80000220:	2a731663          	bne	t1,t2,800004cc <fail>

0000000080000224 <test_13>:
    80000224:	00000213          	li	tp,0
    80000228:	00f00093          	li	ra,15
    8000022c:	00b00113          	li	sp,11
    80000230:	02208733          	mul	a4,ra,sp
    80000234:	00000013          	nop
    80000238:	00000013          	nop
    8000023c:	00070313          	mv	t1,a4
    80000240:	00120213          	addi	tp,tp,1 # 1 <_start-0x7fffffff>
    80000244:	00200293          	li	t0,2
    80000248:	fe5210e3          	bne	tp,t0,80000228 <test_13+0x4>
    8000024c:	0a500393          	li	t2,165
    80000250:	00d00193          	li	gp,13
    80000254:	26731c63          	bne	t1,t2,800004cc <fail>

0000000080000258 <test_14>:
    80000258:	00000213          	li	tp,0
    8000025c:	00d00093          	li	ra,13
    80000260:	00b00113          	li	sp,11
    80000264:	02208733          	mul	a4,ra,sp
    80000268:	00120213          	addi	tp,tp,1 # 1 <_start-0x7fffffff>
    8000026c:	00200293          	li	t0,2
    80000270:	fe5216e3          	bne	tp,t0,8000025c <test_14+0x4>
    80000274:	08f00393          	li	t2,143
    80000278:	00e00193          	li	gp,14
    8000027c:	24771863          	bne	a4,t2,800004cc <fail>

0000000080000280 <test_15>:
    80000280:	00000213          	li	tp,0
    80000284:	00e00093          	li	ra,14
    80000288:	00b00113          	li	sp,11
    8000028c:	00000013          	nop
    80000290:	02208733          	mul	a4,ra,sp
    80000294:	00120213          	addi	tp,tp,1 # 1 <_start-0x7fffffff>
    80000298:	00200293          	li	t0,2
    8000029c:	fe5214e3          	bne	tp,t0,80000284 <test_15+0x4>
    800002a0:	09a00393          	li	t2,154
    800002a4:	00f00193          	li	gp,15
    800002a8:	22771263          	bne	a4,t2,800004cc <fail>

00000000800002ac <test_16>:
    800002ac:	00000213          	li	tp,0
    800002b0:	00f00093          	li	ra,15
    800002b4:	00b00113          	li	sp,11
    800002b8:	00000013          	nop
    800002bc:	00000013          	nop
    800002c0:	02208733          	mul	a4,ra,sp
    800002c4:	00120213          	addi	tp,tp,1 # 1 <_start-0x7fffffff>
    800002c8:	00200293          	li	t0,2
    800002cc:	fe5212e3          	bne	tp,t0,800002b0 <test_16+0x4>
    800002d0:	0a500393          	li	t2,165
    800002d4:	01000193          	li	gp,16
    800002d8:	1e771a63          	bne	a4,t2,800004cc <fail>

00000000800002dc <test_17>:
    800002dc:	00000213          	li	tp,0
    800002e0:	00d00093          	li	ra,13
    800002e4:	00000013          	nop
    800002e8:	00b00113          	li	sp,11
    800002ec:	02208733          	mul	a4,ra,sp
    800002f0:	00120213          	addi	tp,tp,1 # 1 <_start-0x7fffffff>
    800002f4:	00200293          	li	t0,2
    800002f8:	fe5214e3          	bne	tp,t0,800002e0 <test_17+0x4>
    800002fc:	08f00393          	li	t2,143
    80000300:	01100193          	li	gp,17
    80000304:	1c771463          	bne	a4,t2,800004cc <fail>

0000000080000308 <test_18>:
    80000308:	00000213          	li	tp,0
    8000030c:	00e00093          	li	ra,14
    80000310:	00000013          	nop
    80000314:	00b00113          	li	sp,11
    80000318:	00000013          	nop
    8000031c:	02208733          	mul	a4,ra,sp
    80000320:	00120213          	addi	tp,tp,1 # 1 <_start-0x7fffffff>
    80000324:	00200293          	li	t0,2
    80000328:	fe5212e3          	bne	tp,t0,8000030c <test_18+0x4>
    8000032c:	09a00393          	li	t2,154
    80000330:	01200193          	li	gp,18
    80000334:	18771c63          	bne	a4,t2,800004cc <fail>

0000000080000338 <test_19>:
    80000338:	00000213          	li	tp,0
    8000033c:	00f00093          	li	ra,15
    80000340:	00000013          	nop
    80000344:	00000013          	nop
    80000348:	00b00113          	li	sp,11
    8000034c:	02208733          	mul	a4,ra,sp
    80000350:	00120213          	addi	tp,tp,1 # 1 <_start-0x7fffffff>
    80000354:	00200293          	li	t0,2
    80000358:	fe5212e3          	bne	tp,t0,8000033c <test_19+0x4>
    8000035c:	0a500393          	li	t2,165
    80000360:	01300193          	li	gp,19
    80000364:	16771463          	bne	a4,t2,800004cc <fail>

0000000080000368 <test_20>:
    80000368:	00000213          	li	tp,0
    8000036c:	00b00113          	li	sp,11
    80000370:	00d00093          	li	ra,13
    80000374:	02208733          	mul	a4,ra,sp
    80000378:	00120213          	addi	tp,tp,1 # 1 <_start-0x7fffffff>
    8000037c:	00200293          	li	t0,2
    80000380:	fe5216e3          	bne	tp,t0,8000036c <test_20+0x4>
    80000384:	08f00393          	li	t2,143
    80000388:	01400193          	li	gp,20
    8000038c:	14771063          	bne	a4,t2,800004cc <fail>

0000000080000390 <test_21>:
    80000390:	00000213          	li	tp,0
    80000394:	00b00113          	li	sp,11
    80000398:	00e00093          	li	ra,14
    8000039c:	00000013          	nop
    800003a0:	02208733          	mul	a4,ra,sp
    800003a4:	00120213          	addi	tp,tp,1 # 1 <_start-0x7fffffff>
    800003a8:	00200293          	li	t0,2
    800003ac:	fe5214e3          	bne	tp,t0,80000394 <test_21+0x4>
    800003b0:	09a00393          	li	t2,154
    800003b4:	01500193          	li	gp,21
    800003b8:	10771a63          	bne	a4,t2,800004cc <fail>

00000000800003bc <test_22>:
    800003bc:	00000213          	li	tp,0
    800003c0:	00b00113          	li	sp,11
    800003c4:	00f00093          	li	ra,15
    800003c8:	00000013          	nop
    800003cc:	00000013          	nop
    800003d0:	02208733          	mul	a4,ra,sp
    800003d4:	00120213          	addi	tp,tp,1 # 1 <_start-0x7fffffff>
    800003d8:	00200293          	li	t0,2
    800003dc:	fe5212e3          	bne	tp,t0,800003c0 <test_22+0x4>
    800003e0:	0a500393          	li	t2,165
    800003e4:	01600193          	li	gp,22
    800003e8:	0e771263          	bne	a4,t2,800004cc <fail>

00000000800003ec <test_23>:
    800003ec:	00000213          	li	tp,0
    800003f0:	00b00113          	li	sp,11
    800003f4:	00000013          	nop
    800003f8:	00d00093          	li	ra,13
    800003fc:	02208733          	mul	a4,ra,sp
    80000400:	00120213          	addi	tp,tp,1 # 1 <_start-0x7fffffff>
    80000404:	00200293          	li	t0,2
    80000408:	fe5214e3          	bne	tp,t0,800003f0 <test_23+0x4>
    8000040c:	08f00393          	li	t2,143
    80000410:	01700193          	li	gp,23
    80000414:	0a771c63          	bne	a4,t2,800004cc <fail>

0000000080000418 <test_24>:
    80000418:	00000213          	li	tp,0
    8000041c:	00b00113          	li	sp,11
    80000420:	00000013          	nop
    80000424:	00e00093          	li	ra,14
    80000428:	00000013          	nop
    8000042c:	02208733          	mul	a4,ra,sp
    80000430:	00120213          	addi	tp,tp,1 # 1 <_start-0x7fffffff>
    80000434:	00200293          	li	t0,2
    80000438:	fe5212e3          	bne	tp,t0,8000041c <test_24+0x4>
    8000043c:	09a00393          	li	t2,154
    80000440:	01800193          	li	gp,24
    80000444:	08771463          	bne	a4,t2,800004cc <fail>

0000000080000448 <test_25>:
    80000448:	00000213          	li	tp,0
    8000044c:	00b00113          	li	sp,11
    80000450:	00000013          	nop
    80000454:	00000013          	nop
    80000458:	00f00093          	li	ra,15
    8000045c:	02208733          	mul	a4,ra,sp
    80000460:	00120213          	addi	tp,tp,1 # 1 <_start-0x7fffffff>
    80000464:	00200293          	li	t0,2
    80000468:	fe5212e3          	bne	tp,t0,8000044c <test_25+0x4>
    8000046c:	0a500393          	li	t2,165
    80000470:	01900193          	li	gp,25
    80000474:	04771c63          	bne	a4,t2,800004cc <fail>

0000000080000478 <test_26>:
    80000478:	01f00093          	li	ra,31
    8000047c:	02100133          	mul	sp,zero,ra
    80000480:	00000393          	li	t2,0
    80000484:	01a00193          	li	gp,26
    80000488:	04711263          	bne	sp,t2,800004cc <fail>

000000008000048c <test_27>:
    8000048c:	02000093          	li	ra,32
    80000490:	02008133          	mul	sp,ra,zero
    80000494:	00000393          	li	t2,0
    80000498:	01b00193          	li	gp,27
    8000049c:	02711863          	bne	sp,t2,800004cc <fail>

00000000800004a0 <test_28>:
    800004a0:	020000b3          	mul	ra,zero,zero
    800004a4:	00000393          	li	t2,0
    800004a8:	01c00193          	li	gp,28
    800004ac:	02709063          	bne	ra,t2,800004cc <fail>

00000000800004b0 <test_29>:
    800004b0:	02100093          	li	ra,33
    800004b4:	02200113          	li	sp,34
    800004b8:	02208033          	mul	zero,ra,sp
    800004bc:	00000393          	li	t2,0
    800004c0:	01d00193          	li	gp,29
    800004c4:	00701463          	bne	zero,t2,800004cc <fail>
    800004c8:	00301663          	bne	zero,gp,800004d4 <pass>

00000000800004cc <fail>:
    800004cc:	00100513          	li	a0,1
    800004d0:	00c0006f          	j	800004dc <halt>

00000000800004d4 <pass>:
    800004d4:	00000513          	li	a0,0
    800004d8:	0040006f          	j	800004dc <halt>

00000000800004dc <halt>:
    800004dc:	0000006f          	j	800004dc <halt>
    800004e0:	0000                	unimp
    800004e2:	0000                	unimp
    800004e4:	0000                	unimp
    800004e6:	0000                	unimp
    800004e8:	0000                	unimp
    800004ea:	0000                	unimp
    800004ec:	0000                	unimp
    800004ee:	0000                	unimp
    800004f0:	0000                	unimp
    800004f2:	0000                	unimp
    800004f4:	0000                	unimp
    800004f6:	0000                	unimp
    800004f8:	0000                	unimp
    800004fa:	0000                	unimp
    800004fc:	0000                	unimp
    800004fe:	0000                	unimp
    80000500:	0000                	unimp
    80000502:	0000                	unimp
