
rv64um-p-divw:     file format elf64-littleriscv


Disassembly of section .text.init:

0000000080000000 <_start>:
    80000000:	01400093          	li	ra,20
    80000004:	00600113          	li	sp,6
    80000008:	0220c73b          	divw	a4,ra,sp
    8000000c:	00300393          	li	t2,3
    80000010:	00200193          	li	gp,2
    80000014:	0c771463          	bne	a4,t2,800000dc <fail>

0000000080000018 <test_3>:
    80000018:	fec00093          	li	ra,-20
    8000001c:	00600113          	li	sp,6
    80000020:	0220c73b          	divw	a4,ra,sp
    80000024:	ffd00393          	li	t2,-3
    80000028:	00300193          	li	gp,3
    8000002c:	0a771863          	bne	a4,t2,800000dc <fail>

0000000080000030 <test_4>:
    80000030:	01400093          	li	ra,20
    80000034:	ffa00113          	li	sp,-6
    80000038:	0220c73b          	divw	a4,ra,sp
    8000003c:	ffd00393          	li	t2,-3
    80000040:	00400193          	li	gp,4
    80000044:	08771c63          	bne	a4,t2,800000dc <fail>

0000000080000048 <test_5>:
    80000048:	fec00093          	li	ra,-20
    8000004c:	ffa00113          	li	sp,-6
    80000050:	0220c73b          	divw	a4,ra,sp
    80000054:	00300393          	li	t2,3
    80000058:	00500193          	li	gp,5
    8000005c:	08771063          	bne	a4,t2,800000dc <fail>

0000000080000060 <test_6>:
    80000060:	800000b7          	lui	ra,0x80000
    80000064:	00100113          	li	sp,1
    80000068:	0220c73b          	divw	a4,ra,sp
    8000006c:	800003b7          	lui	t2,0x80000
    80000070:	00600193          	li	gp,6
    80000074:	06771463          	bne	a4,t2,800000dc <fail>

0000000080000078 <test_7>:
    80000078:	800000b7          	lui	ra,0x80000
    8000007c:	fff00113          	li	sp,-1
    80000080:	0220c73b          	divw	a4,ra,sp
    80000084:	800003b7          	lui	t2,0x80000
    80000088:	00700193          	li	gp,7
    8000008c:	04771863          	bne	a4,t2,800000dc <fail>

0000000080000090 <test_8>:
    80000090:	800000b7          	lui	ra,0x80000
    80000094:	00000113          	li	sp,0
    80000098:	0220c73b          	divw	a4,ra,sp
    8000009c:	fff00393          	li	t2,-1
    800000a0:	00800193          	li	gp,8
    800000a4:	02771c63          	bne	a4,t2,800000dc <fail>

00000000800000a8 <test_9>:
    800000a8:	00100093          	li	ra,1
    800000ac:	00000113          	li	sp,0
    800000b0:	0220c73b          	divw	a4,ra,sp
    800000b4:	fff00393          	li	t2,-1
    800000b8:	00900193          	li	gp,9
    800000bc:	02771063          	bne	a4,t2,800000dc <fail>

00000000800000c0 <test_10>:
    800000c0:	00000093          	li	ra,0
    800000c4:	00000113          	li	sp,0
    800000c8:	0220c73b          	divw	a4,ra,sp
    800000cc:	fff00393          	li	t2,-1
    800000d0:	00a00193          	li	gp,10
    800000d4:	00771463          	bne	a4,t2,800000dc <fail>
    800000d8:	00301663          	bne	zero,gp,800000e4 <pass>

00000000800000dc <fail>:
    800000dc:	00100513          	li	a0,1
    800000e0:	00c0006f          	j	800000ec <halt>

00000000800000e4 <pass>:
    800000e4:	00000513          	li	a0,0
    800000e8:	0040006f          	j	800000ec <halt>

00000000800000ec <halt>:
    800000ec:	0000006f          	j	800000ec <halt>
    800000f0:	0000                	unimp
    800000f2:	0000                	unimp
    800000f4:	0000                	unimp
    800000f6:	0000                	unimp
    800000f8:	0000                	unimp
    800000fa:	0000                	unimp
    800000fc:	0000                	unimp
    800000fe:	0000                	unimp
    80000100:	0000                	unimp
    80000102:	0000                	unimp
