
rv64um-p-mulw:     file format elf64-littleriscv


Disassembly of section .text.init:

0000000080000000 <_start>:
    80000000:	00000093          	li	ra,0
    80000004:	00000113          	li	sp,0
    80000008:	0220873b          	mulw	a4,ra,sp
    8000000c:	00000393          	li	t2,0
    80000010:	00200193          	li	gp,2
    80000014:	3c771263          	bne	a4,t2,800003d8 <fail>

0000000080000018 <test_3>:
    80000018:	00100093          	li	ra,1
    8000001c:	00100113          	li	sp,1
    80000020:	0220873b          	mulw	a4,ra,sp
    80000024:	00100393          	li	t2,1
    80000028:	00300193          	li	gp,3
    8000002c:	3a771663          	bne	a4,t2,800003d8 <fail>

0000000080000030 <test_4>:
    80000030:	00300093          	li	ra,3
    80000034:	00700113          	li	sp,7
    80000038:	0220873b          	mulw	a4,ra,sp
    8000003c:	01500393          	li	t2,21
    80000040:	00400193          	li	gp,4
    80000044:	38771a63          	bne	a4,t2,800003d8 <fail>

0000000080000048 <test_5>:
    80000048:	00000093          	li	ra,0
    8000004c:	ffff8137          	lui	sp,0xffff8
    80000050:	0220873b          	mulw	a4,ra,sp
    80000054:	00000393          	li	t2,0
    80000058:	00500193          	li	gp,5
    8000005c:	36771e63          	bne	a4,t2,800003d8 <fail>

0000000080000060 <test_6>:
    80000060:	800000b7          	lui	ra,0x80000
    80000064:	00000113          	li	sp,0
    80000068:	0220873b          	mulw	a4,ra,sp
    8000006c:	00000393          	li	t2,0
    80000070:	00600193          	li	gp,6
    80000074:	36771263          	bne	a4,t2,800003d8 <fail>

0000000080000078 <test_7>:
    80000078:	800000b7          	lui	ra,0x80000
    8000007c:	ffff8137          	lui	sp,0xffff8
    80000080:	0220873b          	mulw	a4,ra,sp
    80000084:	00000393          	li	t2,0
    80000088:	00700193          	li	gp,7
    8000008c:	34771663          	bne	a4,t2,800003d8 <fail>

0000000080000090 <test_8>:
    80000090:	00d00093          	li	ra,13
    80000094:	00b00113          	li	sp,11
    80000098:	022080bb          	mulw	ra,ra,sp
    8000009c:	08f00393          	li	t2,143
    800000a0:	00800193          	li	gp,8
    800000a4:	32709a63          	bne	ra,t2,800003d8 <fail>

00000000800000a8 <test_9>:
    800000a8:	00e00093          	li	ra,14
    800000ac:	00b00113          	li	sp,11
    800000b0:	0220813b          	mulw	sp,ra,sp
    800000b4:	09a00393          	li	t2,154
    800000b8:	00900193          	li	gp,9
    800000bc:	30711e63          	bne	sp,t2,800003d8 <fail>

00000000800000c0 <test_10>:
    800000c0:	00d00093          	li	ra,13
    800000c4:	021080bb          	mulw	ra,ra,ra
    800000c8:	0a900393          	li	t2,169
    800000cc:	00a00193          	li	gp,10
    800000d0:	30709463          	bne	ra,t2,800003d8 <fail>

00000000800000d4 <test_11>:
    800000d4:	00000213          	li	tp,0
    800000d8:	00d00093          	li	ra,13
    800000dc:	00b00113          	li	sp,11
    800000e0:	0220873b          	mulw	a4,ra,sp
    800000e4:	00070313          	mv	t1,a4
    800000e8:	00120213          	addi	tp,tp,1 # 1 <_start-0x7fffffff>
    800000ec:	00200293          	li	t0,2
    800000f0:	fe5214e3          	bne	tp,t0,800000d8 <test_11+0x4>
    800000f4:	08f00393          	li	t2,143
    800000f8:	00b00193          	li	gp,11
    800000fc:	2c731e63          	bne	t1,t2,800003d8 <fail>

0000000080000100 <test_12>:
    80000100:	00000213          	li	tp,0
    80000104:	00e00093          	li	ra,14
    80000108:	00b00113          	li	sp,11
    8000010c:	0220873b          	mulw	a4,ra,sp
    80000110:	00000013          	nop
    80000114:	00070313          	mv	t1,a4
    80000118:	00120213          	addi	tp,tp,1 # 1 <_start-0x7fffffff>
    8000011c:	00200293          	li	t0,2
    80000120:	fe5212e3          	bne	tp,t0,80000104 <test_12+0x4>
    80000124:	09a00393          	li	t2,154
    80000128:	00c00193          	li	gp,12
    8000012c:	2a731663          	bne	t1,t2,800003d8 <fail>

0000000080000130 <test_13>:
    80000130:	00000213          	li	tp,0
    80000134:	00f00093          	li	ra,15
    80000138:	00b00113          	li	sp,11
    8000013c:	0220873b          	mulw	a4,ra,sp
    80000140:	00000013          	nop
    80000144:	00000013          	nop
    80000148:	00070313          	mv	t1,a4
    8000014c:	00120213          	addi	tp,tp,1 # 1 <_start-0x7fffffff>
    80000150:	00200293          	li	t0,2
    80000154:	fe5210e3          	bne	tp,t0,80000134 <test_13+0x4>
    80000158:	0a500393          	li	t2,165
    8000015c:	00d00193          	li	gp,13
    80000160:	26731c63          	bne	t1,t2,800003d8 <fail>

0000000080000164 <test_14>:
    80000164:	00000213          	li	tp,0
    80000168:	00d00093          	li	ra,13
    8000016c:	00b00113          	li	sp,11
    80000170:	0220873b          	mulw	a4,ra,sp
    80000174:	00120213          	addi	tp,tp,1 # 1 <_start-0x7fffffff>
    80000178:	00200293          	li	t0,2
    8000017c:	fe5216e3          	bne	tp,t0,80000168 <test_14+0x4>
    80000180:	08f00393          	li	t2,143
    80000184:	00e00193          	li	gp,14
    80000188:	24771863          	bne	a4,t2,800003d8 <fail>

000000008000018c <test_15>:
    8000018c:	00000213          	li	tp,0
    80000190:	00e00093          	li	ra,14
    80000194:	00b00113          	li	sp,11
    80000198:	00000013          	nop
    8000019c:	0220873b          	mulw	a4,ra,sp
    800001a0:	00120213          	addi	tp,tp,1 # 1 <_start-0x7fffffff>
    800001a4:	00200293          	li	t0,2
    800001a8:	fe5214e3          	bne	tp,t0,80000190 <test_15+0x4>
    800001ac:	09a00393          	li	t2,154
    800001b0:	00f00193          	li	gp,15
    800001b4:	22771263          	bne	a4,t2,800003d8 <fail>

00000000800001b8 <test_16>:
    800001b8:	00000213          	li	tp,0
    800001bc:	00f00093          	li	ra,15
    800001c0:	00b00113          	li	sp,11
    800001c4:	00000013          	nop
    800001c8:	00000013          	nop
    800001cc:	0220873b          	mulw	a4,ra,sp
    800001d0:	00120213          	addi	tp,tp,1 # 1 <_start-0x7fffffff>
    800001d4:	00200293          	li	t0,2
    800001d8:	fe5212e3          	bne	tp,t0,800001bc <test_16+0x4>
    800001dc:	0a500393          	li	t2,165
    800001e0:	01000193          	li	gp,16
    800001e4:	1e771a63          	bne	a4,t2,800003d8 <fail>

00000000800001e8 <test_17>:
    800001e8:	00000213          	li	tp,0
    800001ec:	00d00093          	li	ra,13
    800001f0:	00000013          	nop
    800001f4:	00b00113          	li	sp,11
    800001f8:	0220873b          	mulw	a4,ra,sp
    800001fc:	00120213          	addi	tp,tp,1 # 1 <_start-0x7fffffff>
    80000200:	00200293          	li	t0,2
    80000204:	fe5214e3          	bne	tp,t0,800001ec <test_17+0x4>
    80000208:	08f00393          	li	t2,143
    8000020c:	01100193          	li	gp,17
    80000210:	1c771463          	bne	a4,t2,800003d8 <fail>

0000000080000214 <test_18>:
    80000214:	00000213          	li	tp,0
    80000218:	00e00093          	li	ra,14
    8000021c:	00000013          	nop
    80000220:	00b00113          	li	sp,11
    80000224:	00000013          	nop
    80000228:	0220873b          	mulw	a4,ra,sp
    8000022c:	00120213          	addi	tp,tp,1 # 1 <_start-0x7fffffff>
    80000230:	00200293          	li	t0,2
    80000234:	fe5212e3          	bne	tp,t0,80000218 <test_18+0x4>
    80000238:	09a00393          	li	t2,154
    8000023c:	01200193          	li	gp,18
    80000240:	18771c63          	bne	a4,t2,800003d8 <fail>

0000000080000244 <test_19>:
    80000244:	00000213          	li	tp,0
    80000248:	00f00093          	li	ra,15
    8000024c:	00000013          	nop
    80000250:	00000013          	nop
    80000254:	00b00113          	li	sp,11
    80000258:	0220873b          	mulw	a4,ra,sp
    8000025c:	00120213          	addi	tp,tp,1 # 1 <_start-0x7fffffff>
    80000260:	00200293          	li	t0,2
    80000264:	fe5212e3          	bne	tp,t0,80000248 <test_19+0x4>
    80000268:	0a500393          	li	t2,165
    8000026c:	01300193          	li	gp,19
    80000270:	16771463          	bne	a4,t2,800003d8 <fail>

0000000080000274 <test_20>:
    80000274:	00000213          	li	tp,0
    80000278:	00b00113          	li	sp,11
    8000027c:	00d00093          	li	ra,13
    80000280:	0220873b          	mulw	a4,ra,sp
    80000284:	00120213          	addi	tp,tp,1 # 1 <_start-0x7fffffff>
    80000288:	00200293          	li	t0,2
    8000028c:	fe5216e3          	bne	tp,t0,80000278 <test_20+0x4>
    80000290:	08f00393          	li	t2,143
    80000294:	01400193          	li	gp,20
    80000298:	14771063          	bne	a4,t2,800003d8 <fail>

000000008000029c <test_21>:
    8000029c:	00000213          	li	tp,0
    800002a0:	00b00113          	li	sp,11
    800002a4:	00e00093          	li	ra,14
    800002a8:	00000013          	nop
    800002ac:	0220873b          	mulw	a4,ra,sp
    800002b0:	00120213          	addi	tp,tp,1 # 1 <_start-0x7fffffff>
    800002b4:	00200293          	li	t0,2
    800002b8:	fe5214e3          	bne	tp,t0,800002a0 <test_21+0x4>
    800002bc:	09a00393          	li	t2,154
    800002c0:	01500193          	li	gp,21
    800002c4:	10771a63          	bne	a4,t2,800003d8 <fail>

00000000800002c8 <test_22>:
    800002c8:	00000213          	li	tp,0
    800002cc:	00b00113          	li	sp,11
    800002d0:	00f00093          	li	ra,15
    800002d4:	00000013          	nop
    800002d8:	00000013          	nop
    800002dc:	0220873b          	mulw	a4,ra,sp
    800002e0:	00120213          	addi	tp,tp,1 # 1 <_start-0x7fffffff>
    800002e4:	00200293          	li	t0,2
    800002e8:	fe5212e3          	bne	tp,t0,800002cc <test_22+0x4>
    800002ec:	0a500393          	li	t2,165
    800002f0:	01600193          	li	gp,22
    800002f4:	0e771263          	bne	a4,t2,800003d8 <fail>

00000000800002f8 <test_23>:
    800002f8:	00000213          	li	tp,0
    800002fc:	00b00113          	li	sp,11
    80000300:	00000013          	nop
    80000304:	00d00093          	li	ra,13
    80000308:	0220873b          	mulw	a4,ra,sp
    8000030c:	00120213          	addi	tp,tp,1 # 1 <_start-0x7fffffff>
    80000310:	00200293          	li	t0,2
    80000314:	fe5214e3          	bne	tp,t0,800002fc <test_23+0x4>
    80000318:	08f00393          	li	t2,143
    8000031c:	01700193          	li	gp,23
    80000320:	0a771c63          	bne	a4,t2,800003d8 <fail>

0000000080000324 <test_24>:
    80000324:	00000213          	li	tp,0
    80000328:	00b00113          	li	sp,11
    8000032c:	00000013          	nop
    80000330:	00e00093          	li	ra,14
    80000334:	00000013          	nop
    80000338:	0220873b          	mulw	a4,ra,sp
    8000033c:	00120213          	addi	tp,tp,1 # 1 <_start-0x7fffffff>
    80000340:	00200293          	li	t0,2
    80000344:	fe5212e3          	bne	tp,t0,80000328 <test_24+0x4>
    80000348:	09a00393          	li	t2,154
    8000034c:	01800193          	li	gp,24
    80000350:	08771463          	bne	a4,t2,800003d8 <fail>

0000000080000354 <test_25>:
    80000354:	00000213          	li	tp,0
    80000358:	00b00113          	li	sp,11
    8000035c:	00000013          	nop
    80000360:	00000013          	nop
    80000364:	00f00093          	li	ra,15
    80000368:	0220873b          	mulw	a4,ra,sp
    8000036c:	00120213          	addi	tp,tp,1 # 1 <_start-0x7fffffff>
    80000370:	00200293          	li	t0,2
    80000374:	fe5212e3          	bne	tp,t0,80000358 <test_25+0x4>
    80000378:	0a500393          	li	t2,165
    8000037c:	01900193          	li	gp,25
    80000380:	04771c63          	bne	a4,t2,800003d8 <fail>

0000000080000384 <test_26>:
    80000384:	01f00093          	li	ra,31
    80000388:	0210013b          	mulw	sp,zero,ra
    8000038c:	00000393          	li	t2,0
    80000390:	01a00193          	li	gp,26
    80000394:	04711263          	bne	sp,t2,800003d8 <fail>

0000000080000398 <test_27>:
    80000398:	02000093          	li	ra,32
    8000039c:	0200813b          	mulw	sp,ra,zero
    800003a0:	00000393          	li	t2,0
    800003a4:	01b00193          	li	gp,27
    800003a8:	02711863          	bne	sp,t2,800003d8 <fail>

00000000800003ac <test_28>:
    800003ac:	020000bb          	mulw	ra,zero,zero
    800003b0:	00000393          	li	t2,0
    800003b4:	01c00193          	li	gp,28
    800003b8:	02709063          	bne	ra,t2,800003d8 <fail>

00000000800003bc <test_29>:
    800003bc:	02100093          	li	ra,33
    800003c0:	02200113          	li	sp,34
    800003c4:	0220803b          	mulw	zero,ra,sp
    800003c8:	00000393          	li	t2,0
    800003cc:	01d00193          	li	gp,29
    800003d0:	00701463          	bne	zero,t2,800003d8 <fail>
    800003d4:	00301663          	bne	zero,gp,800003e0 <pass>

00000000800003d8 <fail>:
    800003d8:	00100513          	li	a0,1
    800003dc:	00c0006f          	j	800003e8 <halt>

00000000800003e0 <pass>:
    800003e0:	00000513          	li	a0,0
    800003e4:	0040006f          	j	800003e8 <halt>

00000000800003e8 <halt>:
    800003e8:	0000006f          	j	800003e8 <halt>
    800003ec:	0000                	unimp
    800003ee:	0000                	unimp
    800003f0:	0000                	unimp
    800003f2:	0000                	unimp
    800003f4:	0000                	unimp
    800003f6:	0000                	unimp
    800003f8:	0000                	unimp
    800003fa:	0000                	unimp
    800003fc:	0000                	unimp
    800003fe:	0000                	unimp
    80000400:	0000                	unimp
    80000402:	0000                	unimp
