
rv64um-p-mul:     file format elf64-littleriscv


Disassembly of section .text.init:

0000000080000000 <_start>:
    80000000:	0480006f          	j	80000048 <reset_vector>

0000000080000004 <trap_vector>:
    80000004:	34202f73          	csrr	t5,mcause
    80000008:	00800f93          	li	t6,8
    8000000c:	03ff0863          	beq	t5,t6,8000003c <write_tohost>
    80000010:	00900f93          	li	t6,9
    80000014:	03ff0463          	beq	t5,t6,8000003c <write_tohost>
    80000018:	00b00f93          	li	t6,11
    8000001c:	03ff0063          	beq	t5,t6,8000003c <write_tohost>
    80000020:	00000f13          	li	t5,0
    80000024:	000f0463          	beqz	t5,8000002c <trap_vector+0x28>
    80000028:	000f0067          	jr	t5
    8000002c:	34202f73          	csrr	t5,mcause
    80000030:	000f5463          	bgez	t5,80000038 <handle_exception>
    80000034:	0040006f          	j	80000038 <handle_exception>

0000000080000038 <handle_exception>:
    80000038:	5391e193          	ori	gp,gp,1337

000000008000003c <write_tohost>:
    8000003c:	00001f17          	auipc	t5,0x1
    80000040:	fc3f2223          	sw	gp,-60(t5) # 80001000 <tohost>
    80000044:	ff9ff06f          	j	8000003c <write_tohost>

0000000080000048 <reset_vector>:
    80000048:	00000093          	li	ra,0
    8000004c:	00000113          	li	sp,0
    80000050:	00000193          	li	gp,0
    80000054:	00000213          	li	tp,0
    80000058:	00000293          	li	t0,0
    8000005c:	00000313          	li	t1,0
    80000060:	00000393          	li	t2,0
    80000064:	00000413          	li	s0,0
    80000068:	00000493          	li	s1,0
    8000006c:	00000513          	li	a0,0
    80000070:	00000593          	li	a1,0
    80000074:	00000613          	li	a2,0
    80000078:	00000693          	li	a3,0
    8000007c:	00000713          	li	a4,0
    80000080:	00000793          	li	a5,0
    80000084:	00000813          	li	a6,0
    80000088:	00000893          	li	a7,0
    8000008c:	00000913          	li	s2,0
    80000090:	00000993          	li	s3,0
    80000094:	00000a13          	li	s4,0
    80000098:	00000a93          	li	s5,0
    8000009c:	00000b13          	li	s6,0
    800000a0:	00000b93          	li	s7,0
    800000a4:	00000c13          	li	s8,0
    800000a8:	00000c93          	li	s9,0
    800000ac:	00000d13          	li	s10,0
    800000b0:	00000d93          	li	s11,0
    800000b4:	00000e13          	li	t3,0
    800000b8:	00000e93          	li	t4,0
    800000bc:	00000f13          	li	t5,0
    800000c0:	00000f93          	li	t6,0
    800000c4:	f1402573          	csrr	a0,mhartid
    800000c8:	00051063          	bnez	a0,800000c8 <reset_vector+0x80>
    800000cc:	00000297          	auipc	t0,0x0
    800000d0:	01028293          	addi	t0,t0,16 # 800000dc <reset_vector+0x94>
    800000d4:	30529073          	csrw	mtvec,t0
    800000d8:	18005073          	csrwi	satp,0
    800000dc:	00000297          	auipc	t0,0x0
    800000e0:	02428293          	addi	t0,t0,36 # 80000100 <reset_vector+0xb8>
    800000e4:	30529073          	csrw	mtvec,t0
    800000e8:	0010029b          	addiw	t0,zero,1
    800000ec:	03529293          	slli	t0,t0,0x35
    800000f0:	fff28293          	addi	t0,t0,-1
    800000f4:	3b029073          	csrw	pmpaddr0,t0
    800000f8:	01f00293          	li	t0,31
    800000fc:	3a029073          	csrw	pmpcfg0,t0
    80000100:	30405073          	csrwi	mie,0
    80000104:	00000297          	auipc	t0,0x0
    80000108:	01428293          	addi	t0,t0,20 # 80000118 <reset_vector+0xd0>
    8000010c:	30529073          	csrw	mtvec,t0
    80000110:	30205073          	csrwi	medeleg,0
    80000114:	30305073          	csrwi	mideleg,0
    80000118:	00000193          	li	gp,0
    8000011c:	00000297          	auipc	t0,0x0
    80000120:	ee828293          	addi	t0,t0,-280 # 80000004 <trap_vector>
    80000124:	30529073          	csrw	mtvec,t0
    80000128:	00100513          	li	a0,1
    8000012c:	01f51513          	slli	a0,a0,0x1f
    80000130:	00055663          	bgez	a0,8000013c <reset_vector+0xf4>
    80000134:	00000513          	li	a0,0
    80000138:	5100006f          	j	80000648 <halt>
    8000013c:	00000293          	li	t0,0
    80000140:	00028a63          	beqz	t0,80000154 <reset_vector+0x10c>
    80000144:	10529073          	csrw	stvec,t0
    80000148:	0000b2b7          	lui	t0,0xb
    8000014c:	1092829b          	addiw	t0,t0,265 # b109 <_start-0x7fff4ef7>
    80000150:	30229073          	csrw	medeleg,t0
    80000154:	30005073          	csrwi	mstatus,0
    80000158:	00000297          	auipc	t0,0x0
    8000015c:	01428293          	addi	t0,t0,20 # 8000016c <test_32>
    80000160:	34129073          	csrw	mepc,t0
    80000164:	f1402573          	csrr	a0,mhartid
    80000168:	30200073          	mret

000000008000016c <test_32>:
    8000016c:	000080b7          	lui	ra,0x8
    80000170:	e000809b          	addiw	ra,ra,-512 # 7e00 <_start-0x7fff8200>
    80000174:	06db7137          	lui	sp,0x6db7
    80000178:	db71011b          	addiw	sp,sp,-585 # 6db6db7 <_start-0x79249249>
    8000017c:	00c11113          	slli	sp,sp,0xc
    80000180:	db710113          	addi	sp,sp,-585
    80000184:	00c11113          	slli	sp,sp,0xc
    80000188:	db710113          	addi	sp,sp,-585
    8000018c:	00c11113          	slli	sp,sp,0xc
    80000190:	db710113          	addi	sp,sp,-585
    80000194:	02208733          	mul	a4,ra,sp
    80000198:	000013b7          	lui	t2,0x1
    8000019c:	2003839b          	addiw	t2,t2,512 # 1200 <_start-0x7fffee00>
    800001a0:	02000193          	li	gp,32
    800001a4:	48771a63          	bne	a4,t2,80000638 <fail>

00000000800001a8 <test_33>:
    800001a8:	000080b7          	lui	ra,0x8
    800001ac:	fc00809b          	addiw	ra,ra,-64 # 7fc0 <_start-0x7fff8040>
    800001b0:	06db7137          	lui	sp,0x6db7
    800001b4:	db71011b          	addiw	sp,sp,-585 # 6db6db7 <_start-0x79249249>
    800001b8:	00c11113          	slli	sp,sp,0xc
    800001bc:	db710113          	addi	sp,sp,-585
    800001c0:	00c11113          	slli	sp,sp,0xc
    800001c4:	db710113          	addi	sp,sp,-585
    800001c8:	00c11113          	slli	sp,sp,0xc
    800001cc:	db710113          	addi	sp,sp,-585
    800001d0:	02208733          	mul	a4,ra,sp
    800001d4:	000013b7          	lui	t2,0x1
    800001d8:	2403839b          	addiw	t2,t2,576 # 1240 <_start-0x7fffedc0>
    800001dc:	02100193          	li	gp,33
    800001e0:	44771c63          	bne	a4,t2,80000638 <fail>

00000000800001e4 <test_2>:
    800001e4:	00000093          	li	ra,0
    800001e8:	00000113          	li	sp,0
    800001ec:	02208733          	mul	a4,ra,sp
    800001f0:	00000393          	li	t2,0
    800001f4:	00200193          	li	gp,2
    800001f8:	44771063          	bne	a4,t2,80000638 <fail>

00000000800001fc <test_3>:
    800001fc:	00100093          	li	ra,1
    80000200:	00100113          	li	sp,1
    80000204:	02208733          	mul	a4,ra,sp
    80000208:	00100393          	li	t2,1
    8000020c:	00300193          	li	gp,3
    80000210:	42771463          	bne	a4,t2,80000638 <fail>

0000000080000214 <test_4>:
    80000214:	00300093          	li	ra,3
    80000218:	00700113          	li	sp,7
    8000021c:	02208733          	mul	a4,ra,sp
    80000220:	01500393          	li	t2,21
    80000224:	00400193          	li	gp,4
    80000228:	40771863          	bne	a4,t2,80000638 <fail>

000000008000022c <test_5>:
    8000022c:	00000093          	li	ra,0
    80000230:	ffff8137          	lui	sp,0xffff8
    80000234:	02208733          	mul	a4,ra,sp
    80000238:	00000393          	li	t2,0
    8000023c:	00500193          	li	gp,5
    80000240:	3e771c63          	bne	a4,t2,80000638 <fail>

0000000080000244 <test_6>:
    80000244:	800000b7          	lui	ra,0x80000
    80000248:	00000113          	li	sp,0
    8000024c:	02208733          	mul	a4,ra,sp
    80000250:	00000393          	li	t2,0
    80000254:	00600193          	li	gp,6
    80000258:	3e771063          	bne	a4,t2,80000638 <fail>

000000008000025c <test_7>:
    8000025c:	800000b7          	lui	ra,0x80000
    80000260:	ffff8137          	lui	sp,0xffff8
    80000264:	02208733          	mul	a4,ra,sp
    80000268:	0010039b          	addiw	t2,zero,1
    8000026c:	02e39393          	slli	t2,t2,0x2e
    80000270:	00700193          	li	gp,7
    80000274:	3c771263          	bne	a4,t2,80000638 <fail>

0000000080000278 <test_30>:
    80000278:	faaab0b7          	lui	ra,0xfaaab
    8000027c:	aab0809b          	addiw	ra,ra,-1365 # fffffffffaaaaaab <_end+0xffffffff7aaa8aab>
    80000280:	00c09093          	slli	ra,ra,0xc
    80000284:	aab08093          	addi	ra,ra,-1365
    80000288:	00c09093          	slli	ra,ra,0xc
    8000028c:	aab08093          	addi	ra,ra,-1365
    80000290:	00c09093          	slli	ra,ra,0xc
    80000294:	aab08093          	addi	ra,ra,-1365
    80000298:	00030137          	lui	sp,0x30
    8000029c:	e7d1011b          	addiw	sp,sp,-387 # 2fe7d <_start-0x7ffd0183>
    800002a0:	02208733          	mul	a4,ra,sp
    800002a4:	000103b7          	lui	t2,0x10
    800002a8:	f7f3839b          	addiw	t2,t2,-129 # ff7f <_start-0x7fff0081>
    800002ac:	01e00193          	li	gp,30
    800002b0:	38771463          	bne	a4,t2,80000638 <fail>

00000000800002b4 <test_31>:
    800002b4:	000300b7          	lui	ra,0x30
    800002b8:	e7d0809b          	addiw	ra,ra,-387 # 2fe7d <_start-0x7ffd0183>
    800002bc:	faaab137          	lui	sp,0xfaaab
    800002c0:	aab1011b          	addiw	sp,sp,-1365 # fffffffffaaaaaab <_end+0xffffffff7aaa8aab>
    800002c4:	00c11113          	slli	sp,sp,0xc
    800002c8:	aab10113          	addi	sp,sp,-1365
    800002cc:	00c11113          	slli	sp,sp,0xc
    800002d0:	aab10113          	addi	sp,sp,-1365
    800002d4:	00c11113          	slli	sp,sp,0xc
    800002d8:	aab10113          	addi	sp,sp,-1365
    800002dc:	02208733          	mul	a4,ra,sp
    800002e0:	000103b7          	lui	t2,0x10
    800002e4:	f7f3839b          	addiw	t2,t2,-129 # ff7f <_start-0x7fff0081>
    800002e8:	01f00193          	li	gp,31
    800002ec:	34771663          	bne	a4,t2,80000638 <fail>

00000000800002f0 <test_8>:
    800002f0:	00d00093          	li	ra,13
    800002f4:	00b00113          	li	sp,11
    800002f8:	022080b3          	mul	ra,ra,sp
    800002fc:	08f00393          	li	t2,143
    80000300:	00800193          	li	gp,8
    80000304:	32709a63          	bne	ra,t2,80000638 <fail>

0000000080000308 <test_9>:
    80000308:	00e00093          	li	ra,14
    8000030c:	00b00113          	li	sp,11
    80000310:	02208133          	mul	sp,ra,sp
    80000314:	09a00393          	li	t2,154
    80000318:	00900193          	li	gp,9
    8000031c:	30711e63          	bne	sp,t2,80000638 <fail>

0000000080000320 <test_10>:
    80000320:	00d00093          	li	ra,13
    80000324:	021080b3          	mul	ra,ra,ra
    80000328:	0a900393          	li	t2,169
    8000032c:	00a00193          	li	gp,10
    80000330:	30709463          	bne	ra,t2,80000638 <fail>

0000000080000334 <test_11>:
    80000334:	00000213          	li	tp,0
    80000338:	00d00093          	li	ra,13
    8000033c:	00b00113          	li	sp,11
    80000340:	02208733          	mul	a4,ra,sp
    80000344:	00070313          	mv	t1,a4
    80000348:	00120213          	addi	tp,tp,1 # 1 <_start-0x7fffffff>
    8000034c:	00200293          	li	t0,2
    80000350:	fe5214e3          	bne	tp,t0,80000338 <test_11+0x4>
    80000354:	08f00393          	li	t2,143
    80000358:	00b00193          	li	gp,11
    8000035c:	2c731e63          	bne	t1,t2,80000638 <fail>

0000000080000360 <test_12>:
    80000360:	00000213          	li	tp,0
    80000364:	00e00093          	li	ra,14
    80000368:	00b00113          	li	sp,11
    8000036c:	02208733          	mul	a4,ra,sp
    80000370:	00000013          	nop
    80000374:	00070313          	mv	t1,a4
    80000378:	00120213          	addi	tp,tp,1 # 1 <_start-0x7fffffff>
    8000037c:	00200293          	li	t0,2
    80000380:	fe5212e3          	bne	tp,t0,80000364 <test_12+0x4>
    80000384:	09a00393          	li	t2,154
    80000388:	00c00193          	li	gp,12
    8000038c:	2a731663          	bne	t1,t2,80000638 <fail>

0000000080000390 <test_13>:
    80000390:	00000213          	li	tp,0
    80000394:	00f00093          	li	ra,15
    80000398:	00b00113          	li	sp,11
    8000039c:	02208733          	mul	a4,ra,sp
    800003a0:	00000013          	nop
    800003a4:	00000013          	nop
    800003a8:	00070313          	mv	t1,a4
    800003ac:	00120213          	addi	tp,tp,1 # 1 <_start-0x7fffffff>
    800003b0:	00200293          	li	t0,2
    800003b4:	fe5210e3          	bne	tp,t0,80000394 <test_13+0x4>
    800003b8:	0a500393          	li	t2,165
    800003bc:	00d00193          	li	gp,13
    800003c0:	26731c63          	bne	t1,t2,80000638 <fail>

00000000800003c4 <test_14>:
    800003c4:	00000213          	li	tp,0
    800003c8:	00d00093          	li	ra,13
    800003cc:	00b00113          	li	sp,11
    800003d0:	02208733          	mul	a4,ra,sp
    800003d4:	00120213          	addi	tp,tp,1 # 1 <_start-0x7fffffff>
    800003d8:	00200293          	li	t0,2
    800003dc:	fe5216e3          	bne	tp,t0,800003c8 <test_14+0x4>
    800003e0:	08f00393          	li	t2,143
    800003e4:	00e00193          	li	gp,14
    800003e8:	24771863          	bne	a4,t2,80000638 <fail>

00000000800003ec <test_15>:
    800003ec:	00000213          	li	tp,0
    800003f0:	00e00093          	li	ra,14
    800003f4:	00b00113          	li	sp,11
    800003f8:	00000013          	nop
    800003fc:	02208733          	mul	a4,ra,sp
    80000400:	00120213          	addi	tp,tp,1 # 1 <_start-0x7fffffff>
    80000404:	00200293          	li	t0,2
    80000408:	fe5214e3          	bne	tp,t0,800003f0 <test_15+0x4>
    8000040c:	09a00393          	li	t2,154
    80000410:	00f00193          	li	gp,15
    80000414:	22771263          	bne	a4,t2,80000638 <fail>

0000000080000418 <test_16>:
    80000418:	00000213          	li	tp,0
    8000041c:	00f00093          	li	ra,15
    80000420:	00b00113          	li	sp,11
    80000424:	00000013          	nop
    80000428:	00000013          	nop
    8000042c:	02208733          	mul	a4,ra,sp
    80000430:	00120213          	addi	tp,tp,1 # 1 <_start-0x7fffffff>
    80000434:	00200293          	li	t0,2
    80000438:	fe5212e3          	bne	tp,t0,8000041c <test_16+0x4>
    8000043c:	0a500393          	li	t2,165
    80000440:	01000193          	li	gp,16
    80000444:	1e771a63          	bne	a4,t2,80000638 <fail>

0000000080000448 <test_17>:
    80000448:	00000213          	li	tp,0
    8000044c:	00d00093          	li	ra,13
    80000450:	00000013          	nop
    80000454:	00b00113          	li	sp,11
    80000458:	02208733          	mul	a4,ra,sp
    8000045c:	00120213          	addi	tp,tp,1 # 1 <_start-0x7fffffff>
    80000460:	00200293          	li	t0,2
    80000464:	fe5214e3          	bne	tp,t0,8000044c <test_17+0x4>
    80000468:	08f00393          	li	t2,143
    8000046c:	01100193          	li	gp,17
    80000470:	1c771463          	bne	a4,t2,80000638 <fail>

0000000080000474 <test_18>:
    80000474:	00000213          	li	tp,0
    80000478:	00e00093          	li	ra,14
    8000047c:	00000013          	nop
    80000480:	00b00113          	li	sp,11
    80000484:	00000013          	nop
    80000488:	02208733          	mul	a4,ra,sp
    8000048c:	00120213          	addi	tp,tp,1 # 1 <_start-0x7fffffff>
    80000490:	00200293          	li	t0,2
    80000494:	fe5212e3          	bne	tp,t0,80000478 <test_18+0x4>
    80000498:	09a00393          	li	t2,154
    8000049c:	01200193          	li	gp,18
    800004a0:	18771c63          	bne	a4,t2,80000638 <fail>

00000000800004a4 <test_19>:
    800004a4:	00000213          	li	tp,0
    800004a8:	00f00093          	li	ra,15
    800004ac:	00000013          	nop
    800004b0:	00000013          	nop
    800004b4:	00b00113          	li	sp,11
    800004b8:	02208733          	mul	a4,ra,sp
    800004bc:	00120213          	addi	tp,tp,1 # 1 <_start-0x7fffffff>
    800004c0:	00200293          	li	t0,2
    800004c4:	fe5212e3          	bne	tp,t0,800004a8 <test_19+0x4>
    800004c8:	0a500393          	li	t2,165
    800004cc:	01300193          	li	gp,19
    800004d0:	16771463          	bne	a4,t2,80000638 <fail>

00000000800004d4 <test_20>:
    800004d4:	00000213          	li	tp,0
    800004d8:	00b00113          	li	sp,11
    800004dc:	00d00093          	li	ra,13
    800004e0:	02208733          	mul	a4,ra,sp
    800004e4:	00120213          	addi	tp,tp,1 # 1 <_start-0x7fffffff>
    800004e8:	00200293          	li	t0,2
    800004ec:	fe5216e3          	bne	tp,t0,800004d8 <test_20+0x4>
    800004f0:	08f00393          	li	t2,143
    800004f4:	01400193          	li	gp,20
    800004f8:	14771063          	bne	a4,t2,80000638 <fail>

00000000800004fc <test_21>:
    800004fc:	00000213          	li	tp,0
    80000500:	00b00113          	li	sp,11
    80000504:	00e00093          	li	ra,14
    80000508:	00000013          	nop
    8000050c:	02208733          	mul	a4,ra,sp
    80000510:	00120213          	addi	tp,tp,1 # 1 <_start-0x7fffffff>
    80000514:	00200293          	li	t0,2
    80000518:	fe5214e3          	bne	tp,t0,80000500 <test_21+0x4>
    8000051c:	09a00393          	li	t2,154
    80000520:	01500193          	li	gp,21
    80000524:	10771a63          	bne	a4,t2,80000638 <fail>

0000000080000528 <test_22>:
    80000528:	00000213          	li	tp,0
    8000052c:	00b00113          	li	sp,11
    80000530:	00f00093          	li	ra,15
    80000534:	00000013          	nop
    80000538:	00000013          	nop
    8000053c:	02208733          	mul	a4,ra,sp
    80000540:	00120213          	addi	tp,tp,1 # 1 <_start-0x7fffffff>
    80000544:	00200293          	li	t0,2
    80000548:	fe5212e3          	bne	tp,t0,8000052c <test_22+0x4>
    8000054c:	0a500393          	li	t2,165
    80000550:	01600193          	li	gp,22
    80000554:	0e771263          	bne	a4,t2,80000638 <fail>

0000000080000558 <test_23>:
    80000558:	00000213          	li	tp,0
    8000055c:	00b00113          	li	sp,11
    80000560:	00000013          	nop
    80000564:	00d00093          	li	ra,13
    80000568:	02208733          	mul	a4,ra,sp
    8000056c:	00120213          	addi	tp,tp,1 # 1 <_start-0x7fffffff>
    80000570:	00200293          	li	t0,2
    80000574:	fe5214e3          	bne	tp,t0,8000055c <test_23+0x4>
    80000578:	08f00393          	li	t2,143
    8000057c:	01700193          	li	gp,23
    80000580:	0a771c63          	bne	a4,t2,80000638 <fail>

0000000080000584 <test_24>:
    80000584:	00000213          	li	tp,0
    80000588:	00b00113          	li	sp,11
    8000058c:	00000013          	nop
    80000590:	00e00093          	li	ra,14
    80000594:	00000013          	nop
    80000598:	02208733          	mul	a4,ra,sp
    8000059c:	00120213          	addi	tp,tp,1 # 1 <_start-0x7fffffff>
    800005a0:	00200293          	li	t0,2
    800005a4:	fe5212e3          	bne	tp,t0,80000588 <test_24+0x4>
    800005a8:	09a00393          	li	t2,154
    800005ac:	01800193          	li	gp,24
    800005b0:	08771463          	bne	a4,t2,80000638 <fail>

00000000800005b4 <test_25>:
    800005b4:	00000213          	li	tp,0
    800005b8:	00b00113          	li	sp,11
    800005bc:	00000013          	nop
    800005c0:	00000013          	nop
    800005c4:	00f00093          	li	ra,15
    800005c8:	02208733          	mul	a4,ra,sp
    800005cc:	00120213          	addi	tp,tp,1 # 1 <_start-0x7fffffff>
    800005d0:	00200293          	li	t0,2
    800005d4:	fe5212e3          	bne	tp,t0,800005b8 <test_25+0x4>
    800005d8:	0a500393          	li	t2,165
    800005dc:	01900193          	li	gp,25
    800005e0:	04771c63          	bne	a4,t2,80000638 <fail>

00000000800005e4 <test_26>:
    800005e4:	01f00093          	li	ra,31
    800005e8:	02100133          	mul	sp,zero,ra
    800005ec:	00000393          	li	t2,0
    800005f0:	01a00193          	li	gp,26
    800005f4:	04711263          	bne	sp,t2,80000638 <fail>

00000000800005f8 <test_27>:
    800005f8:	02000093          	li	ra,32
    800005fc:	02008133          	mul	sp,ra,zero
    80000600:	00000393          	li	t2,0
    80000604:	01b00193          	li	gp,27
    80000608:	02711863          	bne	sp,t2,80000638 <fail>

000000008000060c <test_28>:
    8000060c:	020000b3          	mul	ra,zero,zero
    80000610:	00000393          	li	t2,0
    80000614:	01c00193          	li	gp,28
    80000618:	02709063          	bne	ra,t2,80000638 <fail>

000000008000061c <test_29>:
    8000061c:	02100093          	li	ra,33
    80000620:	02200113          	li	sp,34
    80000624:	02208033          	mul	zero,ra,sp
    80000628:	00000393          	li	t2,0
    8000062c:	01d00193          	li	gp,29
    80000630:	00701463          	bne	zero,t2,80000638 <fail>
    80000634:	00301663          	bne	zero,gp,80000640 <pass>

0000000080000638 <fail>:
    80000638:	00100513          	li	a0,1
    8000063c:	00c0006f          	j	80000648 <halt>

0000000080000640 <pass>:
    80000640:	00000513          	li	a0,0
    80000644:	0040006f          	j	80000648 <halt>

0000000080000648 <halt>:
    80000648:	0000006f          	j	80000648 <halt>
    8000064c:	0000                	.2byte	0x0
    8000064e:	0000                	.2byte	0x0
    80000650:	0000                	.2byte	0x0
    80000652:	0000                	.2byte	0x0
    80000654:	0000                	.2byte	0x0
    80000656:	0000                	.2byte	0x0
    80000658:	0000                	.2byte	0x0
    8000065a:	0000                	.2byte	0x0
    8000065c:	0000                	.2byte	0x0
    8000065e:	0000                	.2byte	0x0
    80000660:	0000                	.2byte	0x0
    80000662:	0000                	.2byte	0x0
    80000664:	0000                	.2byte	0x0
    80000666:	0000                	.2byte	0x0
    80000668:	0000                	.2byte	0x0
    8000066a:	0000                	.2byte	0x0
    8000066c:	0000                	.2byte	0x0
    8000066e:	0000                	.2byte	0x0
    80000670:	0000                	.2byte	0x0
    80000672:	0000                	.2byte	0x0
    80000674:	0000                	.2byte	0x0
    80000676:	0000                	.2byte	0x0
    80000678:	0000                	.2byte	0x0
    8000067a:	0000                	.2byte	0x0
