
rv64um-p-div:     file format elf64-littleriscv


Disassembly of section .text.init:

0000000080000000 <_start>:
    80000000:	01400093          	li	ra,20
    80000004:	00600113          	li	sp,6
    80000008:	0220c733          	div	a4,ra,sp
    8000000c:	00300393          	li	t2,3
    80000010:	00200193          	li	gp,2
    80000014:	0c771e63          	bne	a4,t2,800000f0 <fail>

0000000080000018 <test_3>:
    80000018:	fec00093          	li	ra,-20
    8000001c:	00600113          	li	sp,6
    80000020:	0220c733          	div	a4,ra,sp
    80000024:	ffd00393          	li	t2,-3
    80000028:	00300193          	li	gp,3
    8000002c:	0c771263          	bne	a4,t2,800000f0 <fail>

0000000080000030 <test_4>:
    80000030:	01400093          	li	ra,20
    80000034:	ffa00113          	li	sp,-6
    80000038:	0220c733          	div	a4,ra,sp
    8000003c:	ffd00393          	li	t2,-3
    80000040:	00400193          	li	gp,4
    80000044:	0a771663          	bne	a4,t2,800000f0 <fail>

0000000080000048 <test_5>:
    80000048:	fec00093          	li	ra,-20
    8000004c:	ffa00113          	li	sp,-6
    80000050:	0220c733          	div	a4,ra,sp
    80000054:	00300393          	li	t2,3
    80000058:	00500193          	li	gp,5
    8000005c:	08771a63          	bne	a4,t2,800000f0 <fail>

0000000080000060 <test_6>:
    80000060:	fff0009b          	addiw	ra,zero,-1
    80000064:	03f09093          	slli	ra,ra,0x3f
    80000068:	00100113          	li	sp,1
    8000006c:	0220c733          	div	a4,ra,sp
    80000070:	fff0039b          	addiw	t2,zero,-1
    80000074:	03f39393          	slli	t2,t2,0x3f
    80000078:	00600193          	li	gp,6
    8000007c:	06771a63          	bne	a4,t2,800000f0 <fail>

0000000080000080 <test_7>:
    80000080:	fff0009b          	addiw	ra,zero,-1
    80000084:	03f09093          	slli	ra,ra,0x3f
    80000088:	fff00113          	li	sp,-1
    8000008c:	0220c733          	div	a4,ra,sp
    80000090:	fff0039b          	addiw	t2,zero,-1
    80000094:	03f39393          	slli	t2,t2,0x3f
    80000098:	00700193          	li	gp,7
    8000009c:	04771a63          	bne	a4,t2,800000f0 <fail>

00000000800000a0 <test_8>:
    800000a0:	fff0009b          	addiw	ra,zero,-1
    800000a4:	03f09093          	slli	ra,ra,0x3f
    800000a8:	00000113          	li	sp,0
    800000ac:	0220c733          	div	a4,ra,sp
    800000b0:	fff00393          	li	t2,-1
    800000b4:	00800193          	li	gp,8
    800000b8:	02771c63          	bne	a4,t2,800000f0 <fail>

00000000800000bc <test_9>:
    800000bc:	00100093          	li	ra,1
    800000c0:	00000113          	li	sp,0
    800000c4:	0220c733          	div	a4,ra,sp
    800000c8:	fff00393          	li	t2,-1
    800000cc:	00900193          	li	gp,9
    800000d0:	02771063          	bne	a4,t2,800000f0 <fail>

00000000800000d4 <test_10>:
    800000d4:	00000093          	li	ra,0
    800000d8:	00000113          	li	sp,0
    800000dc:	0220c733          	div	a4,ra,sp
    800000e0:	fff00393          	li	t2,-1
    800000e4:	00a00193          	li	gp,10
    800000e8:	00771463          	bne	a4,t2,800000f0 <fail>
    800000ec:	00301663          	bne	zero,gp,800000f8 <pass>

00000000800000f0 <fail>:
    800000f0:	00100513          	li	a0,1
    800000f4:	00c0006f          	j	80000100 <halt>

00000000800000f8 <pass>:
    800000f8:	00000513          	li	a0,0
    800000fc:	0040006f          	j	80000100 <halt>

0000000080000100 <halt>:
    80000100:	0000006f          	j	80000100 <halt>
