
rv64um-p-divuw:     file format elf64-littleriscv


Disassembly of section .text.init:

0000000080000000 <_start>:
    80000000:	01400093          	li	ra,20
    80000004:	00600113          	li	sp,6
    80000008:	0220d73b          	divuw	a4,ra,sp
    8000000c:	00300393          	li	t2,3
    80000010:	00200193          	li	gp,2
    80000014:	0c771a63          	bne	a4,t2,800000e8 <fail>

0000000080000018 <test_3>:
    80000018:	0010009b          	addiw	ra,zero,1
    8000001c:	02009093          	slli	ra,ra,0x20
    80000020:	fec08093          	addi	ra,ra,-20
    80000024:	00600113          	li	sp,6
    80000028:	0220d73b          	divuw	a4,ra,sp
    8000002c:	2aaab3b7          	lui	t2,0x2aaab
    80000030:	aa73839b          	addiw	t2,t2,-1369
    80000034:	00300193          	li	gp,3
    80000038:	0a771863          	bne	a4,t2,800000e8 <fail>

000000008000003c <test_4>:
    8000003c:	01400093          	li	ra,20
    80000040:	ffa00113          	li	sp,-6
    80000044:	0220d73b          	divuw	a4,ra,sp
    80000048:	00000393          	li	t2,0
    8000004c:	00400193          	li	gp,4
    80000050:	08771c63          	bne	a4,t2,800000e8 <fail>

0000000080000054 <test_5>:
    80000054:	fec00093          	li	ra,-20
    80000058:	ffa00113          	li	sp,-6
    8000005c:	0220d73b          	divuw	a4,ra,sp
    80000060:	00000393          	li	t2,0
    80000064:	00500193          	li	gp,5
    80000068:	08771063          	bne	a4,t2,800000e8 <fail>

000000008000006c <test_6>:
    8000006c:	800000b7          	lui	ra,0x80000
    80000070:	00100113          	li	sp,1
    80000074:	0220d73b          	divuw	a4,ra,sp
    80000078:	800003b7          	lui	t2,0x80000
    8000007c:	00600193          	li	gp,6
    80000080:	06771463          	bne	a4,t2,800000e8 <fail>

0000000080000084 <test_7>:
    80000084:	800000b7          	lui	ra,0x80000
    80000088:	fff00113          	li	sp,-1
    8000008c:	0220d73b          	divuw	a4,ra,sp
    80000090:	00000393          	li	t2,0
    80000094:	00700193          	li	gp,7
    80000098:	04771863          	bne	a4,t2,800000e8 <fail>

000000008000009c <test_8>:
    8000009c:	800000b7          	lui	ra,0x80000
    800000a0:	00000113          	li	sp,0
    800000a4:	0220d73b          	divuw	a4,ra,sp
    800000a8:	fff00393          	li	t2,-1
    800000ac:	00800193          	li	gp,8
    800000b0:	02771c63          	bne	a4,t2,800000e8 <fail>

00000000800000b4 <test_9>:
    800000b4:	00100093          	li	ra,1
    800000b8:	00000113          	li	sp,0
    800000bc:	0220d73b          	divuw	a4,ra,sp
    800000c0:	fff00393          	li	t2,-1
    800000c4:	00900193          	li	gp,9
    800000c8:	02771063          	bne	a4,t2,800000e8 <fail>

00000000800000cc <test_10>:
    800000cc:	00000093          	li	ra,0
    800000d0:	00000113          	li	sp,0
    800000d4:	0220d73b          	divuw	a4,ra,sp
    800000d8:	fff00393          	li	t2,-1
    800000dc:	00a00193          	li	gp,10
    800000e0:	00771463          	bne	a4,t2,800000e8 <fail>
    800000e4:	00301663          	bne	zero,gp,800000f0 <pass>

00000000800000e8 <fail>:
    800000e8:	00100513          	li	a0,1
    800000ec:	00c0006f          	j	800000f8 <halt>

00000000800000f0 <pass>:
    800000f0:	00000513          	li	a0,0
    800000f4:	0040006f          	j	800000f8 <halt>

00000000800000f8 <halt>:
    800000f8:	0000006f          	j	800000f8 <halt>
    800000fc:	0000                	unimp
    800000fe:	0000                	unimp
    80000100:	0000                	unimp
    80000102:	0000                	unimp
