
rv64um-p-rem:     file format elf64-littleriscv


Disassembly of section .text.init:

0000000080000000 <_start>:
    80000000:	01400093          	li	ra,20
    80000004:	00600113          	li	sp,6
    80000008:	0220e733          	rem	a4,ra,sp
    8000000c:	00200393          	li	t2,2
    80000010:	00200193          	li	gp,2
    80000014:	0c771c63          	bne	a4,t2,800000ec <fail>

0000000080000018 <test_3>:
    80000018:	fec00093          	li	ra,-20
    8000001c:	00600113          	li	sp,6
    80000020:	0220e733          	rem	a4,ra,sp
    80000024:	ffe00393          	li	t2,-2
    80000028:	00300193          	li	gp,3
    8000002c:	0c771063          	bne	a4,t2,800000ec <fail>

0000000080000030 <test_4>:
    80000030:	01400093          	li	ra,20
    80000034:	ffa00113          	li	sp,-6
    80000038:	0220e733          	rem	a4,ra,sp
    8000003c:	00200393          	li	t2,2
    80000040:	00400193          	li	gp,4
    80000044:	0a771463          	bne	a4,t2,800000ec <fail>

0000000080000048 <test_5>:
    80000048:	fec00093          	li	ra,-20
    8000004c:	ffa00113          	li	sp,-6
    80000050:	0220e733          	rem	a4,ra,sp
    80000054:	ffe00393          	li	t2,-2
    80000058:	00500193          	li	gp,5
    8000005c:	08771863          	bne	a4,t2,800000ec <fail>

0000000080000060 <test_6>:
    80000060:	fff0009b          	addiw	ra,zero,-1
    80000064:	03f09093          	slli	ra,ra,0x3f
    80000068:	00100113          	li	sp,1
    8000006c:	0220e733          	rem	a4,ra,sp
    80000070:	00000393          	li	t2,0
    80000074:	00600193          	li	gp,6
    80000078:	06771a63          	bne	a4,t2,800000ec <fail>

000000008000007c <test_7>:
    8000007c:	fff0009b          	addiw	ra,zero,-1
    80000080:	03f09093          	slli	ra,ra,0x3f
    80000084:	fff00113          	li	sp,-1
    80000088:	0220e733          	rem	a4,ra,sp
    8000008c:	00000393          	li	t2,0
    80000090:	00700193          	li	gp,7
    80000094:	04771c63          	bne	a4,t2,800000ec <fail>

0000000080000098 <test_8>:
    80000098:	fff0009b          	addiw	ra,zero,-1
    8000009c:	03f09093          	slli	ra,ra,0x3f
    800000a0:	00000113          	li	sp,0
    800000a4:	0220e733          	rem	a4,ra,sp
    800000a8:	fff0039b          	addiw	t2,zero,-1
    800000ac:	03f39393          	slli	t2,t2,0x3f
    800000b0:	00800193          	li	gp,8
    800000b4:	02771c63          	bne	a4,t2,800000ec <fail>

00000000800000b8 <test_9>:
    800000b8:	00100093          	li	ra,1
    800000bc:	00000113          	li	sp,0
    800000c0:	0220e733          	rem	a4,ra,sp
    800000c4:	00100393          	li	t2,1
    800000c8:	00900193          	li	gp,9
    800000cc:	02771063          	bne	a4,t2,800000ec <fail>

00000000800000d0 <test_10>:
    800000d0:	00000093          	li	ra,0
    800000d4:	00000113          	li	sp,0
    800000d8:	0220e733          	rem	a4,ra,sp
    800000dc:	00000393          	li	t2,0
    800000e0:	00a00193          	li	gp,10
    800000e4:	00771463          	bne	a4,t2,800000ec <fail>
    800000e8:	00301663          	bne	zero,gp,800000f4 <pass>

00000000800000ec <fail>:
    800000ec:	00100513          	li	a0,1
    800000f0:	00c0006f          	j	800000fc <halt>

00000000800000f4 <pass>:
    800000f4:	00000513          	li	a0,0
    800000f8:	0040006f          	j	800000fc <halt>

00000000800000fc <halt>:
    800000fc:	0000006f          	j	800000fc <halt>
    80000100:	0000                	unimp
    80000102:	0000                	unimp
