
rv64um-p-divu:     file format elf64-littleriscv


Disassembly of section .text.init:

0000000080000000 <_start>:
    80000000:	01400093          	li	ra,20
    80000004:	00600113          	li	sp,6
    80000008:	0220d733          	divu	a4,ra,sp
    8000000c:	00300393          	li	t2,3
    80000010:	00200193          	li	gp,2
    80000014:	0e771a63          	bne	a4,t2,80000108 <fail>

0000000080000018 <test_3>:
    80000018:	fec00093          	li	ra,-20
    8000001c:	00600113          	li	sp,6
    80000020:	0220d733          	divu	a4,ra,sp
    80000024:	02aab3b7          	lui	t2,0x2aab
    80000028:	aab3839b          	addiw	t2,t2,-1365
    8000002c:	00c39393          	slli	t2,t2,0xc
    80000030:	aab38393          	addi	t2,t2,-1365 # 2aaaaab <_start-0x7d555555>
    80000034:	00c39393          	slli	t2,t2,0xc
    80000038:	aab38393          	addi	t2,t2,-1365
    8000003c:	00c39393          	slli	t2,t2,0xc
    80000040:	aa738393          	addi	t2,t2,-1369
    80000044:	00300193          	li	gp,3
    80000048:	0c771063          	bne	a4,t2,80000108 <fail>

000000008000004c <test_4>:
    8000004c:	01400093          	li	ra,20
    80000050:	ffa00113          	li	sp,-6
    80000054:	0220d733          	divu	a4,ra,sp
    80000058:	00000393          	li	t2,0
    8000005c:	00400193          	li	gp,4
    80000060:	0a771463          	bne	a4,t2,80000108 <fail>

0000000080000064 <test_5>:
    80000064:	fec00093          	li	ra,-20
    80000068:	ffa00113          	li	sp,-6
    8000006c:	0220d733          	divu	a4,ra,sp
    80000070:	00000393          	li	t2,0
    80000074:	00500193          	li	gp,5
    80000078:	08771863          	bne	a4,t2,80000108 <fail>

000000008000007c <test_6>:
    8000007c:	fff0009b          	addiw	ra,zero,-1
    80000080:	03f09093          	slli	ra,ra,0x3f
    80000084:	00100113          	li	sp,1
    80000088:	0220d733          	divu	a4,ra,sp
    8000008c:	fff0039b          	addiw	t2,zero,-1
    80000090:	03f39393          	slli	t2,t2,0x3f
    80000094:	00600193          	li	gp,6
    80000098:	06771863          	bne	a4,t2,80000108 <fail>

000000008000009c <test_7>:
    8000009c:	fff0009b          	addiw	ra,zero,-1
    800000a0:	03f09093          	slli	ra,ra,0x3f
    800000a4:	fff00113          	li	sp,-1
    800000a8:	0220d733          	divu	a4,ra,sp
    800000ac:	00000393          	li	t2,0
    800000b0:	00700193          	li	gp,7
    800000b4:	04771a63          	bne	a4,t2,80000108 <fail>

00000000800000b8 <test_8>:
    800000b8:	fff0009b          	addiw	ra,zero,-1
    800000bc:	03f09093          	slli	ra,ra,0x3f
    800000c0:	00000113          	li	sp,0
    800000c4:	0220d733          	divu	a4,ra,sp
    800000c8:	fff00393          	li	t2,-1
    800000cc:	00800193          	li	gp,8
    800000d0:	02771c63          	bne	a4,t2,80000108 <fail>

00000000800000d4 <test_9>:
    800000d4:	00100093          	li	ra,1
    800000d8:	00000113          	li	sp,0
    800000dc:	0220d733          	divu	a4,ra,sp
    800000e0:	fff00393          	li	t2,-1
    800000e4:	00900193          	li	gp,9
    800000e8:	02771063          	bne	a4,t2,80000108 <fail>

00000000800000ec <test_10>:
    800000ec:	00000093          	li	ra,0
    800000f0:	00000113          	li	sp,0
    800000f4:	0220d733          	divu	a4,ra,sp
    800000f8:	fff00393          	li	t2,-1
    800000fc:	00a00193          	li	gp,10
    80000100:	00771463          	bne	a4,t2,80000108 <fail>
    80000104:	00301663          	bne	zero,gp,80000110 <pass>

0000000080000108 <fail>:
    80000108:	00100513          	li	a0,1
    8000010c:	00c0006f          	j	80000118 <halt>

0000000080000110 <pass>:
    80000110:	00000513          	li	a0,0
    80000114:	0040006f          	j	80000118 <halt>

0000000080000118 <halt>:
    80000118:	0000006f          	j	80000118 <halt>
    8000011c:	0000                	unimp
    8000011e:	0000                	unimp
    80000120:	0000                	unimp
    80000122:	0000                	unimp
    80000124:	0000                	unimp
    80000126:	0000                	unimp
    80000128:	0000                	unimp
    8000012a:	0000                	unimp
    8000012c:	0000                	unimp
    8000012e:	0000                	unimp
    80000130:	0000                	unimp
    80000132:	0000                	unimp
    80000134:	0000                	unimp
    80000136:	0000                	unimp
    80000138:	0000                	unimp
    8000013a:	0000                	unimp
    8000013c:	0000                	unimp
    8000013e:	0000                	unimp
    80000140:	0000                	unimp
    80000142:	0000                	unimp
