
rv32ud-p-fclass:     file format elf32-littleriscv


Disassembly of section .text.init:

80000000 <_start>:
80000000:	00002517          	auipc	a0,0x2
80000004:	00050513          	mv	a0,a0
80000008:	00053507          	fld	fa0,0(a0) # 80002000 <test_2_data>
8000000c:	e2051553          	fclass.d	a0,fa0
80000010:	00100393          	li	t2,1
80000014:	00200193          	li	gp,2
80000018:	10751263          	bne	a0,t2,8000011c <fail>

8000001c <test_3>:
8000001c:	00002517          	auipc	a0,0x2
80000020:	fec50513          	addi	a0,a0,-20 # 80002008 <test_3_data>
80000024:	00053507          	fld	fa0,0(a0)
80000028:	e2051553          	fclass.d	a0,fa0
8000002c:	00200393          	li	t2,2
80000030:	00300193          	li	gp,3
80000034:	0e751463          	bne	a0,t2,8000011c <fail>

80000038 <test_4>:
80000038:	00002517          	auipc	a0,0x2
8000003c:	fd850513          	addi	a0,a0,-40 # 80002010 <test_4_data>
80000040:	00053507          	fld	fa0,0(a0)
80000044:	e2051553          	fclass.d	a0,fa0
80000048:	00400393          	li	t2,4
8000004c:	00400193          	li	gp,4
80000050:	0c751663          	bne	a0,t2,8000011c <fail>

80000054 <test_5>:
80000054:	00002517          	auipc	a0,0x2
80000058:	fc450513          	addi	a0,a0,-60 # 80002018 <test_5_data>
8000005c:	00053507          	fld	fa0,0(a0)
80000060:	e2051553          	fclass.d	a0,fa0
80000064:	00800393          	li	t2,8
80000068:	00500193          	li	gp,5
8000006c:	0a751863          	bne	a0,t2,8000011c <fail>

80000070 <test_6>:
80000070:	00002517          	auipc	a0,0x2
80000074:	fb050513          	addi	a0,a0,-80 # 80002020 <test_6_data>
80000078:	00053507          	fld	fa0,0(a0)
8000007c:	e2051553          	fclass.d	a0,fa0
80000080:	01000393          	li	t2,16
80000084:	00600193          	li	gp,6
80000088:	08751a63          	bne	a0,t2,8000011c <fail>

8000008c <test_7>:
8000008c:	00002517          	auipc	a0,0x2
80000090:	f9c50513          	addi	a0,a0,-100 # 80002028 <test_7_data>
80000094:	00053507          	fld	fa0,0(a0)
80000098:	e2051553          	fclass.d	a0,fa0
8000009c:	02000393          	li	t2,32
800000a0:	00700193          	li	gp,7
800000a4:	06751c63          	bne	a0,t2,8000011c <fail>

800000a8 <test_8>:
800000a8:	00002517          	auipc	a0,0x2
800000ac:	f8850513          	addi	a0,a0,-120 # 80002030 <test_8_data>
800000b0:	00053507          	fld	fa0,0(a0)
800000b4:	e2051553          	fclass.d	a0,fa0
800000b8:	04000393          	li	t2,64
800000bc:	00800193          	li	gp,8
800000c0:	04751e63          	bne	a0,t2,8000011c <fail>

800000c4 <test_9>:
800000c4:	00002517          	auipc	a0,0x2
800000c8:	f7450513          	addi	a0,a0,-140 # 80002038 <test_9_data>
800000cc:	00053507          	fld	fa0,0(a0)
800000d0:	e2051553          	fclass.d	a0,fa0
800000d4:	08000393          	li	t2,128
800000d8:	00900193          	li	gp,9
800000dc:	04751063          	bne	a0,t2,8000011c <fail>

800000e0 <test_10>:
800000e0:	00002517          	auipc	a0,0x2
800000e4:	f6050513          	addi	a0,a0,-160 # 80002040 <test_10_data>
800000e8:	00053507          	fld	fa0,0(a0)
800000ec:	e2051553          	fclass.d	a0,fa0
800000f0:	10000393          	li	t2,256
800000f4:	00a00193          	li	gp,10
800000f8:	02751263          	bne	a0,t2,8000011c <fail>

800000fc <test_11>:
800000fc:	00002517          	auipc	a0,0x2
80000100:	f4c50513          	addi	a0,a0,-180 # 80002048 <test_11_data>
80000104:	00053507          	fld	fa0,0(a0)
80000108:	e2051553          	fclass.d	a0,fa0
8000010c:	20000393          	li	t2,512
80000110:	00b00193          	li	gp,11
80000114:	00751463          	bne	a0,t2,8000011c <fail>
80000118:	00301663          	bne	zero,gp,80000124 <pass>

8000011c <fail>:
8000011c:	00100513          	li	a0,1
80000120:	00c0006f          	j	8000012c <halt>

80000124 <pass>:
80000124:	00000513          	li	a0,0
80000128:	0040006f          	j	8000012c <halt>

8000012c <halt>:
8000012c:	0000006f          	j	8000012c <halt>
80000130:	0000                	unimp
80000132:	0000                	unimp
80000134:	0000                	unimp
80000136:	0000                	unimp
80000138:	0000                	unimp
8000013a:	0000                	unimp
8000013c:	0000                	unimp
8000013e:	0000                	unimp
80000140:	0000                	unimp
80000142:	0000                	unimp

Disassembly of section .data:

80002000 <test_2_data>:
80002000:	0000                	unimp
80002002:	0000                	unimp
80002004:	0000                	unimp
80002006:	fff0                	fsw	fa2,124(a5)

80002008 <test_3_data>:
80002008:	0000                	unimp
8000200a:	0000                	unimp
8000200c:	0000                	unimp
8000200e:	bff0                	fsd	fa2,248(a5)

80002010 <test_4_data>:
80002010:	ffff                	0xffff
80002012:	ffff                	0xffff
80002014:	ffff                	0xffff
80002016:	          	0x800f

80002018 <test_5_data>:
80002018:	0000                	unimp
8000201a:	0000                	unimp
8000201c:	0000                	unimp
8000201e:	8000                	0x8000

80002020 <test_6_data>:
80002020:	0000                	unimp
80002022:	0000                	unimp
80002024:	0000                	unimp
80002026:	0000                	unimp

80002028 <test_7_data>:
80002028:	ffff                	0xffff
8000202a:	ffff                	0xffff
8000202c:	ffff                	0xffff
8000202e:	          	fence	unknown,unknown

80002030 <test_8_data>:
80002030:	0000                	unimp
80002032:	0000                	unimp
80002034:	0000                	unimp
80002036:	3ff0                	fld	fa2,248(a5)

80002038 <test_9_data>:
80002038:	0000                	unimp
8000203a:	0000                	unimp
8000203c:	0000                	unimp
8000203e:	7ff0                	flw	fa2,124(a5)

80002040 <test_10_data>:
80002040:	0001                	nop
80002042:	0000                	unimp
80002044:	0000                	unimp
80002046:	7ff0                	flw	fa2,124(a5)

80002048 <test_11_data>:
80002048:	0000                	unimp
8000204a:	0000                	unimp
8000204c:	0000                	unimp
8000204e:	7ff8                	flw	fa4,124(a5)
