
rv32ud-p-fcvt:     file format elf32-littleriscv


Disassembly of section .text.init:

80000000 <_start>:
80000000:	00200193          	li	gp,2
80000004:	00002517          	auipc	a0,0x2
80000008:	ffc50513          	addi	a0,a0,-4 # 80002000 <test_2_data>
8000000c:	00052683          	lw	a3,0(a0)
80000010:	00452703          	lw	a4,4(a0)
80000014:	00200593          	li	a1,2
80000018:	d2058053          	fcvt.d.w	ft0,a1
8000001c:	00053027          	fsd	ft0,0(a0)
80000020:	00452583          	lw	a1,4(a0)
80000024:	00052503          	lw	a0,0(a0)
80000028:	00101073          	fsflags	zero
8000002c:	16d51263          	bne	a0,a3,80000190 <fail>
80000030:	16e59063          	bne	a1,a4,80000190 <fail>

80000034 <test_3>:
80000034:	00300193          	li	gp,3
80000038:	00002517          	auipc	a0,0x2
8000003c:	fd050513          	addi	a0,a0,-48 # 80002008 <test_3_data>
80000040:	00052683          	lw	a3,0(a0)
80000044:	00452703          	lw	a4,4(a0)
80000048:	ffe00593          	li	a1,-2
8000004c:	d2058053          	fcvt.d.w	ft0,a1
80000050:	00053027          	fsd	ft0,0(a0)
80000054:	00452583          	lw	a1,4(a0)
80000058:	00052503          	lw	a0,0(a0)
8000005c:	00101073          	fsflags	zero
80000060:	12d51863          	bne	a0,a3,80000190 <fail>
80000064:	12e59663          	bne	a1,a4,80000190 <fail>

80000068 <test_4>:
80000068:	00400193          	li	gp,4
8000006c:	00002517          	auipc	a0,0x2
80000070:	fa450513          	addi	a0,a0,-92 # 80002010 <test_4_data>
80000074:	00052683          	lw	a3,0(a0)
80000078:	00452703          	lw	a4,4(a0)
8000007c:	00200593          	li	a1,2
80000080:	d2158053          	fcvt.d.wu	ft0,a1
80000084:	00053027          	fsd	ft0,0(a0)
80000088:	00452583          	lw	a1,4(a0)
8000008c:	00052503          	lw	a0,0(a0)
80000090:	00101073          	fsflags	zero
80000094:	0ed51e63          	bne	a0,a3,80000190 <fail>
80000098:	0ee59c63          	bne	a1,a4,80000190 <fail>

8000009c <test_5>:
8000009c:	00500193          	li	gp,5
800000a0:	00002517          	auipc	a0,0x2
800000a4:	f7850513          	addi	a0,a0,-136 # 80002018 <test_5_data>
800000a8:	00052683          	lw	a3,0(a0)
800000ac:	00452703          	lw	a4,4(a0)
800000b0:	ffe00593          	li	a1,-2
800000b4:	d2158053          	fcvt.d.wu	ft0,a1
800000b8:	00053027          	fsd	ft0,0(a0)
800000bc:	00452583          	lw	a1,4(a0)
800000c0:	00052503          	lw	a0,0(a0)
800000c4:	00101073          	fsflags	zero
800000c8:	0cd51463          	bne	a0,a3,80000190 <fail>
800000cc:	0ce59263          	bne	a1,a4,80000190 <fail>

800000d0 <test_10>:
800000d0:	00a00193          	li	gp,10
800000d4:	00002517          	auipc	a0,0x2
800000d8:	f4c50513          	addi	a0,a0,-180 # 80002020 <test_10_data>
800000dc:	00053007          	fld	ft0,0(a0)
800000e0:	00853087          	fld	ft1,8(a0)
800000e4:	01053107          	fld	ft2,16(a0)
800000e8:	01852683          	lw	a3,24(a0)
800000ec:	01c52303          	lw	t1,28(a0)
800000f0:	401071d3          	fcvt.s.d	ft3,ft0
800000f4:	420181d3          	fcvt.d.s	ft3,ft3
800000f8:	00353027          	fsd	ft3,0(a0)
800000fc:	00452383          	lw	t2,4(a0)
80000100:	00052503          	lw	a0,0(a0)
80000104:	001015f3          	fsflags	a1,zero
80000108:	00000613          	li	a2,0
8000010c:	08d51263          	bne	a0,a3,80000190 <fail>
80000110:	08731063          	bne	t1,t2,80000190 <fail>
80000114:	06c59e63          	bne	a1,a2,80000190 <fail>

80000118 <test_11>:
80000118:	00b00193          	li	gp,11
8000011c:	00002517          	auipc	a0,0x2
80000120:	f2450513          	addi	a0,a0,-220 # 80002040 <test_11_data>
80000124:	00052007          	flw	ft0,0(a0)
80000128:	00452087          	flw	ft1,4(a0)
8000012c:	00852107          	flw	ft2,8(a0)
80000130:	00c52683          	lw	a3,12(a0)
80000134:	420001d3          	fcvt.d.s	ft3,ft0
80000138:	4011f1d3          	fcvt.s.d	ft3,ft3
8000013c:	e0018553          	fmv.x.w	a0,ft3
80000140:	001015f3          	fsflags	a1,zero
80000144:	00000613          	li	a2,0
80000148:	04d51463          	bne	a0,a3,80000190 <fail>
8000014c:	04c59263          	bne	a1,a2,80000190 <fail>

80000150 <test_12>:
80000150:	00002597          	auipc	a1,0x2
80000154:	f1058593          	addi	a1,a1,-240 # 80002060 <begin_signature>
80000158:	0005b107          	fld	ft2,0(a1)
8000015c:	40117153          	fcvt.s.d	ft2,ft2
80000160:	42010153          	fcvt.d.s	ft2,ft2
80000164:	0025b027          	fsd	ft2,0(a1)
80000168:	0005a503          	lw	a0,0(a1)
8000016c:	0045a583          	lw	a1,4(a1)
80000170:	00002797          	auipc	a5,0x2
80000174:	ee078793          	addi	a5,a5,-288 # 80002050 <test_12_data>
80000178:	0007a383          	lw	t2,0(a5)
8000017c:	0047a783          	lw	a5,4(a5)
80000180:	00c00193          	li	gp,12
80000184:	00751663          	bne	a0,t2,80000190 <fail>
80000188:	00f59463          	bne	a1,a5,80000190 <fail>
8000018c:	00301663          	bne	zero,gp,80000198 <pass>

80000190 <fail>:
80000190:	00100513          	li	a0,1
80000194:	00c0006f          	j	800001a0 <halt>

80000198 <pass>:
80000198:	00000513          	li	a0,0
8000019c:	0040006f          	j	800001a0 <halt>

800001a0 <halt>:
800001a0:	0000006f          	j	800001a0 <halt>
800001a4:	0000                	unimp
800001a6:	0000                	unimp
800001a8:	0000                	unimp
800001aa:	0000                	unimp
800001ac:	0000                	unimp
800001ae:	0000                	unimp
800001b0:	0000                	unimp
800001b2:	0000                	unimp
800001b4:	0000                	unimp
800001b6:	0000                	unimp
800001b8:	0000                	unimp
800001ba:	0000                	unimp
800001bc:	0000                	unimp
800001be:	0000                	unimp
800001c0:	0000                	unimp
800001c2:	0000                	unimp

Disassembly of section .data:

80002000 <test_2_data>:
80002000:	0000                	unimp
80002002:	0000                	unimp
80002004:	0000                	unimp
80002006:	4000                	lw	s0,0(s0)

80002008 <test_3_data>:
80002008:	0000                	unimp
8000200a:	0000                	unimp
8000200c:	0000                	unimp
8000200e:	c000                	sw	s0,0(s0)

80002010 <test_4_data>:
80002010:	0000                	unimp
80002012:	0000                	unimp
80002014:	0000                	unimp
80002016:	4000                	lw	s0,0(s0)

80002018 <test_5_data>:
80002018:	0000                	unimp
8000201a:	ffc0                	fsw	fs0,60(a5)
8000201c:	ffff                	0xffff
8000201e:	          	jal	gp,8000601e <_end+0x3fae>

80002020 <test_10_data>:
80002020:	0000                	unimp
80002022:	0000                	unimp
80002024:	0000                	unimp
80002026:	bff8                	fsd	fa4,248(a5)
80002028:	0000                	unimp
8000202a:	0000                	unimp
8000202c:	0000                	unimp
8000202e:	0000                	unimp
80002030:	0000                	unimp
80002032:	0000                	unimp
80002034:	0000                	unimp
80002036:	0000                	unimp
80002038:	0000                	unimp
8000203a:	0000                	unimp
8000203c:	0000                	unimp
8000203e:	bff8                	fsd	fa4,248(a5)

80002040 <test_11_data>:
80002040:	0000                	unimp
80002042:	bfc0                	fsd	fs0,184(a5)
80002044:	0000                	unimp
80002046:	0000                	unimp
80002048:	0000                	unimp
8000204a:	0000                	unimp
8000204c:	0000                	unimp
8000204e:	bfc0                	fsd	fs0,184(a5)

80002050 <test_12_data>:
80002050:	0000                	unimp
80002052:	0000                	unimp
80002054:	0000                	unimp
80002056:	7ff8                	flw	fa4,124(a5)
80002058:	0000                	unimp
8000205a:	0000                	unimp
8000205c:	0000                	unimp
8000205e:	0000                	unimp

80002060 <begin_signature>:
80002060:	8004                	0x8004
80002062:	ffff                	0xffff
80002064:	ffff                	0xffff
80002066:	7ffc                	flw	fa5,124(a5)
80002068:	0000                	unimp
8000206a:	0000                	unimp
8000206c:	0000                	unimp
8000206e:	0000                	unimp
