
rv64uzbb-p-roriw:     file format elf64-littleriscv


Disassembly of section .text.init:

0000000080000000 <_start>:
    80000000:	0580006f          	j	80000058 <reset_vector>

0000000080000004 <trap_vector>:
    80000004:	34202f73          	csrr	t5,mcause
    80000008:	00800f93          	li	t6,8
    8000000c:	03ff0863          	beq	t5,t6,8000003c <write_tohost>
    80000010:	00900f93          	li	t6,9
    80000014:	03ff0463          	beq	t5,t6,8000003c <write_tohost>
    80000018:	00b00f93          	li	t6,11
    8000001c:	03ff0063          	beq	t5,t6,8000003c <write_tohost>
    80000020:	00000f13          	li	t5,0
    80000024:	000f0463          	beqz	t5,8000002c <trap_vector+0x28>
    80000028:	000f0067          	jr	t5
    8000002c:	34202f73          	csrr	t5,mcause
    80000030:	000f5463          	bgez	t5,80000038 <handle_exception>
    80000034:	0040006f          	j	80000038 <handle_exception>

0000000080000038 <handle_exception>:
    80000038:	5391e193          	ori	gp,gp,1337

000000008000003c <write_tohost>:
    8000003c:	00001f17          	auipc	t5,0x1
    80000040:	fc3f2223          	sw	gp,-60(t5) # 80001000 <tohost>
    80000044:	00001f17          	auipc	t5,0x1
    80000048:	fc0f2023          	sw	zero,-64(t5) # 80001004 <tohost+0x4>
    8000004c:	0080006f          	j	80000054 <halt>
    80000050:	fedff06f          	j	8000003c <write_tohost>

0000000080000054 <halt>:
    80000054:	0000006f          	j	80000054 <halt>

0000000080000058 <reset_vector>:
    80000058:	00000093          	li	ra,0
    8000005c:	00000113          	li	sp,0
    80000060:	00000193          	li	gp,0
    80000064:	00000213          	li	tp,0
    80000068:	00000293          	li	t0,0
    8000006c:	00000313          	li	t1,0
    80000070:	00000393          	li	t2,0
    80000074:	00000413          	li	s0,0
    80000078:	00000493          	li	s1,0
    8000007c:	00000513          	li	a0,0
    80000080:	00000593          	li	a1,0
    80000084:	00000613          	li	a2,0
    80000088:	00000693          	li	a3,0
    8000008c:	00000713          	li	a4,0
    80000090:	00000793          	li	a5,0
    80000094:	00000813          	li	a6,0
    80000098:	00000893          	li	a7,0
    8000009c:	00000913          	li	s2,0
    800000a0:	00000993          	li	s3,0
    800000a4:	00000a13          	li	s4,0
    800000a8:	00000a93          	li	s5,0
    800000ac:	00000b13          	li	s6,0
    800000b0:	00000b93          	li	s7,0
    800000b4:	00000c13          	li	s8,0
    800000b8:	00000c93          	li	s9,0
    800000bc:	00000d13          	li	s10,0
    800000c0:	00000d93          	li	s11,0
    800000c4:	00000e13          	li	t3,0
    800000c8:	00000e93          	li	t4,0
    800000cc:	00000f13          	li	t5,0
    800000d0:	00000f93          	li	t6,0
    800000d4:	f1402573          	csrr	a0,mhartid
    800000d8:	00051063          	bnez	a0,800000d8 <reset_vector+0x80>
    800000dc:	00000297          	auipc	t0,0x0
    800000e0:	01028293          	addi	t0,t0,16 # 800000ec <reset_vector+0x94>
    800000e4:	30529073          	csrw	mtvec,t0
    800000e8:	74445073          	csrwi	0x744,8
    800000ec:	00000297          	auipc	t0,0x0
    800000f0:	01028293          	addi	t0,t0,16 # 800000fc <reset_vector+0xa4>
    800000f4:	30529073          	csrw	mtvec,t0
    800000f8:	18005073          	csrwi	satp,0
    800000fc:	00000297          	auipc	t0,0x0
    80000100:	02428293          	addi	t0,t0,36 # 80000120 <reset_vector+0xc8>
    80000104:	30529073          	csrw	mtvec,t0
    80000108:	0010029b          	addiw	t0,zero,1
    8000010c:	03529293          	slli	t0,t0,0x35
    80000110:	fff28293          	addi	t0,t0,-1
    80000114:	3b029073          	csrw	pmpaddr0,t0
    80000118:	01f00293          	li	t0,31
    8000011c:	3a029073          	csrw	pmpcfg0,t0
    80000120:	30405073          	csrwi	mie,0
    80000124:	00000297          	auipc	t0,0x0
    80000128:	01428293          	addi	t0,t0,20 # 80000138 <reset_vector+0xe0>
    8000012c:	30529073          	csrw	mtvec,t0
    80000130:	30205073          	csrwi	medeleg,0
    80000134:	30305073          	csrwi	mideleg,0
    80000138:	00000193          	li	gp,0
    8000013c:	00000297          	auipc	t0,0x0
    80000140:	ec828293          	addi	t0,t0,-312 # 80000004 <trap_vector>
    80000144:	30529073          	csrw	mtvec,t0
    80000148:	00100513          	li	a0,1
    8000014c:	01f51513          	slli	a0,a0,0x1f
    80000150:	00055c63          	bgez	a0,80000168 <reset_vector+0x110>
    80000154:	0ff0000f          	fence
    80000158:	00100193          	li	gp,1
    8000015c:	05d00893          	li	a7,93
    80000160:	00000513          	li	a0,0
    80000164:	00000073          	ecall
    80000168:	00000293          	li	t0,0
    8000016c:	00028a63          	beqz	t0,80000180 <reset_vector+0x128>
    80000170:	10529073          	csrw	stvec,t0
    80000174:	0000b2b7          	lui	t0,0xb
    80000178:	1092829b          	addiw	t0,t0,265 # b109 <_start-0x7fff4ef7>
    8000017c:	30229073          	csrw	medeleg,t0
    80000180:	30005073          	csrwi	mstatus,0
    80000184:	00000297          	auipc	t0,0x0
    80000188:	01428293          	addi	t0,t0,20 # 80000198 <test_2>
    8000018c:	34129073          	csrw	mepc,t0
    80000190:	f1402573          	csrr	a0,mhartid
    80000194:	30200073          	mret

0000000080000198 <test_2>:
    80000198:	00200193          	li	gp,2
    8000019c:	00100693          	li	a3,1
    800001a0:	6006d71b          	roriw	a4,a3,0x0
    800001a4:	00100393          	li	t2,1
    800001a8:	26771e63          	bne	a4,t2,80000424 <fail>

00000000800001ac <test_3>:
    800001ac:	00300193          	li	gp,3
    800001b0:	00100693          	li	a3,1
    800001b4:	6016d71b          	roriw	a4,a3,0x1
    800001b8:	800003b7          	lui	t2,0x80000
    800001bc:	26771463          	bne	a4,t2,80000424 <fail>

00000000800001c0 <test_4>:
    800001c0:	00400193          	li	gp,4
    800001c4:	00100693          	li	a3,1
    800001c8:	6076d71b          	roriw	a4,a3,0x7
    800001cc:	020003b7          	lui	t2,0x2000
    800001d0:	24771a63          	bne	a4,t2,80000424 <fail>

00000000800001d4 <test_5>:
    800001d4:	00500193          	li	gp,5
    800001d8:	00100693          	li	a3,1
    800001dc:	60e6d71b          	roriw	a4,a3,0xe
    800001e0:	000403b7          	lui	t2,0x40
    800001e4:	24771063          	bne	a4,t2,80000424 <fail>

00000000800001e8 <test_6>:
    800001e8:	00600193          	li	gp,6
    800001ec:	00100693          	li	a3,1
    800001f0:	61f6d71b          	roriw	a4,a3,0x1f
    800001f4:	00200393          	li	t2,2
    800001f8:	22771663          	bne	a4,t2,80000424 <fail>

00000000800001fc <test_7>:
    800001fc:	00700193          	li	gp,7
    80000200:	fff00693          	li	a3,-1
    80000204:	6006d71b          	roriw	a4,a3,0x0
    80000208:	fff00393          	li	t2,-1
    8000020c:	20771c63          	bne	a4,t2,80000424 <fail>

0000000080000210 <test_8>:
    80000210:	00800193          	li	gp,8
    80000214:	fff00693          	li	a3,-1
    80000218:	6016d71b          	roriw	a4,a3,0x1
    8000021c:	fff00393          	li	t2,-1
    80000220:	20771263          	bne	a4,t2,80000424 <fail>

0000000080000224 <test_9>:
    80000224:	00900193          	li	gp,9
    80000228:	fff00693          	li	a3,-1
    8000022c:	6076d71b          	roriw	a4,a3,0x7
    80000230:	fff00393          	li	t2,-1
    80000234:	1e771863          	bne	a4,t2,80000424 <fail>

0000000080000238 <test_10>:
    80000238:	00a00193          	li	gp,10
    8000023c:	fff00693          	li	a3,-1
    80000240:	60e6d71b          	roriw	a4,a3,0xe
    80000244:	fff00393          	li	t2,-1
    80000248:	1c771e63          	bne	a4,t2,80000424 <fail>

000000008000024c <test_11>:
    8000024c:	00b00193          	li	gp,11
    80000250:	fff00693          	li	a3,-1
    80000254:	61f6d71b          	roriw	a4,a3,0x1f
    80000258:	fff00393          	li	t2,-1
    8000025c:	1c771463          	bne	a4,t2,80000424 <fail>

0000000080000260 <test_12>:
    80000260:	00c00193          	li	gp,12
    80000264:	212126b7          	lui	a3,0x21212
    80000268:	1216869b          	addiw	a3,a3,289 # 21212121 <_start-0x5edededf>
    8000026c:	6006d71b          	roriw	a4,a3,0x0
    80000270:	212123b7          	lui	t2,0x21212
    80000274:	1213839b          	addiw	t2,t2,289 # 21212121 <_start-0x5edededf>
    80000278:	1a771663          	bne	a4,t2,80000424 <fail>

000000008000027c <test_13>:
    8000027c:	00d00193          	li	gp,13
    80000280:	212126b7          	lui	a3,0x21212
    80000284:	1216869b          	addiw	a3,a3,289 # 21212121 <_start-0x5edededf>
    80000288:	6016d71b          	roriw	a4,a3,0x1
    8000028c:	909093b7          	lui	t2,0x90909
    80000290:	0903839b          	addiw	t2,t2,144 # ffffffff90909090 <_end+0xffffffff10907090>
    80000294:	18771863          	bne	a4,t2,80000424 <fail>

0000000080000298 <test_14>:
    80000298:	00e00193          	li	gp,14
    8000029c:	212126b7          	lui	a3,0x21212
    800002a0:	1216869b          	addiw	a3,a3,289 # 21212121 <_start-0x5edededf>
    800002a4:	6076d71b          	roriw	a4,a3,0x7
    800002a8:	424243b7          	lui	t2,0x42424
    800002ac:	2423839b          	addiw	t2,t2,578 # 42424242 <_start-0x3dbdbdbe>
    800002b0:	16771a63          	bne	a4,t2,80000424 <fail>

00000000800002b4 <test_15>:
    800002b4:	00f00193          	li	gp,15
    800002b8:	212126b7          	lui	a3,0x21212
    800002bc:	1216869b          	addiw	a3,a3,289 # 21212121 <_start-0x5edededf>
    800002c0:	60e6d71b          	roriw	a4,a3,0xe
    800002c4:	848483b7          	lui	t2,0x84848
    800002c8:	4843839b          	addiw	t2,t2,1156 # ffffffff84848484 <_end+0xffffffff04846484>
    800002cc:	14771c63          	bne	a4,t2,80000424 <fail>

00000000800002d0 <test_16>:
    800002d0:	01000193          	li	gp,16
    800002d4:	212126b7          	lui	a3,0x21212
    800002d8:	1216869b          	addiw	a3,a3,289 # 21212121 <_start-0x5edededf>
    800002dc:	61f6d71b          	roriw	a4,a3,0x1f
    800002e0:	424243b7          	lui	t2,0x42424
    800002e4:	2423839b          	addiw	t2,t2,578 # 42424242 <_start-0x3dbdbdbe>
    800002e8:	12771e63          	bne	a4,t2,80000424 <fail>

00000000800002ec <test_20>:
    800002ec:	01400193          	li	gp,20
    800002f0:	00100593          	li	a1,1
    800002f4:	6075d59b          	roriw	a1,a1,0x7
    800002f8:	020003b7          	lui	t2,0x2000
    800002fc:	12759463          	bne	a1,t2,80000424 <fail>

0000000080000300 <test_21>:
    80000300:	01500193          	li	gp,21
    80000304:	00000213          	li	tp,0
    80000308:	00100093          	li	ra,1
    8000030c:	6070d71b          	roriw	a4,ra,0x7
    80000310:	00070313          	mv	t1,a4
    80000314:	00120213          	addi	tp,tp,1 # 1 <_start-0x7fffffff>
    80000318:	00200293          	li	t0,2
    8000031c:	fe5216e3          	bne	tp,t0,80000308 <test_21+0x8>
    80000320:	020003b7          	lui	t2,0x2000
    80000324:	10731063          	bne	t1,t2,80000424 <fail>

0000000080000328 <test_22>:
    80000328:	01600193          	li	gp,22
    8000032c:	00000213          	li	tp,0
    80000330:	00100093          	li	ra,1
    80000334:	60e0d71b          	roriw	a4,ra,0xe
    80000338:	00000013          	nop
    8000033c:	00070313          	mv	t1,a4
    80000340:	00120213          	addi	tp,tp,1 # 1 <_start-0x7fffffff>
    80000344:	00200293          	li	t0,2
    80000348:	fe5214e3          	bne	tp,t0,80000330 <test_22+0x8>
    8000034c:	000403b7          	lui	t2,0x40
    80000350:	0c731a63          	bne	t1,t2,80000424 <fail>

0000000080000354 <test_23>:
    80000354:	01700193          	li	gp,23
    80000358:	00000213          	li	tp,0
    8000035c:	00100093          	li	ra,1
    80000360:	61f0d71b          	roriw	a4,ra,0x1f
    80000364:	00000013          	nop
    80000368:	00000013          	nop
    8000036c:	00070313          	mv	t1,a4
    80000370:	00120213          	addi	tp,tp,1 # 1 <_start-0x7fffffff>
    80000374:	00200293          	li	t0,2
    80000378:	fe5212e3          	bne	tp,t0,8000035c <test_23+0x8>
    8000037c:	00200393          	li	t2,2
    80000380:	0a731263          	bne	t1,t2,80000424 <fail>

0000000080000384 <test_24>:
    80000384:	01800193          	li	gp,24
    80000388:	00000213          	li	tp,0
    8000038c:	00100093          	li	ra,1
    80000390:	6070d71b          	roriw	a4,ra,0x7
    80000394:	00120213          	addi	tp,tp,1 # 1 <_start-0x7fffffff>
    80000398:	00200293          	li	t0,2
    8000039c:	fe5218e3          	bne	tp,t0,8000038c <test_24+0x8>
    800003a0:	020003b7          	lui	t2,0x2000
    800003a4:	08771063          	bne	a4,t2,80000424 <fail>

00000000800003a8 <test_25>:
    800003a8:	01900193          	li	gp,25
    800003ac:	00000213          	li	tp,0
    800003b0:	00100093          	li	ra,1
    800003b4:	00000013          	nop
    800003b8:	60e0d71b          	roriw	a4,ra,0xe
    800003bc:	00120213          	addi	tp,tp,1 # 1 <_start-0x7fffffff>
    800003c0:	00200293          	li	t0,2
    800003c4:	fe5216e3          	bne	tp,t0,800003b0 <test_25+0x8>
    800003c8:	000403b7          	lui	t2,0x40
    800003cc:	04771c63          	bne	a4,t2,80000424 <fail>

00000000800003d0 <test_26>:
    800003d0:	01a00193          	li	gp,26
    800003d4:	00000213          	li	tp,0
    800003d8:	00100093          	li	ra,1
    800003dc:	00000013          	nop
    800003e0:	00000013          	nop
    800003e4:	61f0d71b          	roriw	a4,ra,0x1f
    800003e8:	00120213          	addi	tp,tp,1 # 1 <_start-0x7fffffff>
    800003ec:	00200293          	li	t0,2
    800003f0:	fe5214e3          	bne	tp,t0,800003d8 <test_26+0x8>
    800003f4:	00200393          	li	t2,2
    800003f8:	02771663          	bne	a4,t2,80000424 <fail>

00000000800003fc <test_27>:
    800003fc:	01b00193          	li	gp,27
    80000400:	61f0509b          	roriw	ra,zero,0x1f
    80000404:	00000393          	li	t2,0
    80000408:	00709e63          	bne	ra,t2,80000424 <fail>

000000008000040c <test_28>:
    8000040c:	01c00193          	li	gp,28
    80000410:	02100093          	li	ra,33
    80000414:	6140d01b          	roriw	zero,ra,0x14
    80000418:	00000393          	li	t2,0
    8000041c:	00701463          	bne	zero,t2,80000424 <fail>
    80000420:	02301063          	bne	zero,gp,80000440 <pass>

0000000080000424 <fail>:
    80000424:	0ff0000f          	fence
    80000428:	00018063          	beqz	gp,80000428 <fail+0x4>
    8000042c:	00119193          	slli	gp,gp,0x1
    80000430:	0011e193          	ori	gp,gp,1
    80000434:	05d00893          	li	a7,93
    80000438:	00018513          	mv	a0,gp
    8000043c:	00000073          	ecall

0000000080000440 <pass>:
    80000440:	0ff0000f          	fence
    80000444:	00100193          	li	gp,1
    80000448:	05d00893          	li	a7,93
    8000044c:	00000513          	li	a0,0
    80000450:	00000073          	ecall
    80000454:	c0001073          	unimp
    80000458:	0000                	.insn	2, 0x
    8000045a:	0000                	.insn	2, 0x
    8000045c:	0000                	.insn	2, 0x
    8000045e:	0000                	.insn	2, 0x
    80000460:	0000                	.insn	2, 0x
    80000462:	0000                	.insn	2, 0x
    80000464:	0000                	.insn	2, 0x
    80000466:	0000                	.insn	2, 0x
    80000468:	0000                	.insn	2, 0x
    8000046a:	0000                	.insn	2, 0x
    8000046c:	0000                	.insn	2, 0x
    8000046e:	0000                	.insn	2, 0x
    80000470:	0000                	.insn	2, 0x
    80000472:	0000                	.insn	2, 0x
    80000474:	0000                	.insn	2, 0x
    80000476:	0000                	.insn	2, 0x
    80000478:	0000                	.insn	2, 0x
    8000047a:	0000                	.insn	2, 0x
