
rv64uzbb-p-ror:     file format elf64-littleriscv


Disassembly of section .text.init:

0000000080000000 <_start>:
    80000000:	0580006f          	j	80000058 <reset_vector>

0000000080000004 <trap_vector>:
    80000004:	34202f73          	csrr	t5,mcause
    80000008:	00800f93          	li	t6,8
    8000000c:	03ff0863          	beq	t5,t6,8000003c <write_tohost>
    80000010:	00900f93          	li	t6,9
    80000014:	03ff0463          	beq	t5,t6,8000003c <write_tohost>
    80000018:	00b00f93          	li	t6,11
    8000001c:	03ff0063          	beq	t5,t6,8000003c <write_tohost>
    80000020:	00000f13          	li	t5,0
    80000024:	000f0463          	beqz	t5,8000002c <trap_vector+0x28>
    80000028:	000f0067          	jr	t5
    8000002c:	34202f73          	csrr	t5,mcause
    80000030:	000f5463          	bgez	t5,80000038 <handle_exception>
    80000034:	0040006f          	j	80000038 <handle_exception>

0000000080000038 <handle_exception>:
    80000038:	5391e193          	ori	gp,gp,1337

000000008000003c <write_tohost>:
    8000003c:	00001f17          	auipc	t5,0x1
    80000040:	fc3f2223          	sw	gp,-60(t5) # 80001000 <tohost>
    80000044:	00001f17          	auipc	t5,0x1
    80000048:	fc0f2023          	sw	zero,-64(t5) # 80001004 <tohost+0x4>
    8000004c:	0080006f          	j	80000054 <halt>
    80000050:	fedff06f          	j	8000003c <write_tohost>

0000000080000054 <halt>:
    80000054:	0000006f          	j	80000054 <halt>

0000000080000058 <reset_vector>:
    80000058:	00000093          	li	ra,0
    8000005c:	00000113          	li	sp,0
    80000060:	00000193          	li	gp,0
    80000064:	00000213          	li	tp,0
    80000068:	00000293          	li	t0,0
    8000006c:	00000313          	li	t1,0
    80000070:	00000393          	li	t2,0
    80000074:	00000413          	li	s0,0
    80000078:	00000493          	li	s1,0
    8000007c:	00000513          	li	a0,0
    80000080:	00000593          	li	a1,0
    80000084:	00000613          	li	a2,0
    80000088:	00000693          	li	a3,0
    8000008c:	00000713          	li	a4,0
    80000090:	00000793          	li	a5,0
    80000094:	00000813          	li	a6,0
    80000098:	00000893          	li	a7,0
    8000009c:	00000913          	li	s2,0
    800000a0:	00000993          	li	s3,0
    800000a4:	00000a13          	li	s4,0
    800000a8:	00000a93          	li	s5,0
    800000ac:	00000b13          	li	s6,0
    800000b0:	00000b93          	li	s7,0
    800000b4:	00000c13          	li	s8,0
    800000b8:	00000c93          	li	s9,0
    800000bc:	00000d13          	li	s10,0
    800000c0:	00000d93          	li	s11,0
    800000c4:	00000e13          	li	t3,0
    800000c8:	00000e93          	li	t4,0
    800000cc:	00000f13          	li	t5,0
    800000d0:	00000f93          	li	t6,0
    800000d4:	f1402573          	csrr	a0,mhartid
    800000d8:	00051063          	bnez	a0,800000d8 <reset_vector+0x80>
    800000dc:	00000297          	auipc	t0,0x0
    800000e0:	01028293          	addi	t0,t0,16 # 800000ec <reset_vector+0x94>
    800000e4:	30529073          	csrw	mtvec,t0
    800000e8:	74445073          	csrwi	0x744,8
    800000ec:	00000297          	auipc	t0,0x0
    800000f0:	01028293          	addi	t0,t0,16 # 800000fc <reset_vector+0xa4>
    800000f4:	30529073          	csrw	mtvec,t0
    800000f8:	18005073          	csrwi	satp,0
    800000fc:	00000297          	auipc	t0,0x0
    80000100:	02428293          	addi	t0,t0,36 # 80000120 <reset_vector+0xc8>
    80000104:	30529073          	csrw	mtvec,t0
    80000108:	0010029b          	addiw	t0,zero,1
    8000010c:	03529293          	slli	t0,t0,0x35
    80000110:	fff28293          	addi	t0,t0,-1
    80000114:	3b029073          	csrw	pmpaddr0,t0
    80000118:	01f00293          	li	t0,31
    8000011c:	3a029073          	csrw	pmpcfg0,t0
    80000120:	30405073          	csrwi	mie,0
    80000124:	00000297          	auipc	t0,0x0
    80000128:	01428293          	addi	t0,t0,20 # 80000138 <reset_vector+0xe0>
    8000012c:	30529073          	csrw	mtvec,t0
    80000130:	30205073          	csrwi	medeleg,0
    80000134:	30305073          	csrwi	mideleg,0
    80000138:	00000193          	li	gp,0
    8000013c:	00000297          	auipc	t0,0x0
    80000140:	ec828293          	addi	t0,t0,-312 # 80000004 <trap_vector>
    80000144:	30529073          	csrw	mtvec,t0
    80000148:	00100513          	li	a0,1
    8000014c:	01f51513          	slli	a0,a0,0x1f
    80000150:	00055c63          	bgez	a0,80000168 <reset_vector+0x110>
    80000154:	0ff0000f          	fence
    80000158:	00100193          	li	gp,1
    8000015c:	05d00893          	li	a7,93
    80000160:	00000513          	li	a0,0
    80000164:	00000073          	ecall
    80000168:	00000293          	li	t0,0
    8000016c:	00028a63          	beqz	t0,80000180 <reset_vector+0x128>
    80000170:	10529073          	csrw	stvec,t0
    80000174:	0000b2b7          	lui	t0,0xb
    80000178:	1092829b          	addiw	t0,t0,265 # b109 <_start-0x7fff4ef7>
    8000017c:	30229073          	csrw	medeleg,t0
    80000180:	30005073          	csrwi	mstatus,0
    80000184:	00000297          	auipc	t0,0x0
    80000188:	01428293          	addi	t0,t0,20 # 80000198 <test_2>
    8000018c:	34129073          	csrw	mepc,t0
    80000190:	f1402573          	csrr	a0,mhartid
    80000194:	30200073          	mret

0000000080000198 <test_2>:
    80000198:	00200193          	li	gp,2
    8000019c:	00100593          	li	a1,1
    800001a0:	00000613          	li	a2,0
    800001a4:	60c5d733          	ror	a4,a1,a2
    800001a8:	00100393          	li	t2,1
    800001ac:	66771c63          	bne	a4,t2,80000824 <fail>

00000000800001b0 <test_3>:
    800001b0:	00300193          	li	gp,3
    800001b4:	00100593          	li	a1,1
    800001b8:	00100613          	li	a2,1
    800001bc:	60c5d733          	ror	a4,a1,a2
    800001c0:	fff0039b          	addiw	t2,zero,-1
    800001c4:	03f39393          	slli	t2,t2,0x3f
    800001c8:	64771e63          	bne	a4,t2,80000824 <fail>

00000000800001cc <test_4>:
    800001cc:	00400193          	li	gp,4
    800001d0:	00100593          	li	a1,1
    800001d4:	00700613          	li	a2,7
    800001d8:	60c5d733          	ror	a4,a1,a2
    800001dc:	0010039b          	addiw	t2,zero,1
    800001e0:	03939393          	slli	t2,t2,0x39
    800001e4:	64771063          	bne	a4,t2,80000824 <fail>

00000000800001e8 <test_5>:
    800001e8:	00500193          	li	gp,5
    800001ec:	00100593          	li	a1,1
    800001f0:	00e00613          	li	a2,14
    800001f4:	60c5d733          	ror	a4,a1,a2
    800001f8:	0010039b          	addiw	t2,zero,1
    800001fc:	03239393          	slli	t2,t2,0x32
    80000200:	62771263          	bne	a4,t2,80000824 <fail>

0000000080000204 <test_6>:
    80000204:	00600193          	li	gp,6
    80000208:	00100593          	li	a1,1
    8000020c:	01f00613          	li	a2,31
    80000210:	60c5d733          	ror	a4,a1,a2
    80000214:	0010039b          	addiw	t2,zero,1
    80000218:	02139393          	slli	t2,t2,0x21
    8000021c:	60771463          	bne	a4,t2,80000824 <fail>

0000000080000220 <test_7>:
    80000220:	00700193          	li	gp,7
    80000224:	fff00593          	li	a1,-1
    80000228:	00000613          	li	a2,0
    8000022c:	60c5d733          	ror	a4,a1,a2
    80000230:	fff00393          	li	t2,-1
    80000234:	5e771863          	bne	a4,t2,80000824 <fail>

0000000080000238 <test_8>:
    80000238:	00800193          	li	gp,8
    8000023c:	fff00593          	li	a1,-1
    80000240:	00100613          	li	a2,1
    80000244:	60c5d733          	ror	a4,a1,a2
    80000248:	fff00393          	li	t2,-1
    8000024c:	5c771c63          	bne	a4,t2,80000824 <fail>

0000000080000250 <test_9>:
    80000250:	00900193          	li	gp,9
    80000254:	fff00593          	li	a1,-1
    80000258:	00700613          	li	a2,7
    8000025c:	60c5d733          	ror	a4,a1,a2
    80000260:	fff00393          	li	t2,-1
    80000264:	5c771063          	bne	a4,t2,80000824 <fail>

0000000080000268 <test_10>:
    80000268:	00a00193          	li	gp,10
    8000026c:	fff00593          	li	a1,-1
    80000270:	00e00613          	li	a2,14
    80000274:	60c5d733          	ror	a4,a1,a2
    80000278:	fff00393          	li	t2,-1
    8000027c:	5a771463          	bne	a4,t2,80000824 <fail>

0000000080000280 <test_11>:
    80000280:	00b00193          	li	gp,11
    80000284:	fff00593          	li	a1,-1
    80000288:	01f00613          	li	a2,31
    8000028c:	60c5d733          	ror	a4,a1,a2
    80000290:	fff00393          	li	t2,-1
    80000294:	58771863          	bne	a4,t2,80000824 <fail>

0000000080000298 <test_12>:
    80000298:	00c00193          	li	gp,12
    8000029c:	212125b7          	lui	a1,0x21212
    800002a0:	1215859b          	addiw	a1,a1,289 # 21212121 <_start-0x5edededf>
    800002a4:	00000613          	li	a2,0
    800002a8:	60c5d733          	ror	a4,a1,a2
    800002ac:	212123b7          	lui	t2,0x21212
    800002b0:	1213839b          	addiw	t2,t2,289 # 21212121 <_start-0x5edededf>
    800002b4:	56771863          	bne	a4,t2,80000824 <fail>

00000000800002b8 <test_13>:
    800002b8:	00d00193          	li	gp,13
    800002bc:	212125b7          	lui	a1,0x21212
    800002c0:	1215859b          	addiw	a1,a1,289 # 21212121 <_start-0x5edededf>
    800002c4:	00100613          	li	a2,1
    800002c8:	60c5d733          	ror	a4,a1,a2
    800002cc:	fff0039b          	addiw	t2,zero,-1
    800002d0:	02739393          	slli	t2,t2,0x27
    800002d4:	01138393          	addi	t2,t2,17
    800002d8:	00c39393          	slli	t2,t2,0xc
    800002dc:	90938393          	addi	t2,t2,-1783
    800002e0:	00c39393          	slli	t2,t2,0xc
    800002e4:	09038393          	addi	t2,t2,144
    800002e8:	52771e63          	bne	a4,t2,80000824 <fail>

00000000800002ec <test_14>:
    800002ec:	00e00193          	li	gp,14
    800002f0:	212125b7          	lui	a1,0x21212
    800002f4:	1215859b          	addiw	a1,a1,289 # 21212121 <_start-0x5edededf>
    800002f8:	00700613          	li	a2,7
    800002fc:	60c5d733          	ror	a4,a1,a2
    80000300:	0210039b          	addiw	t2,zero,33
    80000304:	02b39393          	slli	t2,t2,0x2b
    80000308:	10938393          	addi	t2,t2,265
    8000030c:	00e39393          	slli	t2,t2,0xe
    80000310:	24238393          	addi	t2,t2,578
    80000314:	50771863          	bne	a4,t2,80000824 <fail>

0000000080000318 <test_15>:
    80000318:	00f00193          	li	gp,15
    8000031c:	212125b7          	lui	a1,0x21212
    80000320:	1215859b          	addiw	a1,a1,289 # 21212121 <_start-0x5edededf>
    80000324:	00e00613          	li	a2,14
    80000328:	60c5d733          	ror	a4,a1,a2
    8000032c:	ffffe3b7          	lui	t2,0xffffe
    80000330:	1213839b          	addiw	t2,t2,289 # ffffffffffffe121 <_end+0xffffffff7fffc121>
    80000334:	02339393          	slli	t2,t2,0x23
    80000338:	00138393          	addi	t2,t2,1
    8000033c:	00f39393          	slli	t2,t2,0xf
    80000340:	48438393          	addi	t2,t2,1156
    80000344:	4e771063          	bne	a4,t2,80000824 <fail>

0000000080000348 <test_16>:
    80000348:	01000193          	li	gp,16
    8000034c:	212125b7          	lui	a1,0x21212
    80000350:	1215859b          	addiw	a1,a1,289 # 21212121 <_start-0x5edededf>
    80000354:	01f00613          	li	a2,31
    80000358:	60c5d733          	ror	a4,a1,a2
    8000035c:	212123b7          	lui	t2,0x21212
    80000360:	1213839b          	addiw	t2,t2,289 # 21212121 <_start-0x5edededf>
    80000364:	02139393          	slli	t2,t2,0x21
    80000368:	4a771e63          	bne	a4,t2,80000824 <fail>

000000008000036c <test_17>:
    8000036c:	01100193          	li	gp,17
    80000370:	212125b7          	lui	a1,0x21212
    80000374:	1215859b          	addiw	a1,a1,289 # 21212121 <_start-0x5edededf>
    80000378:	fc000613          	li	a2,-64
    8000037c:	60c5d733          	ror	a4,a1,a2
    80000380:	212123b7          	lui	t2,0x21212
    80000384:	1213839b          	addiw	t2,t2,289 # 21212121 <_start-0x5edededf>
    80000388:	48771e63          	bne	a4,t2,80000824 <fail>

000000008000038c <test_18>:
    8000038c:	01200193          	li	gp,18
    80000390:	212125b7          	lui	a1,0x21212
    80000394:	1215859b          	addiw	a1,a1,289 # 21212121 <_start-0x5edededf>
    80000398:	fc100613          	li	a2,-63
    8000039c:	60c5d733          	ror	a4,a1,a2
    800003a0:	fff0039b          	addiw	t2,zero,-1
    800003a4:	02739393          	slli	t2,t2,0x27
    800003a8:	01138393          	addi	t2,t2,17
    800003ac:	00c39393          	slli	t2,t2,0xc
    800003b0:	90938393          	addi	t2,t2,-1783
    800003b4:	00c39393          	slli	t2,t2,0xc
    800003b8:	09038393          	addi	t2,t2,144
    800003bc:	46771463          	bne	a4,t2,80000824 <fail>

00000000800003c0 <test_19>:
    800003c0:	01300193          	li	gp,19
    800003c4:	212125b7          	lui	a1,0x21212
    800003c8:	1215859b          	addiw	a1,a1,289 # 21212121 <_start-0x5edededf>
    800003cc:	fc700613          	li	a2,-57
    800003d0:	60c5d733          	ror	a4,a1,a2
    800003d4:	0210039b          	addiw	t2,zero,33
    800003d8:	02b39393          	slli	t2,t2,0x2b
    800003dc:	10938393          	addi	t2,t2,265
    800003e0:	00e39393          	slli	t2,t2,0xe
    800003e4:	24238393          	addi	t2,t2,578
    800003e8:	42771e63          	bne	a4,t2,80000824 <fail>

00000000800003ec <test_20>:
    800003ec:	01400193          	li	gp,20
    800003f0:	212125b7          	lui	a1,0x21212
    800003f4:	1215859b          	addiw	a1,a1,289 # 21212121 <_start-0x5edededf>
    800003f8:	fce00613          	li	a2,-50
    800003fc:	60c5d733          	ror	a4,a1,a2
    80000400:	ffffe3b7          	lui	t2,0xffffe
    80000404:	1213839b          	addiw	t2,t2,289 # ffffffffffffe121 <_end+0xffffffff7fffc121>
    80000408:	02339393          	slli	t2,t2,0x23
    8000040c:	00138393          	addi	t2,t2,1
    80000410:	00f39393          	slli	t2,t2,0xf
    80000414:	48438393          	addi	t2,t2,1156
    80000418:	40771663          	bne	a4,t2,80000824 <fail>

000000008000041c <test_21>:
    8000041c:	01500193          	li	gp,21
    80000420:	212125b7          	lui	a1,0x21212
    80000424:	1215859b          	addiw	a1,a1,289 # 21212121 <_start-0x5edededf>
    80000428:	fff00613          	li	a2,-1
    8000042c:	60c5d733          	ror	a4,a1,a2
    80000430:	424243b7          	lui	t2,0x42424
    80000434:	2423839b          	addiw	t2,t2,578 # 42424242 <_start-0x3dbdbdbe>
    80000438:	3e771663          	bne	a4,t2,80000824 <fail>

000000008000043c <test_50>:
    8000043c:	03200193          	li	gp,50
    80000440:	00100593          	li	a1,1
    80000444:	03f00613          	li	a2,63
    80000448:	60c5d733          	ror	a4,a1,a2
    8000044c:	00200393          	li	t2,2
    80000450:	3c771a63          	bne	a4,t2,80000824 <fail>

0000000080000454 <test_51>:
    80000454:	03300193          	li	gp,51
    80000458:	fff00593          	li	a1,-1
    8000045c:	02700613          	li	a2,39
    80000460:	60c5d733          	ror	a4,a1,a2
    80000464:	fff00393          	li	t2,-1
    80000468:	3a771e63          	bne	a4,t2,80000824 <fail>

000000008000046c <test_52>:
    8000046c:	03400193          	li	gp,52
    80000470:	212125b7          	lui	a1,0x21212
    80000474:	1215859b          	addiw	a1,a1,289 # 21212121 <_start-0x5edededf>
    80000478:	02b00613          	li	a2,43
    8000047c:	60c5d733          	ror	a4,a1,a2
    80000480:	212123b7          	lui	t2,0x21212
    80000484:	1213839b          	addiw	t2,t2,289 # 21212121 <_start-0x5edededf>
    80000488:	01539393          	slli	t2,t2,0x15
    8000048c:	38771c63          	bne	a4,t2,80000824 <fail>

0000000080000490 <test_22>:
    80000490:	01600193          	li	gp,22
    80000494:	00100593          	li	a1,1
    80000498:	00700613          	li	a2,7
    8000049c:	60c5d5b3          	ror	a1,a1,a2
    800004a0:	0010039b          	addiw	t2,zero,1
    800004a4:	03939393          	slli	t2,t2,0x39
    800004a8:	36759e63          	bne	a1,t2,80000824 <fail>

00000000800004ac <test_23>:
    800004ac:	01700193          	li	gp,23
    800004b0:	00100593          	li	a1,1
    800004b4:	00e00613          	li	a2,14
    800004b8:	60c5d633          	ror	a2,a1,a2
    800004bc:	0010039b          	addiw	t2,zero,1
    800004c0:	03239393          	slli	t2,t2,0x32
    800004c4:	36761063          	bne	a2,t2,80000824 <fail>

00000000800004c8 <test_24>:
    800004c8:	01800193          	li	gp,24
    800004cc:	00300593          	li	a1,3
    800004d0:	60b5d5b3          	ror	a1,a1,a1
    800004d4:	0030039b          	addiw	t2,zero,3
    800004d8:	03d39393          	slli	t2,t2,0x3d
    800004dc:	34759463          	bne	a1,t2,80000824 <fail>

00000000800004e0 <test_25>:
    800004e0:	01900193          	li	gp,25
    800004e4:	00000213          	li	tp,0
    800004e8:	00100093          	li	ra,1
    800004ec:	00700113          	li	sp,7
    800004f0:	6020d733          	ror	a4,ra,sp
    800004f4:	00070313          	mv	t1,a4
    800004f8:	00120213          	addi	tp,tp,1 # 1 <_start-0x7fffffff>
    800004fc:	00200293          	li	t0,2
    80000500:	fe5214e3          	bne	tp,t0,800004e8 <test_25+0x8>
    80000504:	0010039b          	addiw	t2,zero,1
    80000508:	03939393          	slli	t2,t2,0x39
    8000050c:	30731c63          	bne	t1,t2,80000824 <fail>

0000000080000510 <test_26>:
    80000510:	01a00193          	li	gp,26
    80000514:	00000213          	li	tp,0
    80000518:	00100093          	li	ra,1
    8000051c:	00e00113          	li	sp,14
    80000520:	6020d733          	ror	a4,ra,sp
    80000524:	00000013          	nop
    80000528:	00070313          	mv	t1,a4
    8000052c:	00120213          	addi	tp,tp,1 # 1 <_start-0x7fffffff>
    80000530:	00200293          	li	t0,2
    80000534:	fe5212e3          	bne	tp,t0,80000518 <test_26+0x8>
    80000538:	0010039b          	addiw	t2,zero,1
    8000053c:	03239393          	slli	t2,t2,0x32
    80000540:	2e731263          	bne	t1,t2,80000824 <fail>

0000000080000544 <test_27>:
    80000544:	01b00193          	li	gp,27
    80000548:	00000213          	li	tp,0
    8000054c:	00100093          	li	ra,1
    80000550:	01f00113          	li	sp,31
    80000554:	6020d733          	ror	a4,ra,sp
    80000558:	00000013          	nop
    8000055c:	00000013          	nop
    80000560:	00070313          	mv	t1,a4
    80000564:	00120213          	addi	tp,tp,1 # 1 <_start-0x7fffffff>
    80000568:	00200293          	li	t0,2
    8000056c:	fe5210e3          	bne	tp,t0,8000054c <test_27+0x8>
    80000570:	0010039b          	addiw	t2,zero,1
    80000574:	02139393          	slli	t2,t2,0x21
    80000578:	2a731663          	bne	t1,t2,80000824 <fail>

000000008000057c <test_28>:
    8000057c:	01c00193          	li	gp,28
    80000580:	00000213          	li	tp,0
    80000584:	00100093          	li	ra,1
    80000588:	00700113          	li	sp,7
    8000058c:	6020d733          	ror	a4,ra,sp
    80000590:	00120213          	addi	tp,tp,1 # 1 <_start-0x7fffffff>
    80000594:	00200293          	li	t0,2
    80000598:	fe5216e3          	bne	tp,t0,80000584 <test_28+0x8>
    8000059c:	0010039b          	addiw	t2,zero,1
    800005a0:	03939393          	slli	t2,t2,0x39
    800005a4:	28771063          	bne	a4,t2,80000824 <fail>

00000000800005a8 <test_29>:
    800005a8:	01d00193          	li	gp,29
    800005ac:	00000213          	li	tp,0
    800005b0:	00100093          	li	ra,1
    800005b4:	00e00113          	li	sp,14
    800005b8:	00000013          	nop
    800005bc:	6020d733          	ror	a4,ra,sp
    800005c0:	00120213          	addi	tp,tp,1 # 1 <_start-0x7fffffff>
    800005c4:	00200293          	li	t0,2
    800005c8:	fe5214e3          	bne	tp,t0,800005b0 <test_29+0x8>
    800005cc:	0010039b          	addiw	t2,zero,1
    800005d0:	03239393          	slli	t2,t2,0x32
    800005d4:	24771863          	bne	a4,t2,80000824 <fail>

00000000800005d8 <test_30>:
    800005d8:	01e00193          	li	gp,30
    800005dc:	00000213          	li	tp,0
    800005e0:	00100093          	li	ra,1
    800005e4:	01f00113          	li	sp,31
    800005e8:	00000013          	nop
    800005ec:	00000013          	nop
    800005f0:	6020d733          	ror	a4,ra,sp
    800005f4:	00120213          	addi	tp,tp,1 # 1 <_start-0x7fffffff>
    800005f8:	00200293          	li	t0,2
    800005fc:	fe5212e3          	bne	tp,t0,800005e0 <test_30+0x8>
    80000600:	0010039b          	addiw	t2,zero,1
    80000604:	02139393          	slli	t2,t2,0x21
    80000608:	20771e63          	bne	a4,t2,80000824 <fail>

000000008000060c <test_31>:
    8000060c:	01f00193          	li	gp,31
    80000610:	00000213          	li	tp,0
    80000614:	00100093          	li	ra,1
    80000618:	00000013          	nop
    8000061c:	00700113          	li	sp,7
    80000620:	6020d733          	ror	a4,ra,sp
    80000624:	00120213          	addi	tp,tp,1 # 1 <_start-0x7fffffff>
    80000628:	00200293          	li	t0,2
    8000062c:	fe5214e3          	bne	tp,t0,80000614 <test_31+0x8>
    80000630:	0010039b          	addiw	t2,zero,1
    80000634:	03939393          	slli	t2,t2,0x39
    80000638:	1e771663          	bne	a4,t2,80000824 <fail>

000000008000063c <test_32>:
    8000063c:	02000193          	li	gp,32
    80000640:	00000213          	li	tp,0
    80000644:	00100093          	li	ra,1
    80000648:	00000013          	nop
    8000064c:	00e00113          	li	sp,14
    80000650:	00000013          	nop
    80000654:	6020d733          	ror	a4,ra,sp
    80000658:	00120213          	addi	tp,tp,1 # 1 <_start-0x7fffffff>
    8000065c:	00200293          	li	t0,2
    80000660:	fe5212e3          	bne	tp,t0,80000644 <test_32+0x8>
    80000664:	0010039b          	addiw	t2,zero,1
    80000668:	03239393          	slli	t2,t2,0x32
    8000066c:	1a771c63          	bne	a4,t2,80000824 <fail>

0000000080000670 <test_33>:
    80000670:	02100193          	li	gp,33
    80000674:	00000213          	li	tp,0
    80000678:	00100093          	li	ra,1
    8000067c:	00000013          	nop
    80000680:	00000013          	nop
    80000684:	01f00113          	li	sp,31
    80000688:	6020d733          	ror	a4,ra,sp
    8000068c:	00120213          	addi	tp,tp,1 # 1 <_start-0x7fffffff>
    80000690:	00200293          	li	t0,2
    80000694:	fe5212e3          	bne	tp,t0,80000678 <test_33+0x8>
    80000698:	0010039b          	addiw	t2,zero,1
    8000069c:	02139393          	slli	t2,t2,0x21
    800006a0:	18771263          	bne	a4,t2,80000824 <fail>

00000000800006a4 <test_34>:
    800006a4:	02200193          	li	gp,34
    800006a8:	00000213          	li	tp,0
    800006ac:	00700113          	li	sp,7
    800006b0:	00100093          	li	ra,1
    800006b4:	6020d733          	ror	a4,ra,sp
    800006b8:	00120213          	addi	tp,tp,1 # 1 <_start-0x7fffffff>
    800006bc:	00200293          	li	t0,2
    800006c0:	fe5216e3          	bne	tp,t0,800006ac <test_34+0x8>
    800006c4:	0010039b          	addiw	t2,zero,1
    800006c8:	03939393          	slli	t2,t2,0x39
    800006cc:	14771c63          	bne	a4,t2,80000824 <fail>

00000000800006d0 <test_35>:
    800006d0:	02300193          	li	gp,35
    800006d4:	00000213          	li	tp,0
    800006d8:	00e00113          	li	sp,14
    800006dc:	00100093          	li	ra,1
    800006e0:	00000013          	nop
    800006e4:	6020d733          	ror	a4,ra,sp
    800006e8:	00120213          	addi	tp,tp,1 # 1 <_start-0x7fffffff>
    800006ec:	00200293          	li	t0,2
    800006f0:	fe5214e3          	bne	tp,t0,800006d8 <test_35+0x8>
    800006f4:	0010039b          	addiw	t2,zero,1
    800006f8:	03239393          	slli	t2,t2,0x32
    800006fc:	12771463          	bne	a4,t2,80000824 <fail>

0000000080000700 <test_36>:
    80000700:	02400193          	li	gp,36
    80000704:	00000213          	li	tp,0
    80000708:	01f00113          	li	sp,31
    8000070c:	00100093          	li	ra,1
    80000710:	00000013          	nop
    80000714:	00000013          	nop
    80000718:	6020d733          	ror	a4,ra,sp
    8000071c:	00120213          	addi	tp,tp,1 # 1 <_start-0x7fffffff>
    80000720:	00200293          	li	t0,2
    80000724:	fe5212e3          	bne	tp,t0,80000708 <test_36+0x8>
    80000728:	0010039b          	addiw	t2,zero,1
    8000072c:	02139393          	slli	t2,t2,0x21
    80000730:	0e771a63          	bne	a4,t2,80000824 <fail>

0000000080000734 <test_37>:
    80000734:	02500193          	li	gp,37
    80000738:	00000213          	li	tp,0
    8000073c:	00700113          	li	sp,7
    80000740:	00000013          	nop
    80000744:	00100093          	li	ra,1
    80000748:	6020d733          	ror	a4,ra,sp
    8000074c:	00120213          	addi	tp,tp,1 # 1 <_start-0x7fffffff>
    80000750:	00200293          	li	t0,2
    80000754:	fe5214e3          	bne	tp,t0,8000073c <test_37+0x8>
    80000758:	0010039b          	addiw	t2,zero,1
    8000075c:	03939393          	slli	t2,t2,0x39
    80000760:	0c771263          	bne	a4,t2,80000824 <fail>

0000000080000764 <test_38>:
    80000764:	02600193          	li	gp,38
    80000768:	00000213          	li	tp,0
    8000076c:	00e00113          	li	sp,14
    80000770:	00000013          	nop
    80000774:	00100093          	li	ra,1
    80000778:	00000013          	nop
    8000077c:	6020d733          	ror	a4,ra,sp
    80000780:	00120213          	addi	tp,tp,1 # 1 <_start-0x7fffffff>
    80000784:	00200293          	li	t0,2
    80000788:	fe5212e3          	bne	tp,t0,8000076c <test_38+0x8>
    8000078c:	0010039b          	addiw	t2,zero,1
    80000790:	03239393          	slli	t2,t2,0x32
    80000794:	08771863          	bne	a4,t2,80000824 <fail>

0000000080000798 <test_39>:
    80000798:	02700193          	li	gp,39
    8000079c:	00000213          	li	tp,0
    800007a0:	01f00113          	li	sp,31
    800007a4:	00000013          	nop
    800007a8:	00000013          	nop
    800007ac:	00100093          	li	ra,1
    800007b0:	6020d733          	ror	a4,ra,sp
    800007b4:	00120213          	addi	tp,tp,1 # 1 <_start-0x7fffffff>
    800007b8:	00200293          	li	t0,2
    800007bc:	fe5212e3          	bne	tp,t0,800007a0 <test_39+0x8>
    800007c0:	0010039b          	addiw	t2,zero,1
    800007c4:	02139393          	slli	t2,t2,0x21
    800007c8:	04771e63          	bne	a4,t2,80000824 <fail>

00000000800007cc <test_40>:
    800007cc:	02800193          	li	gp,40
    800007d0:	00f00093          	li	ra,15
    800007d4:	60105133          	ror	sp,zero,ra
    800007d8:	00000393          	li	t2,0
    800007dc:	04711463          	bne	sp,t2,80000824 <fail>

00000000800007e0 <test_41>:
    800007e0:	02900193          	li	gp,41
    800007e4:	02000093          	li	ra,32
    800007e8:	6000d133          	ror	sp,ra,zero
    800007ec:	02000393          	li	t2,32
    800007f0:	02711a63          	bne	sp,t2,80000824 <fail>

00000000800007f4 <test_42>:
    800007f4:	02a00193          	li	gp,42
    800007f8:	600050b3          	ror	ra,zero,zero
    800007fc:	00000393          	li	t2,0
    80000800:	02709263          	bne	ra,t2,80000824 <fail>

0000000080000804 <test_43>:
    80000804:	02b00193          	li	gp,43
    80000808:	40000093          	li	ra,1024
    8000080c:	00001137          	lui	sp,0x1
    80000810:	8001011b          	addiw	sp,sp,-2048 # 800 <_start-0x7ffff800>
    80000814:	6020d033          	ror	zero,ra,sp
    80000818:	00000393          	li	t2,0
    8000081c:	00701463          	bne	zero,t2,80000824 <fail>
    80000820:	02301063          	bne	zero,gp,80000840 <pass>

0000000080000824 <fail>:
    80000824:	0ff0000f          	fence
    80000828:	00018063          	beqz	gp,80000828 <fail+0x4>
    8000082c:	00119193          	slli	gp,gp,0x1
    80000830:	0011e193          	ori	gp,gp,1
    80000834:	05d00893          	li	a7,93
    80000838:	00018513          	mv	a0,gp
    8000083c:	00000073          	ecall

0000000080000840 <pass>:
    80000840:	0ff0000f          	fence
    80000844:	00100193          	li	gp,1
    80000848:	05d00893          	li	a7,93
    8000084c:	00000513          	li	a0,0
    80000850:	00000073          	ecall
    80000854:	c0001073          	unimp
    80000858:	0000                	.insn	2, 0x
    8000085a:	0000                	.insn	2, 0x
    8000085c:	0000                	.insn	2, 0x
    8000085e:	0000                	.insn	2, 0x
    80000860:	0000                	.insn	2, 0x
    80000862:	0000                	.insn	2, 0x
    80000864:	0000                	.insn	2, 0x
    80000866:	0000                	.insn	2, 0x
    80000868:	0000                	.insn	2, 0x
    8000086a:	0000                	.insn	2, 0x
    8000086c:	0000                	.insn	2, 0x
    8000086e:	0000                	.insn	2, 0x
    80000870:	0000                	.insn	2, 0x
    80000872:	0000                	.insn	2, 0x
    80000874:	0000                	.insn	2, 0x
    80000876:	0000                	.insn	2, 0x
    80000878:	0000                	.insn	2, 0x
    8000087a:	0000                	.insn	2, 0x
