
rv64uzbb-p-rol:     file format elf64-littleriscv


Disassembly of section .text.init:

0000000080000000 <_start>:
    80000000:	0580006f          	j	80000058 <reset_vector>

0000000080000004 <trap_vector>:
    80000004:	34202f73          	csrr	t5,mcause
    80000008:	00800f93          	li	t6,8
    8000000c:	03ff0863          	beq	t5,t6,8000003c <write_tohost>
    80000010:	00900f93          	li	t6,9
    80000014:	03ff0463          	beq	t5,t6,8000003c <write_tohost>
    80000018:	00b00f93          	li	t6,11
    8000001c:	03ff0063          	beq	t5,t6,8000003c <write_tohost>
    80000020:	00000f13          	li	t5,0
    80000024:	000f0463          	beqz	t5,8000002c <trap_vector+0x28>
    80000028:	000f0067          	jr	t5
    8000002c:	34202f73          	csrr	t5,mcause
    80000030:	000f5463          	bgez	t5,80000038 <handle_exception>
    80000034:	0040006f          	j	80000038 <handle_exception>

0000000080000038 <handle_exception>:
    80000038:	5391e193          	ori	gp,gp,1337

000000008000003c <write_tohost>:
    8000003c:	00001f17          	auipc	t5,0x1
    80000040:	fc3f2223          	sw	gp,-60(t5) # 80001000 <tohost>
    80000044:	00001f17          	auipc	t5,0x1
    80000048:	fc0f2023          	sw	zero,-64(t5) # 80001004 <tohost+0x4>
    8000004c:	0080006f          	j	80000054 <halt>
    80000050:	fedff06f          	j	8000003c <write_tohost>

0000000080000054 <halt>:
    80000054:	0000006f          	j	80000054 <halt>

0000000080000058 <reset_vector>:
    80000058:	00000093          	li	ra,0
    8000005c:	00000113          	li	sp,0
    80000060:	00000193          	li	gp,0
    80000064:	00000213          	li	tp,0
    80000068:	00000293          	li	t0,0
    8000006c:	00000313          	li	t1,0
    80000070:	00000393          	li	t2,0
    80000074:	00000413          	li	s0,0
    80000078:	00000493          	li	s1,0
    8000007c:	00000513          	li	a0,0
    80000080:	00000593          	li	a1,0
    80000084:	00000613          	li	a2,0
    80000088:	00000693          	li	a3,0
    8000008c:	00000713          	li	a4,0
    80000090:	00000793          	li	a5,0
    80000094:	00000813          	li	a6,0
    80000098:	00000893          	li	a7,0
    8000009c:	00000913          	li	s2,0
    800000a0:	00000993          	li	s3,0
    800000a4:	00000a13          	li	s4,0
    800000a8:	00000a93          	li	s5,0
    800000ac:	00000b13          	li	s6,0
    800000b0:	00000b93          	li	s7,0
    800000b4:	00000c13          	li	s8,0
    800000b8:	00000c93          	li	s9,0
    800000bc:	00000d13          	li	s10,0
    800000c0:	00000d93          	li	s11,0
    800000c4:	00000e13          	li	t3,0
    800000c8:	00000e93          	li	t4,0
    800000cc:	00000f13          	li	t5,0
    800000d0:	00000f93          	li	t6,0
    800000d4:	f1402573          	csrr	a0,mhartid
    800000d8:	00051063          	bnez	a0,800000d8 <reset_vector+0x80>
    800000dc:	00000297          	auipc	t0,0x0
    800000e0:	01028293          	addi	t0,t0,16 # 800000ec <reset_vector+0x94>
    800000e4:	30529073          	csrw	mtvec,t0
    800000e8:	74445073          	csrwi	0x744,8
    800000ec:	00000297          	auipc	t0,0x0
    800000f0:	01028293          	addi	t0,t0,16 # 800000fc <reset_vector+0xa4>
    800000f4:	30529073          	csrw	mtvec,t0
    800000f8:	18005073          	csrwi	satp,0
    800000fc:	00000297          	auipc	t0,0x0
    80000100:	02428293          	addi	t0,t0,36 # 80000120 <reset_vector+0xc8>
    80000104:	30529073          	csrw	mtvec,t0
    80000108:	0010029b          	addiw	t0,zero,1
    8000010c:	03529293          	slli	t0,t0,0x35
    80000110:	fff28293          	addi	t0,t0,-1
    80000114:	3b029073          	csrw	pmpaddr0,t0
    80000118:	01f00293          	li	t0,31
    8000011c:	3a029073          	csrw	pmpcfg0,t0
    80000120:	30405073          	csrwi	mie,0
    80000124:	00000297          	auipc	t0,0x0
    80000128:	01428293          	addi	t0,t0,20 # 80000138 <reset_vector+0xe0>
    8000012c:	30529073          	csrw	mtvec,t0
    80000130:	30205073          	csrwi	medeleg,0
    80000134:	30305073          	csrwi	mideleg,0
    80000138:	00000193          	li	gp,0
    8000013c:	00000297          	auipc	t0,0x0
    80000140:	ec828293          	addi	t0,t0,-312 # 80000004 <trap_vector>
    80000144:	30529073          	csrw	mtvec,t0
    80000148:	00100513          	li	a0,1
    8000014c:	01f51513          	slli	a0,a0,0x1f
    80000150:	00055c63          	bgez	a0,80000168 <reset_vector+0x110>
    80000154:	0ff0000f          	fence
    80000158:	00100193          	li	gp,1
    8000015c:	05d00893          	li	a7,93
    80000160:	00000513          	li	a0,0
    80000164:	00000073          	ecall
    80000168:	00000293          	li	t0,0
    8000016c:	00028a63          	beqz	t0,80000180 <reset_vector+0x128>
    80000170:	10529073          	csrw	stvec,t0
    80000174:	0000b2b7          	lui	t0,0xb
    80000178:	1092829b          	addiw	t0,t0,265 # b109 <_start-0x7fff4ef7>
    8000017c:	30229073          	csrw	medeleg,t0
    80000180:	30005073          	csrwi	mstatus,0
    80000184:	00000297          	auipc	t0,0x0
    80000188:	01428293          	addi	t0,t0,20 # 80000198 <test_2>
    8000018c:	34129073          	csrw	mepc,t0
    80000190:	f1402573          	csrr	a0,mhartid
    80000194:	30200073          	mret

0000000080000198 <test_2>:
    80000198:	00200193          	li	gp,2
    8000019c:	00100593          	li	a1,1
    800001a0:	00000613          	li	a2,0
    800001a4:	60c59733          	rol	a4,a1,a2
    800001a8:	00100393          	li	t2,1
    800001ac:	60771663          	bne	a4,t2,800007b8 <fail>

00000000800001b0 <test_3>:
    800001b0:	00300193          	li	gp,3
    800001b4:	00100593          	li	a1,1
    800001b8:	00100613          	li	a2,1
    800001bc:	60c59733          	rol	a4,a1,a2
    800001c0:	00200393          	li	t2,2
    800001c4:	5e771a63          	bne	a4,t2,800007b8 <fail>

00000000800001c8 <test_4>:
    800001c8:	00400193          	li	gp,4
    800001cc:	00100593          	li	a1,1
    800001d0:	00700613          	li	a2,7
    800001d4:	60c59733          	rol	a4,a1,a2
    800001d8:	08000393          	li	t2,128
    800001dc:	5c771e63          	bne	a4,t2,800007b8 <fail>

00000000800001e0 <test_5>:
    800001e0:	00500193          	li	gp,5
    800001e4:	00100593          	li	a1,1
    800001e8:	00e00613          	li	a2,14
    800001ec:	60c59733          	rol	a4,a1,a2
    800001f0:	000043b7          	lui	t2,0x4
    800001f4:	5c771263          	bne	a4,t2,800007b8 <fail>

00000000800001f8 <test_6>:
    800001f8:	00600193          	li	gp,6
    800001fc:	00100593          	li	a1,1
    80000200:	01f00613          	li	a2,31
    80000204:	60c59733          	rol	a4,a1,a2
    80000208:	0010039b          	addiw	t2,zero,1
    8000020c:	01f39393          	slli	t2,t2,0x1f
    80000210:	5a771463          	bne	a4,t2,800007b8 <fail>

0000000080000214 <test_7>:
    80000214:	00700193          	li	gp,7
    80000218:	fff00593          	li	a1,-1
    8000021c:	00000613          	li	a2,0
    80000220:	60c59733          	rol	a4,a1,a2
    80000224:	fff00393          	li	t2,-1
    80000228:	58771863          	bne	a4,t2,800007b8 <fail>

000000008000022c <test_8>:
    8000022c:	00800193          	li	gp,8
    80000230:	fff00593          	li	a1,-1
    80000234:	00100613          	li	a2,1
    80000238:	60c59733          	rol	a4,a1,a2
    8000023c:	fff00393          	li	t2,-1
    80000240:	56771c63          	bne	a4,t2,800007b8 <fail>

0000000080000244 <test_9>:
    80000244:	00900193          	li	gp,9
    80000248:	fff00593          	li	a1,-1
    8000024c:	00700613          	li	a2,7
    80000250:	60c59733          	rol	a4,a1,a2
    80000254:	fff00393          	li	t2,-1
    80000258:	56771063          	bne	a4,t2,800007b8 <fail>

000000008000025c <test_10>:
    8000025c:	00a00193          	li	gp,10
    80000260:	fff00593          	li	a1,-1
    80000264:	00e00613          	li	a2,14
    80000268:	60c59733          	rol	a4,a1,a2
    8000026c:	fff00393          	li	t2,-1
    80000270:	54771463          	bne	a4,t2,800007b8 <fail>

0000000080000274 <test_11>:
    80000274:	00b00193          	li	gp,11
    80000278:	fff00593          	li	a1,-1
    8000027c:	01f00613          	li	a2,31
    80000280:	60c59733          	rol	a4,a1,a2
    80000284:	fff00393          	li	t2,-1
    80000288:	52771863          	bne	a4,t2,800007b8 <fail>

000000008000028c <test_12>:
    8000028c:	00c00193          	li	gp,12
    80000290:	212125b7          	lui	a1,0x21212
    80000294:	1215859b          	addiw	a1,a1,289 # 21212121 <_start-0x5edededf>
    80000298:	00000613          	li	a2,0
    8000029c:	60c59733          	rol	a4,a1,a2
    800002a0:	212123b7          	lui	t2,0x21212
    800002a4:	1213839b          	addiw	t2,t2,289 # 21212121 <_start-0x5edededf>
    800002a8:	50771863          	bne	a4,t2,800007b8 <fail>

00000000800002ac <test_13>:
    800002ac:	00d00193          	li	gp,13
    800002b0:	212125b7          	lui	a1,0x21212
    800002b4:	1215859b          	addiw	a1,a1,289 # 21212121 <_start-0x5edededf>
    800002b8:	00100613          	li	a2,1
    800002bc:	60c59733          	rol	a4,a1,a2
    800002c0:	424243b7          	lui	t2,0x42424
    800002c4:	2423839b          	addiw	t2,t2,578 # 42424242 <_start-0x3dbdbdbe>
    800002c8:	4e771863          	bne	a4,t2,800007b8 <fail>

00000000800002cc <test_14>:
    800002cc:	00e00193          	li	gp,14
    800002d0:	212125b7          	lui	a1,0x21212
    800002d4:	1215859b          	addiw	a1,a1,289 # 21212121 <_start-0x5edededf>
    800002d8:	00700613          	li	a2,7
    800002dc:	60c59733          	rol	a4,a1,a2
    800002e0:	010913b7          	lui	t2,0x1091
    800002e4:	9093839b          	addiw	t2,t2,-1783 # 1090909 <_start-0x7ef6f6f7>
    800002e8:	00c39393          	slli	t2,t2,0xc
    800002ec:	08038393          	addi	t2,t2,128
    800002f0:	4c771463          	bne	a4,t2,800007b8 <fail>

00000000800002f4 <test_15>:
    800002f4:	00f00193          	li	gp,15
    800002f8:	212125b7          	lui	a1,0x21212
    800002fc:	1215859b          	addiw	a1,a1,289 # 21212121 <_start-0x5edededf>
    80000300:	00e00613          	li	a2,14
    80000304:	60c59733          	rol	a4,a1,a2
    80000308:	212123b7          	lui	t2,0x21212
    8000030c:	1213839b          	addiw	t2,t2,289 # 21212121 <_start-0x5edededf>
    80000310:	00e39393          	slli	t2,t2,0xe
    80000314:	4a771263          	bne	a4,t2,800007b8 <fail>

0000000080000318 <test_16>:
    80000318:	01000193          	li	gp,16
    8000031c:	212125b7          	lui	a1,0x21212
    80000320:	1215859b          	addiw	a1,a1,289 # 21212121 <_start-0x5edededf>
    80000324:	01f00613          	li	a2,31
    80000328:	60c59733          	rol	a4,a1,a2
    8000032c:	212123b7          	lui	t2,0x21212
    80000330:	1213839b          	addiw	t2,t2,289 # 21212121 <_start-0x5edededf>
    80000334:	01f39393          	slli	t2,t2,0x1f
    80000338:	48771063          	bne	a4,t2,800007b8 <fail>

000000008000033c <test_17>:
    8000033c:	01100193          	li	gp,17
    80000340:	212125b7          	lui	a1,0x21212
    80000344:	1215859b          	addiw	a1,a1,289 # 21212121 <_start-0x5edededf>
    80000348:	fc000613          	li	a2,-64
    8000034c:	60c59733          	rol	a4,a1,a2
    80000350:	212123b7          	lui	t2,0x21212
    80000354:	1213839b          	addiw	t2,t2,289 # 21212121 <_start-0x5edededf>
    80000358:	46771063          	bne	a4,t2,800007b8 <fail>

000000008000035c <test_18>:
    8000035c:	01200193          	li	gp,18
    80000360:	212125b7          	lui	a1,0x21212
    80000364:	1215859b          	addiw	a1,a1,289 # 21212121 <_start-0x5edededf>
    80000368:	fc100613          	li	a2,-63
    8000036c:	60c59733          	rol	a4,a1,a2
    80000370:	424243b7          	lui	t2,0x42424
    80000374:	2423839b          	addiw	t2,t2,578 # 42424242 <_start-0x3dbdbdbe>
    80000378:	44771063          	bne	a4,t2,800007b8 <fail>

000000008000037c <test_19>:
    8000037c:	01300193          	li	gp,19
    80000380:	212125b7          	lui	a1,0x21212
    80000384:	1215859b          	addiw	a1,a1,289 # 21212121 <_start-0x5edededf>
    80000388:	fc700613          	li	a2,-57
    8000038c:	60c59733          	rol	a4,a1,a2
    80000390:	010913b7          	lui	t2,0x1091
    80000394:	9093839b          	addiw	t2,t2,-1783 # 1090909 <_start-0x7ef6f6f7>
    80000398:	00c39393          	slli	t2,t2,0xc
    8000039c:	08038393          	addi	t2,t2,128
    800003a0:	40771c63          	bne	a4,t2,800007b8 <fail>

00000000800003a4 <test_20>:
    800003a4:	01400193          	li	gp,20
    800003a8:	212125b7          	lui	a1,0x21212
    800003ac:	1215859b          	addiw	a1,a1,289 # 21212121 <_start-0x5edededf>
    800003b0:	fce00613          	li	a2,-50
    800003b4:	60c59733          	rol	a4,a1,a2
    800003b8:	212123b7          	lui	t2,0x21212
    800003bc:	1213839b          	addiw	t2,t2,289 # 21212121 <_start-0x5edededf>
    800003c0:	00e39393          	slli	t2,t2,0xe
    800003c4:	3e771a63          	bne	a4,t2,800007b8 <fail>

00000000800003c8 <test_21>:
    800003c8:	01500193          	li	gp,21
    800003cc:	212125b7          	lui	a1,0x21212
    800003d0:	1215859b          	addiw	a1,a1,289 # 21212121 <_start-0x5edededf>
    800003d4:	fff00613          	li	a2,-1
    800003d8:	60c59733          	rol	a4,a1,a2
    800003dc:	fff0039b          	addiw	t2,zero,-1
    800003e0:	02739393          	slli	t2,t2,0x27
    800003e4:	01138393          	addi	t2,t2,17
    800003e8:	00c39393          	slli	t2,t2,0xc
    800003ec:	90938393          	addi	t2,t2,-1783
    800003f0:	00c39393          	slli	t2,t2,0xc
    800003f4:	09038393          	addi	t2,t2,144
    800003f8:	3c771063          	bne	a4,t2,800007b8 <fail>

00000000800003fc <test_50>:
    800003fc:	03200193          	li	gp,50
    80000400:	00100593          	li	a1,1
    80000404:	03f00613          	li	a2,63
    80000408:	60c59733          	rol	a4,a1,a2
    8000040c:	fff0039b          	addiw	t2,zero,-1
    80000410:	03f39393          	slli	t2,t2,0x3f
    80000414:	3a771263          	bne	a4,t2,800007b8 <fail>

0000000080000418 <test_51>:
    80000418:	03300193          	li	gp,51
    8000041c:	fff00593          	li	a1,-1
    80000420:	02700613          	li	a2,39
    80000424:	60c59733          	rol	a4,a1,a2
    80000428:	fff00393          	li	t2,-1
    8000042c:	38771663          	bne	a4,t2,800007b8 <fail>

0000000080000430 <test_52>:
    80000430:	03400193          	li	gp,52
    80000434:	212125b7          	lui	a1,0x21212
    80000438:	1215859b          	addiw	a1,a1,289 # 21212121 <_start-0x5edededf>
    8000043c:	02b00613          	li	a2,43
    80000440:	60c59733          	rol	a4,a1,a2
    80000444:	000123b7          	lui	t2,0x12
    80000448:	1213839b          	addiw	t2,t2,289 # 12121 <_start-0x7ffededf>
    8000044c:	02b39393          	slli	t2,t2,0x2b
    80000450:	10938393          	addi	t2,t2,265
    80000454:	36771263          	bne	a4,t2,800007b8 <fail>

0000000080000458 <test_22>:
    80000458:	01600193          	li	gp,22
    8000045c:	00100593          	li	a1,1
    80000460:	00700613          	li	a2,7
    80000464:	60c595b3          	rol	a1,a1,a2
    80000468:	08000393          	li	t2,128
    8000046c:	34759663          	bne	a1,t2,800007b8 <fail>

0000000080000470 <test_23>:
    80000470:	01700193          	li	gp,23
    80000474:	00100593          	li	a1,1
    80000478:	00e00613          	li	a2,14
    8000047c:	60c59633          	rol	a2,a1,a2
    80000480:	000043b7          	lui	t2,0x4
    80000484:	32761a63          	bne	a2,t2,800007b8 <fail>

0000000080000488 <test_24>:
    80000488:	01800193          	li	gp,24
    8000048c:	00300593          	li	a1,3
    80000490:	60b595b3          	rol	a1,a1,a1
    80000494:	01800393          	li	t2,24
    80000498:	32759063          	bne	a1,t2,800007b8 <fail>

000000008000049c <test_25>:
    8000049c:	01900193          	li	gp,25
    800004a0:	00000213          	li	tp,0
    800004a4:	00100093          	li	ra,1
    800004a8:	00700113          	li	sp,7
    800004ac:	60209733          	rol	a4,ra,sp
    800004b0:	00070313          	mv	t1,a4
    800004b4:	00120213          	addi	tp,tp,1 # 1 <_start-0x7fffffff>
    800004b8:	00200293          	li	t0,2
    800004bc:	fe5214e3          	bne	tp,t0,800004a4 <test_25+0x8>
    800004c0:	08000393          	li	t2,128
    800004c4:	2e731a63          	bne	t1,t2,800007b8 <fail>

00000000800004c8 <test_26>:
    800004c8:	01a00193          	li	gp,26
    800004cc:	00000213          	li	tp,0
    800004d0:	00100093          	li	ra,1
    800004d4:	00e00113          	li	sp,14
    800004d8:	60209733          	rol	a4,ra,sp
    800004dc:	00000013          	nop
    800004e0:	00070313          	mv	t1,a4
    800004e4:	00120213          	addi	tp,tp,1 # 1 <_start-0x7fffffff>
    800004e8:	00200293          	li	t0,2
    800004ec:	fe5212e3          	bne	tp,t0,800004d0 <test_26+0x8>
    800004f0:	000043b7          	lui	t2,0x4
    800004f4:	2c731263          	bne	t1,t2,800007b8 <fail>

00000000800004f8 <test_27>:
    800004f8:	01b00193          	li	gp,27
    800004fc:	00000213          	li	tp,0
    80000500:	00100093          	li	ra,1
    80000504:	01f00113          	li	sp,31
    80000508:	60209733          	rol	a4,ra,sp
    8000050c:	00000013          	nop
    80000510:	00000013          	nop
    80000514:	00070313          	mv	t1,a4
    80000518:	00120213          	addi	tp,tp,1 # 1 <_start-0x7fffffff>
    8000051c:	00200293          	li	t0,2
    80000520:	fe5210e3          	bne	tp,t0,80000500 <test_27+0x8>
    80000524:	0010039b          	addiw	t2,zero,1
    80000528:	01f39393          	slli	t2,t2,0x1f
    8000052c:	28731663          	bne	t1,t2,800007b8 <fail>

0000000080000530 <test_28>:
    80000530:	01c00193          	li	gp,28
    80000534:	00000213          	li	tp,0
    80000538:	00100093          	li	ra,1
    8000053c:	00700113          	li	sp,7
    80000540:	60209733          	rol	a4,ra,sp
    80000544:	00120213          	addi	tp,tp,1 # 1 <_start-0x7fffffff>
    80000548:	00200293          	li	t0,2
    8000054c:	fe5216e3          	bne	tp,t0,80000538 <test_28+0x8>
    80000550:	08000393          	li	t2,128
    80000554:	26771263          	bne	a4,t2,800007b8 <fail>

0000000080000558 <test_29>:
    80000558:	01d00193          	li	gp,29
    8000055c:	00000213          	li	tp,0
    80000560:	00100093          	li	ra,1
    80000564:	00e00113          	li	sp,14
    80000568:	00000013          	nop
    8000056c:	60209733          	rol	a4,ra,sp
    80000570:	00120213          	addi	tp,tp,1 # 1 <_start-0x7fffffff>
    80000574:	00200293          	li	t0,2
    80000578:	fe5214e3          	bne	tp,t0,80000560 <test_29+0x8>
    8000057c:	000043b7          	lui	t2,0x4
    80000580:	22771c63          	bne	a4,t2,800007b8 <fail>

0000000080000584 <test_30>:
    80000584:	01e00193          	li	gp,30
    80000588:	00000213          	li	tp,0
    8000058c:	00100093          	li	ra,1
    80000590:	01f00113          	li	sp,31
    80000594:	00000013          	nop
    80000598:	00000013          	nop
    8000059c:	60209733          	rol	a4,ra,sp
    800005a0:	00120213          	addi	tp,tp,1 # 1 <_start-0x7fffffff>
    800005a4:	00200293          	li	t0,2
    800005a8:	fe5212e3          	bne	tp,t0,8000058c <test_30+0x8>
    800005ac:	0010039b          	addiw	t2,zero,1
    800005b0:	01f39393          	slli	t2,t2,0x1f
    800005b4:	20771263          	bne	a4,t2,800007b8 <fail>

00000000800005b8 <test_31>:
    800005b8:	01f00193          	li	gp,31
    800005bc:	00000213          	li	tp,0
    800005c0:	00100093          	li	ra,1
    800005c4:	00000013          	nop
    800005c8:	00700113          	li	sp,7
    800005cc:	60209733          	rol	a4,ra,sp
    800005d0:	00120213          	addi	tp,tp,1 # 1 <_start-0x7fffffff>
    800005d4:	00200293          	li	t0,2
    800005d8:	fe5214e3          	bne	tp,t0,800005c0 <test_31+0x8>
    800005dc:	08000393          	li	t2,128
    800005e0:	1c771c63          	bne	a4,t2,800007b8 <fail>

00000000800005e4 <test_32>:
    800005e4:	02000193          	li	gp,32
    800005e8:	00000213          	li	tp,0
    800005ec:	00100093          	li	ra,1
    800005f0:	00000013          	nop
    800005f4:	00e00113          	li	sp,14
    800005f8:	00000013          	nop
    800005fc:	60209733          	rol	a4,ra,sp
    80000600:	00120213          	addi	tp,tp,1 # 1 <_start-0x7fffffff>
    80000604:	00200293          	li	t0,2
    80000608:	fe5212e3          	bne	tp,t0,800005ec <test_32+0x8>
    8000060c:	000043b7          	lui	t2,0x4
    80000610:	1a771463          	bne	a4,t2,800007b8 <fail>

0000000080000614 <test_33>:
    80000614:	02100193          	li	gp,33
    80000618:	00000213          	li	tp,0
    8000061c:	00100093          	li	ra,1
    80000620:	00000013          	nop
    80000624:	00000013          	nop
    80000628:	01f00113          	li	sp,31
    8000062c:	60209733          	rol	a4,ra,sp
    80000630:	00120213          	addi	tp,tp,1 # 1 <_start-0x7fffffff>
    80000634:	00200293          	li	t0,2
    80000638:	fe5212e3          	bne	tp,t0,8000061c <test_33+0x8>
    8000063c:	0010039b          	addiw	t2,zero,1
    80000640:	01f39393          	slli	t2,t2,0x1f
    80000644:	16771a63          	bne	a4,t2,800007b8 <fail>

0000000080000648 <test_34>:
    80000648:	02200193          	li	gp,34
    8000064c:	00000213          	li	tp,0
    80000650:	00700113          	li	sp,7
    80000654:	00100093          	li	ra,1
    80000658:	60209733          	rol	a4,ra,sp
    8000065c:	00120213          	addi	tp,tp,1 # 1 <_start-0x7fffffff>
    80000660:	00200293          	li	t0,2
    80000664:	fe5216e3          	bne	tp,t0,80000650 <test_34+0x8>
    80000668:	08000393          	li	t2,128
    8000066c:	14771663          	bne	a4,t2,800007b8 <fail>

0000000080000670 <test_35>:
    80000670:	02300193          	li	gp,35
    80000674:	00000213          	li	tp,0
    80000678:	00e00113          	li	sp,14
    8000067c:	00100093          	li	ra,1
    80000680:	00000013          	nop
    80000684:	60209733          	rol	a4,ra,sp
    80000688:	00120213          	addi	tp,tp,1 # 1 <_start-0x7fffffff>
    8000068c:	00200293          	li	t0,2
    80000690:	fe5214e3          	bne	tp,t0,80000678 <test_35+0x8>
    80000694:	000043b7          	lui	t2,0x4
    80000698:	12771063          	bne	a4,t2,800007b8 <fail>

000000008000069c <test_36>:
    8000069c:	02400193          	li	gp,36
    800006a0:	00000213          	li	tp,0
    800006a4:	01f00113          	li	sp,31
    800006a8:	00100093          	li	ra,1
    800006ac:	00000013          	nop
    800006b0:	00000013          	nop
    800006b4:	60209733          	rol	a4,ra,sp
    800006b8:	00120213          	addi	tp,tp,1 # 1 <_start-0x7fffffff>
    800006bc:	00200293          	li	t0,2
    800006c0:	fe5212e3          	bne	tp,t0,800006a4 <test_36+0x8>
    800006c4:	0010039b          	addiw	t2,zero,1
    800006c8:	01f39393          	slli	t2,t2,0x1f
    800006cc:	0e771663          	bne	a4,t2,800007b8 <fail>

00000000800006d0 <test_37>:
    800006d0:	02500193          	li	gp,37
    800006d4:	00000213          	li	tp,0
    800006d8:	00700113          	li	sp,7
    800006dc:	00000013          	nop
    800006e0:	00100093          	li	ra,1
    800006e4:	60209733          	rol	a4,ra,sp
    800006e8:	00120213          	addi	tp,tp,1 # 1 <_start-0x7fffffff>
    800006ec:	00200293          	li	t0,2
    800006f0:	fe5214e3          	bne	tp,t0,800006d8 <test_37+0x8>
    800006f4:	08000393          	li	t2,128
    800006f8:	0c771063          	bne	a4,t2,800007b8 <fail>

00000000800006fc <test_38>:
    800006fc:	02600193          	li	gp,38
    80000700:	00000213          	li	tp,0
    80000704:	00e00113          	li	sp,14
    80000708:	00000013          	nop
    8000070c:	00100093          	li	ra,1
    80000710:	00000013          	nop
    80000714:	60209733          	rol	a4,ra,sp
    80000718:	00120213          	addi	tp,tp,1 # 1 <_start-0x7fffffff>
    8000071c:	00200293          	li	t0,2
    80000720:	fe5212e3          	bne	tp,t0,80000704 <test_38+0x8>
    80000724:	000043b7          	lui	t2,0x4
    80000728:	08771863          	bne	a4,t2,800007b8 <fail>

000000008000072c <test_39>:
    8000072c:	02700193          	li	gp,39
    80000730:	00000213          	li	tp,0
    80000734:	01f00113          	li	sp,31
    80000738:	00000013          	nop
    8000073c:	00000013          	nop
    80000740:	00100093          	li	ra,1
    80000744:	60209733          	rol	a4,ra,sp
    80000748:	00120213          	addi	tp,tp,1 # 1 <_start-0x7fffffff>
    8000074c:	00200293          	li	t0,2
    80000750:	fe5212e3          	bne	tp,t0,80000734 <test_39+0x8>
    80000754:	0010039b          	addiw	t2,zero,1
    80000758:	01f39393          	slli	t2,t2,0x1f
    8000075c:	04771e63          	bne	a4,t2,800007b8 <fail>

0000000080000760 <test_40>:
    80000760:	02800193          	li	gp,40
    80000764:	00f00093          	li	ra,15
    80000768:	60101133          	rol	sp,zero,ra
    8000076c:	00000393          	li	t2,0
    80000770:	04711463          	bne	sp,t2,800007b8 <fail>

0000000080000774 <test_41>:
    80000774:	02900193          	li	gp,41
    80000778:	02000093          	li	ra,32
    8000077c:	60009133          	rol	sp,ra,zero
    80000780:	02000393          	li	t2,32
    80000784:	02711a63          	bne	sp,t2,800007b8 <fail>

0000000080000788 <test_42>:
    80000788:	02a00193          	li	gp,42
    8000078c:	600010b3          	rol	ra,zero,zero
    80000790:	00000393          	li	t2,0
    80000794:	02709263          	bne	ra,t2,800007b8 <fail>

0000000080000798 <test_43>:
    80000798:	02b00193          	li	gp,43
    8000079c:	40000093          	li	ra,1024
    800007a0:	00001137          	lui	sp,0x1
    800007a4:	8001011b          	addiw	sp,sp,-2048 # 800 <_start-0x7ffff800>
    800007a8:	60209033          	rol	zero,ra,sp
    800007ac:	00000393          	li	t2,0
    800007b0:	00701463          	bne	zero,t2,800007b8 <fail>
    800007b4:	02301063          	bne	zero,gp,800007d4 <pass>

00000000800007b8 <fail>:
    800007b8:	0ff0000f          	fence
    800007bc:	00018063          	beqz	gp,800007bc <fail+0x4>
    800007c0:	00119193          	slli	gp,gp,0x1
    800007c4:	0011e193          	ori	gp,gp,1
    800007c8:	05d00893          	li	a7,93
    800007cc:	00018513          	mv	a0,gp
    800007d0:	00000073          	ecall

00000000800007d4 <pass>:
    800007d4:	0ff0000f          	fence
    800007d8:	00100193          	li	gp,1
    800007dc:	05d00893          	li	a7,93
    800007e0:	00000513          	li	a0,0
    800007e4:	00000073          	ecall
    800007e8:	c0001073          	unimp
    800007ec:	0000                	.insn	2, 0x
    800007ee:	0000                	.insn	2, 0x
    800007f0:	0000                	.insn	2, 0x
    800007f2:	0000                	.insn	2, 0x
    800007f4:	0000                	.insn	2, 0x
    800007f6:	0000                	.insn	2, 0x
    800007f8:	0000                	.insn	2, 0x
    800007fa:	0000                	.insn	2, 0x
