
rv64uzbb-p-ctzw:     file format elf64-littleriscv


Disassembly of section .text.init:

0000000080000000 <_start>:
    80000000:	0580006f          	j	80000058 <reset_vector>

0000000080000004 <trap_vector>:
    80000004:	34202f73          	csrr	t5,mcause
    80000008:	00800f93          	li	t6,8
    8000000c:	03ff0863          	beq	t5,t6,8000003c <write_tohost>
    80000010:	00900f93          	li	t6,9
    80000014:	03ff0463          	beq	t5,t6,8000003c <write_tohost>
    80000018:	00b00f93          	li	t6,11
    8000001c:	03ff0063          	beq	t5,t6,8000003c <write_tohost>
    80000020:	00000f13          	li	t5,0
    80000024:	000f0463          	beqz	t5,8000002c <trap_vector+0x28>
    80000028:	000f0067          	jr	t5
    8000002c:	34202f73          	csrr	t5,mcause
    80000030:	000f5463          	bgez	t5,80000038 <handle_exception>
    80000034:	0040006f          	j	80000038 <handle_exception>

0000000080000038 <handle_exception>:
    80000038:	5391e193          	ori	gp,gp,1337

000000008000003c <write_tohost>:
    8000003c:	00001f17          	auipc	t5,0x1
    80000040:	fc3f2223          	sw	gp,-60(t5) # 80001000 <tohost>
    80000044:	00001f17          	auipc	t5,0x1
    80000048:	fc0f2023          	sw	zero,-64(t5) # 80001004 <tohost+0x4>
    8000004c:	0080006f          	j	80000054 <halt>
    80000050:	fedff06f          	j	8000003c <write_tohost>

0000000080000054 <halt>:
    80000054:	0000006f          	j	80000054 <halt>

0000000080000058 <reset_vector>:
    80000058:	00000093          	li	ra,0
    8000005c:	00000113          	li	sp,0
    80000060:	00000193          	li	gp,0
    80000064:	00000213          	li	tp,0
    80000068:	00000293          	li	t0,0
    8000006c:	00000313          	li	t1,0
    80000070:	00000393          	li	t2,0
    80000074:	00000413          	li	s0,0
    80000078:	00000493          	li	s1,0
    8000007c:	00000513          	li	a0,0
    80000080:	00000593          	li	a1,0
    80000084:	00000613          	li	a2,0
    80000088:	00000693          	li	a3,0
    8000008c:	00000713          	li	a4,0
    80000090:	00000793          	li	a5,0
    80000094:	00000813          	li	a6,0
    80000098:	00000893          	li	a7,0
    8000009c:	00000913          	li	s2,0
    800000a0:	00000993          	li	s3,0
    800000a4:	00000a13          	li	s4,0
    800000a8:	00000a93          	li	s5,0
    800000ac:	00000b13          	li	s6,0
    800000b0:	00000b93          	li	s7,0
    800000b4:	00000c13          	li	s8,0
    800000b8:	00000c93          	li	s9,0
    800000bc:	00000d13          	li	s10,0
    800000c0:	00000d93          	li	s11,0
    800000c4:	00000e13          	li	t3,0
    800000c8:	00000e93          	li	t4,0
    800000cc:	00000f13          	li	t5,0
    800000d0:	00000f93          	li	t6,0
    800000d4:	f1402573          	csrr	a0,mhartid
    800000d8:	00051063          	bnez	a0,800000d8 <reset_vector+0x80>
    800000dc:	00000297          	auipc	t0,0x0
    800000e0:	01028293          	addi	t0,t0,16 # 800000ec <reset_vector+0x94>
    800000e4:	30529073          	csrw	mtvec,t0
    800000e8:	74445073          	csrwi	0x744,8
    800000ec:	00000297          	auipc	t0,0x0
    800000f0:	01028293          	addi	t0,t0,16 # 800000fc <reset_vector+0xa4>
    800000f4:	30529073          	csrw	mtvec,t0
    800000f8:	18005073          	csrwi	satp,0
    800000fc:	00000297          	auipc	t0,0x0
    80000100:	02428293          	addi	t0,t0,36 # 80000120 <reset_vector+0xc8>
    80000104:	30529073          	csrw	mtvec,t0
    80000108:	0010029b          	addiw	t0,zero,1
    8000010c:	03529293          	slli	t0,t0,0x35
    80000110:	fff28293          	addi	t0,t0,-1
    80000114:	3b029073          	csrw	pmpaddr0,t0
    80000118:	01f00293          	li	t0,31
    8000011c:	3a029073          	csrw	pmpcfg0,t0
    80000120:	30405073          	csrwi	mie,0
    80000124:	00000297          	auipc	t0,0x0
    80000128:	01428293          	addi	t0,t0,20 # 80000138 <reset_vector+0xe0>
    8000012c:	30529073          	csrw	mtvec,t0
    80000130:	30205073          	csrwi	medeleg,0
    80000134:	30305073          	csrwi	mideleg,0
    80000138:	00000193          	li	gp,0
    8000013c:	00000297          	auipc	t0,0x0
    80000140:	ec828293          	addi	t0,t0,-312 # 80000004 <trap_vector>
    80000144:	30529073          	csrw	mtvec,t0
    80000148:	00100513          	li	a0,1
    8000014c:	01f51513          	slli	a0,a0,0x1f
    80000150:	00055c63          	bgez	a0,80000168 <reset_vector+0x110>
    80000154:	0ff0000f          	fence
    80000158:	00100193          	li	gp,1
    8000015c:	05d00893          	li	a7,93
    80000160:	00000513          	li	a0,0
    80000164:	00000073          	ecall
    80000168:	00000293          	li	t0,0
    8000016c:	00028a63          	beqz	t0,80000180 <reset_vector+0x128>
    80000170:	10529073          	csrw	stvec,t0
    80000174:	0000b2b7          	lui	t0,0xb
    80000178:	1092829b          	addiw	t0,t0,265 # b109 <_start-0x7fff4ef7>
    8000017c:	30229073          	csrw	medeleg,t0
    80000180:	30005073          	csrwi	mstatus,0
    80000184:	00000297          	auipc	t0,0x0
    80000188:	01428293          	addi	t0,t0,20 # 80000198 <test_2>
    8000018c:	34129073          	csrw	mepc,t0
    80000190:	f1402573          	csrr	a0,mhartid
    80000194:	30200073          	mret

0000000080000198 <test_2>:
    80000198:	00200193          	li	gp,2
    8000019c:	00000093          	li	ra,0
    800001a0:	6010971b          	ctzw	a4,ra
    800001a4:	02000393          	li	t2,32
    800001a8:	26771263          	bne	a4,t2,8000040c <fail>

00000000800001ac <test_3>:
    800001ac:	00300193          	li	gp,3
    800001b0:	00100093          	li	ra,1
    800001b4:	6010971b          	ctzw	a4,ra
    800001b8:	00000393          	li	t2,0
    800001bc:	24771863          	bne	a4,t2,8000040c <fail>

00000000800001c0 <test_4>:
    800001c0:	00400193          	li	gp,4
    800001c4:	00300093          	li	ra,3
    800001c8:	6010971b          	ctzw	a4,ra
    800001cc:	00000393          	li	t2,0
    800001d0:	22771e63          	bne	a4,t2,8000040c <fail>

00000000800001d4 <test_5>:
    800001d4:	00500193          	li	gp,5
    800001d8:	000200b7          	lui	ra,0x20
    800001dc:	fff0809b          	addiw	ra,ra,-1 # 1ffff <_start-0x7ffe0001>
    800001e0:	00f09093          	slli	ra,ra,0xf
    800001e4:	6010971b          	ctzw	a4,ra
    800001e8:	00f00393          	li	t2,15
    800001ec:	22771063          	bne	a4,t2,8000040c <fail>

00000000800001f0 <test_6>:
    800001f0:	00600193          	li	gp,6
    800001f4:	008000b7          	lui	ra,0x800
    800001f8:	6010971b          	ctzw	a4,ra
    800001fc:	01700393          	li	t2,23
    80000200:	20771663          	bne	a4,t2,8000040c <fail>

0000000080000204 <test_7>:
    80000204:	00700193          	li	gp,7
    80000208:	000200b7          	lui	ra,0x20
    8000020c:	fff0809b          	addiw	ra,ra,-1 # 1ffff <_start-0x7ffe0001>
    80000210:	00f09093          	slli	ra,ra,0xf
    80000214:	6010971b          	ctzw	a4,ra
    80000218:	00f00393          	li	t2,15
    8000021c:	1e771863          	bne	a4,t2,8000040c <fail>

0000000080000220 <test_8>:
    80000220:	00800193          	li	gp,8
    80000224:	000080b7          	lui	ra,0x8
    80000228:	fff0809b          	addiw	ra,ra,-1 # 7fff <_start-0x7fff8001>
    8000022c:	6010971b          	ctzw	a4,ra
    80000230:	00000393          	li	t2,0
    80000234:	1c771c63          	bne	a4,t2,8000040c <fail>

0000000080000238 <test_9>:
    80000238:	00900193          	li	gp,9
    8000023c:	800000b7          	lui	ra,0x80000
    80000240:	fff0809b          	addiw	ra,ra,-1 # 7fffffff <_start-0x1>
    80000244:	6010971b          	ctzw	a4,ra
    80000248:	00000393          	li	t2,0
    8000024c:	1c771063          	bne	a4,t2,8000040c <fail>

0000000080000250 <test_10>:
    80000250:	00a00193          	li	gp,10
    80000254:	000800b7          	lui	ra,0x80
    80000258:	fff0809b          	addiw	ra,ra,-1 # 7ffff <_start-0x7ff80001>
    8000025c:	6010971b          	ctzw	a4,ra
    80000260:	00000393          	li	t2,0
    80000264:	1a771463          	bne	a4,t2,8000040c <fail>

0000000080000268 <test_11>:
    80000268:	00b00193          	li	gp,11
    8000026c:	0010009b          	addiw	ra,zero,1
    80000270:	01f09093          	slli	ra,ra,0x1f
    80000274:	6010971b          	ctzw	a4,ra
    80000278:	01f00393          	li	t2,31
    8000027c:	18771863          	bne	a4,t2,8000040c <fail>

0000000080000280 <test_12>:
    80000280:	00c00193          	li	gp,12
    80000284:	121f50b7          	lui	ra,0x121f5
    80000288:	6010971b          	ctzw	a4,ra
    8000028c:	00c00393          	li	t2,12
    80000290:	16771e63          	bne	a4,t2,8000040c <fail>

0000000080000294 <test_13>:
    80000294:	00d00193          	li	gp,13
    80000298:	0030009b          	addiw	ra,zero,3
    8000029c:	01e09093          	slli	ra,ra,0x1e
    800002a0:	6010971b          	ctzw	a4,ra
    800002a4:	01e00393          	li	t2,30
    800002a8:	16771263          	bne	a4,t2,8000040c <fail>

00000000800002ac <test_14>:
    800002ac:	00e00193          	li	gp,14
    800002b0:	00e00093          	li	ra,14
    800002b4:	6010971b          	ctzw	a4,ra
    800002b8:	00100393          	li	t2,1
    800002bc:	14771863          	bne	a4,t2,8000040c <fail>

00000000800002c0 <test_15>:
    800002c0:	00f00193          	li	gp,15
    800002c4:	204010b7          	lui	ra,0x20401
    800002c8:	3410809b          	addiw	ra,ra,833 # 20401341 <_start-0x5fbfecbf>
    800002cc:	6010971b          	ctzw	a4,ra
    800002d0:	00000393          	li	t2,0
    800002d4:	12771c63          	bne	a4,t2,8000040c <fail>

00000000800002d8 <test_16>:
    800002d8:	01000193          	li	gp,16
    800002dc:	00d00093          	li	ra,13
    800002e0:	6010909b          	ctzw	ra,ra
    800002e4:	00000393          	li	t2,0
    800002e8:	12709263          	bne	ra,t2,8000040c <fail>

00000000800002ec <test_17>:
    800002ec:	01100193          	li	gp,17
    800002f0:	00b00093          	li	ra,11
    800002f4:	6010909b          	ctzw	ra,ra
    800002f8:	00000393          	li	t2,0
    800002fc:	10709863          	bne	ra,t2,8000040c <fail>

0000000080000300 <test_18>:
    80000300:	01200193          	li	gp,18
    80000304:	00000213          	li	tp,0
    80000308:	00d00093          	li	ra,13
    8000030c:	6010971b          	ctzw	a4,ra
    80000310:	00070313          	mv	t1,a4
    80000314:	00120213          	addi	tp,tp,1 # 1 <_start-0x7fffffff>
    80000318:	00200293          	li	t0,2
    8000031c:	fe5216e3          	bne	tp,t0,80000308 <test_18+0x8>
    80000320:	00000393          	li	t2,0
    80000324:	0e731463          	bne	t1,t2,8000040c <fail>

0000000080000328 <test_29>:
    80000328:	01d00193          	li	gp,29
    8000032c:	00000213          	li	tp,0
    80000330:	01300093          	li	ra,19
    80000334:	6010971b          	ctzw	a4,ra
    80000338:	00000013          	nop
    8000033c:	00070313          	mv	t1,a4
    80000340:	00120213          	addi	tp,tp,1 # 1 <_start-0x7fffffff>
    80000344:	00200293          	li	t0,2
    80000348:	fe5214e3          	bne	tp,t0,80000330 <test_29+0x8>
    8000034c:	00000393          	li	t2,0
    80000350:	0a731e63          	bne	t1,t2,8000040c <fail>

0000000080000354 <test_20>:
    80000354:	01400193          	li	gp,20
    80000358:	00000213          	li	tp,0
    8000035c:	02200093          	li	ra,34
    80000360:	6010971b          	ctzw	a4,ra
    80000364:	00000013          	nop
    80000368:	00000013          	nop
    8000036c:	00070313          	mv	t1,a4
    80000370:	00120213          	addi	tp,tp,1 # 1 <_start-0x7fffffff>
    80000374:	00200293          	li	t0,2
    80000378:	fe5212e3          	bne	tp,t0,8000035c <test_20+0x8>
    8000037c:	00100393          	li	t2,1
    80000380:	08731663          	bne	t1,t2,8000040c <fail>

0000000080000384 <test_21>:
    80000384:	01500193          	li	gp,21
    80000388:	007f80b7          	lui	ra,0x7f8
    8000038c:	6010971b          	ctzw	a4,ra
    80000390:	00f00393          	li	t2,15
    80000394:	06771c63          	bne	a4,t2,8000040c <fail>

0000000080000398 <test_22>:
    80000398:	01600193          	li	gp,22
    8000039c:	008080b7          	lui	ra,0x808
    800003a0:	6010971b          	ctzw	a4,ra
    800003a4:	00f00393          	li	t2,15
    800003a8:	06771263          	bne	a4,t2,8000040c <fail>

00000000800003ac <test_23>:
    800003ac:	01700193          	li	gp,23
    800003b0:	018090b7          	lui	ra,0x1809
    800003b4:	6010971b          	ctzw	a4,ra
    800003b8:	00c00393          	li	t2,12
    800003bc:	04771863          	bne	a4,t2,8000040c <fail>

00000000800003c0 <test_24>:
    800003c0:	01800193          	li	gp,24
    800003c4:	000080b7          	lui	ra,0x8
    800003c8:	fff0809b          	addiw	ra,ra,-1 # 7fff <_start-0x7fff8001>
    800003cc:	6010971b          	ctzw	a4,ra
    800003d0:	00000393          	li	t2,0
    800003d4:	02771c63          	bne	a4,t2,8000040c <fail>

00000000800003d8 <test_25>:
    800003d8:	01900193          	li	gp,25
    800003dc:	800000b7          	lui	ra,0x80000
    800003e0:	fff0809b          	addiw	ra,ra,-1 # 7fffffff <_start-0x1>
    800003e4:	6010971b          	ctzw	a4,ra
    800003e8:	00000393          	li	t2,0
    800003ec:	02771063          	bne	a4,t2,8000040c <fail>

00000000800003f0 <test_26>:
    800003f0:	01a00193          	li	gp,26
    800003f4:	000800b7          	lui	ra,0x80
    800003f8:	fff0809b          	addiw	ra,ra,-1 # 7ffff <_start-0x7ff80001>
    800003fc:	6010971b          	ctzw	a4,ra
    80000400:	00000393          	li	t2,0
    80000404:	00771463          	bne	a4,t2,8000040c <fail>
    80000408:	02301063          	bne	zero,gp,80000428 <pass>

000000008000040c <fail>:
    8000040c:	0ff0000f          	fence
    80000410:	00018063          	beqz	gp,80000410 <fail+0x4>
    80000414:	00119193          	slli	gp,gp,0x1
    80000418:	0011e193          	ori	gp,gp,1
    8000041c:	05d00893          	li	a7,93
    80000420:	00018513          	mv	a0,gp
    80000424:	00000073          	ecall

0000000080000428 <pass>:
    80000428:	0ff0000f          	fence
    8000042c:	00100193          	li	gp,1
    80000430:	05d00893          	li	a7,93
    80000434:	00000513          	li	a0,0
    80000438:	00000073          	ecall
    8000043c:	c0001073          	unimp
    80000440:	0000                	.insn	2, 0x
    80000442:	0000                	.insn	2, 0x
    80000444:	0000                	.insn	2, 0x
    80000446:	0000                	.insn	2, 0x
    80000448:	0000                	.insn	2, 0x
    8000044a:	0000                	.insn	2, 0x
    8000044c:	0000                	.insn	2, 0x
    8000044e:	0000                	.insn	2, 0x
    80000450:	0000                	.insn	2, 0x
    80000452:	0000                	.insn	2, 0x
    80000454:	0000                	.insn	2, 0x
    80000456:	0000                	.insn	2, 0x
    80000458:	0000                	.insn	2, 0x
    8000045a:	0000                	.insn	2, 0x
    8000045c:	0000                	.insn	2, 0x
    8000045e:	0000                	.insn	2, 0x
    80000460:	0000                	.insn	2, 0x
    80000462:	0000                	.insn	2, 0x
    80000464:	0000                	.insn	2, 0x
    80000466:	0000                	.insn	2, 0x
    80000468:	0000                	.insn	2, 0x
    8000046a:	0000                	.insn	2, 0x
    8000046c:	0000                	.insn	2, 0x
    8000046e:	0000                	.insn	2, 0x
    80000470:	0000                	.insn	2, 0x
    80000472:	0000                	.insn	2, 0x
    80000474:	0000                	.insn	2, 0x
    80000476:	0000                	.insn	2, 0x
    80000478:	0000                	.insn	2, 0x
    8000047a:	0000                	.insn	2, 0x
