
rv64ud-p-fcvt:     file format elf64-littleriscv


Disassembly of section .text.init:

0000000080000000 <_start>:
    80000000:	00200193          	li	gp,2
    80000004:	00002517          	auipc	a0,0x2
    80000008:	ffc50513          	addi	a0,a0,-4 # 80002000 <test_2_data>
    8000000c:	00053683          	ld	a3,0(a0)
    80000010:	00200513          	li	a0,2
    80000014:	d2050053          	fcvt.d.w	ft0,a0
    80000018:	00101073          	fsflags	zero
    8000001c:	e2000553          	fmv.x.d	a0,ft0
    80000020:	1ad51263          	bne	a0,a3,800001c4 <fail>

0000000080000024 <test_3>:
    80000024:	00300193          	li	gp,3
    80000028:	00002517          	auipc	a0,0x2
    8000002c:	fe050513          	addi	a0,a0,-32 # 80002008 <test_3_data>
    80000030:	00053683          	ld	a3,0(a0)
    80000034:	ffe00513          	li	a0,-2
    80000038:	d2050053          	fcvt.d.w	ft0,a0
    8000003c:	00101073          	fsflags	zero
    80000040:	e2000553          	fmv.x.d	a0,ft0
    80000044:	18d51063          	bne	a0,a3,800001c4 <fail>

0000000080000048 <test_4>:
    80000048:	00400193          	li	gp,4
    8000004c:	00002517          	auipc	a0,0x2
    80000050:	fc450513          	addi	a0,a0,-60 # 80002010 <test_4_data>
    80000054:	00053683          	ld	a3,0(a0)
    80000058:	00200513          	li	a0,2
    8000005c:	d2150053          	fcvt.d.wu	ft0,a0
    80000060:	00101073          	fsflags	zero
    80000064:	e2000553          	fmv.x.d	a0,ft0
    80000068:	14d51e63          	bne	a0,a3,800001c4 <fail>

000000008000006c <test_5>:
    8000006c:	00500193          	li	gp,5
    80000070:	00002517          	auipc	a0,0x2
    80000074:	fa850513          	addi	a0,a0,-88 # 80002018 <test_5_data>
    80000078:	00053683          	ld	a3,0(a0)
    8000007c:	ffe00513          	li	a0,-2
    80000080:	d2150053          	fcvt.d.wu	ft0,a0
    80000084:	00101073          	fsflags	zero
    80000088:	e2000553          	fmv.x.d	a0,ft0
    8000008c:	12d51c63          	bne	a0,a3,800001c4 <fail>

0000000080000090 <test_6>:
    80000090:	00600193          	li	gp,6
    80000094:	00002517          	auipc	a0,0x2
    80000098:	f8c50513          	addi	a0,a0,-116 # 80002020 <test_6_data>
    8000009c:	00053683          	ld	a3,0(a0)
    800000a0:	00200513          	li	a0,2
    800000a4:	d2257053          	fcvt.d.l	ft0,a0
    800000a8:	00101073          	fsflags	zero
    800000ac:	e2000553          	fmv.x.d	a0,ft0
    800000b0:	10d51a63          	bne	a0,a3,800001c4 <fail>

00000000800000b4 <test_7>:
    800000b4:	00700193          	li	gp,7
    800000b8:	00002517          	auipc	a0,0x2
    800000bc:	f7050513          	addi	a0,a0,-144 # 80002028 <test_7_data>
    800000c0:	00053683          	ld	a3,0(a0)
    800000c4:	ffe00513          	li	a0,-2
    800000c8:	d2257053          	fcvt.d.l	ft0,a0
    800000cc:	00101073          	fsflags	zero
    800000d0:	e2000553          	fmv.x.d	a0,ft0
    800000d4:	0ed51863          	bne	a0,a3,800001c4 <fail>

00000000800000d8 <test_8>:
    800000d8:	00800193          	li	gp,8
    800000dc:	00002517          	auipc	a0,0x2
    800000e0:	f5450513          	addi	a0,a0,-172 # 80002030 <test_8_data>
    800000e4:	00053683          	ld	a3,0(a0)
    800000e8:	00200513          	li	a0,2
    800000ec:	d2357053          	fcvt.d.lu	ft0,a0
    800000f0:	00101073          	fsflags	zero
    800000f4:	e2000553          	fmv.x.d	a0,ft0
    800000f8:	0cd51663          	bne	a0,a3,800001c4 <fail>

00000000800000fc <test_9>:
    800000fc:	00900193          	li	gp,9
    80000100:	00002517          	auipc	a0,0x2
    80000104:	f3850513          	addi	a0,a0,-200 # 80002038 <test_9_data>
    80000108:	00053683          	ld	a3,0(a0)
    8000010c:	ffe00513          	li	a0,-2
    80000110:	d2357053          	fcvt.d.lu	ft0,a0
    80000114:	00101073          	fsflags	zero
    80000118:	e2000553          	fmv.x.d	a0,ft0
    8000011c:	0ad51463          	bne	a0,a3,800001c4 <fail>

0000000080000120 <test_10>:
    80000120:	00a00193          	li	gp,10
    80000124:	00002517          	auipc	a0,0x2
    80000128:	f1c50513          	addi	a0,a0,-228 # 80002040 <test_10_data>
    8000012c:	00053007          	fld	ft0,0(a0)
    80000130:	00853087          	fld	ft1,8(a0)
    80000134:	01053107          	fld	ft2,16(a0)
    80000138:	01853683          	ld	a3,24(a0)
    8000013c:	401071d3          	fcvt.s.d	ft3,ft0
    80000140:	420181d3          	fcvt.d.s	ft3,ft3
    80000144:	e2018553          	fmv.x.d	a0,ft3
    80000148:	001015f3          	fsflags	a1,zero
    8000014c:	00000613          	li	a2,0
    80000150:	06d51a63          	bne	a0,a3,800001c4 <fail>
    80000154:	06c59863          	bne	a1,a2,800001c4 <fail>

0000000080000158 <test_11>:
    80000158:	00b00193          	li	gp,11
    8000015c:	00002517          	auipc	a0,0x2
    80000160:	f0450513          	addi	a0,a0,-252 # 80002060 <test_11_data>
    80000164:	00052007          	flw	ft0,0(a0)
    80000168:	00452087          	flw	ft1,4(a0)
    8000016c:	00852107          	flw	ft2,8(a0)
    80000170:	00c52683          	lw	a3,12(a0)
    80000174:	420001d3          	fcvt.d.s	ft3,ft0
    80000178:	4011f1d3          	fcvt.s.d	ft3,ft3
    8000017c:	e0018553          	fmv.x.w	a0,ft3
    80000180:	001015f3          	fsflags	a1,zero
    80000184:	00000613          	li	a2,0
    80000188:	02d51e63          	bne	a0,a3,800001c4 <fail>
    8000018c:	02c59c63          	bne	a1,a2,800001c4 <fail>

0000000080000190 <test_12>:
    80000190:	00002597          	auipc	a1,0x2
    80000194:	ee058593          	addi	a1,a1,-288 # 80002070 <begin_signature>
    80000198:	0005b603          	ld	a2,0(a1)
    8000019c:	f2060153          	fmv.d.x	ft2,a2
    800001a0:	40117153          	fcvt.s.d	ft2,ft2
    800001a4:	42010153          	fcvt.d.s	ft2,ft2
    800001a8:	e2010553          	fmv.x.d	a0,ft2
    800001ac:	000013b7          	lui	t2,0x1
    800001b0:	fff3839b          	addiw	t2,t2,-1
    800001b4:	03339393          	slli	t2,t2,0x33
    800001b8:	00c00193          	li	gp,12
    800001bc:	00751463          	bne	a0,t2,800001c4 <fail>
    800001c0:	00301663          	bne	zero,gp,800001cc <pass>

00000000800001c4 <fail>:
    800001c4:	00100513          	li	a0,1
    800001c8:	00c0006f          	j	800001d4 <halt>

00000000800001cc <pass>:
    800001cc:	00000513          	li	a0,0
    800001d0:	0040006f          	j	800001d4 <halt>

00000000800001d4 <halt>:
    800001d4:	0000006f          	j	800001d4 <halt>
    800001d8:	0000                	unimp
    800001da:	0000                	unimp
    800001dc:	0000                	unimp
    800001de:	0000                	unimp
    800001e0:	0000                	unimp
    800001e2:	0000                	unimp
    800001e4:	0000                	unimp
    800001e6:	0000                	unimp
    800001e8:	0000                	unimp
    800001ea:	0000                	unimp
    800001ec:	0000                	unimp
    800001ee:	0000                	unimp
    800001f0:	0000                	unimp
    800001f2:	0000                	unimp
    800001f4:	0000                	unimp
    800001f6:	0000                	unimp
    800001f8:	0000                	unimp
    800001fa:	0000                	unimp
    800001fc:	0000                	unimp
    800001fe:	0000                	unimp
    80000200:	0000                	unimp
    80000202:	0000                	unimp
