
rv64ud-p-fclass:     file format elf64-littleriscv


Disassembly of section .text.init:

0000000080000000 <_start>:
    80000000:	fff0051b          	addiw	a0,zero,-1
    80000004:	03451513          	slli	a0,a0,0x34
    80000008:	f2050553          	fmv.d.x	fa0,a0
    8000000c:	e2051553          	fclass.d	a0,fa0
    80000010:	00100393          	li	t2,1
    80000014:	00200193          	li	gp,2
    80000018:	10751863          	bne	a0,t2,80000128 <fail>

000000008000001c <test_3>:
    8000001c:	bff0051b          	addiw	a0,zero,-1025
    80000020:	03451513          	slli	a0,a0,0x34
    80000024:	f2050553          	fmv.d.x	fa0,a0
    80000028:	e2051553          	fclass.d	a0,fa0
    8000002c:	00200393          	li	t2,2
    80000030:	00300193          	li	gp,3
    80000034:	0e751a63          	bne	a0,t2,80000128 <fail>

0000000080000038 <test_4>:
    80000038:	8010051b          	addiw	a0,zero,-2047
    8000003c:	03451513          	slli	a0,a0,0x34
    80000040:	fff50513          	addi	a0,a0,-1
    80000044:	f2050553          	fmv.d.x	fa0,a0
    80000048:	e2051553          	fclass.d	a0,fa0
    8000004c:	00400393          	li	t2,4
    80000050:	00400193          	li	gp,4
    80000054:	0c751a63          	bne	a0,t2,80000128 <fail>

0000000080000058 <test_5>:
    80000058:	fff0051b          	addiw	a0,zero,-1
    8000005c:	03f51513          	slli	a0,a0,0x3f
    80000060:	f2050553          	fmv.d.x	fa0,a0
    80000064:	e2051553          	fclass.d	a0,fa0
    80000068:	00800393          	li	t2,8
    8000006c:	00500193          	li	gp,5
    80000070:	0a751c63          	bne	a0,t2,80000128 <fail>

0000000080000074 <test_6>:
    80000074:	00000513          	li	a0,0
    80000078:	f2050553          	fmv.d.x	fa0,a0
    8000007c:	e2051553          	fclass.d	a0,fa0
    80000080:	01000393          	li	t2,16
    80000084:	00600193          	li	gp,6
    80000088:	0a751063          	bne	a0,t2,80000128 <fail>

000000008000008c <test_7>:
    8000008c:	0010051b          	addiw	a0,zero,1
    80000090:	03451513          	slli	a0,a0,0x34
    80000094:	fff50513          	addi	a0,a0,-1
    80000098:	f2050553          	fmv.d.x	fa0,a0
    8000009c:	e2051553          	fclass.d	a0,fa0
    800000a0:	02000393          	li	t2,32
    800000a4:	00700193          	li	gp,7
    800000a8:	08751063          	bne	a0,t2,80000128 <fail>

00000000800000ac <test_8>:
    800000ac:	3ff0051b          	addiw	a0,zero,1023
    800000b0:	03451513          	slli	a0,a0,0x34
    800000b4:	f2050553          	fmv.d.x	fa0,a0
    800000b8:	e2051553          	fclass.d	a0,fa0
    800000bc:	04000393          	li	t2,64
    800000c0:	00800193          	li	gp,8
    800000c4:	06751263          	bne	a0,t2,80000128 <fail>

00000000800000c8 <test_9>:
    800000c8:	7ff0051b          	addiw	a0,zero,2047
    800000cc:	03451513          	slli	a0,a0,0x34
    800000d0:	f2050553          	fmv.d.x	fa0,a0
    800000d4:	e2051553          	fclass.d	a0,fa0
    800000d8:	08000393          	li	t2,128
    800000dc:	00900193          	li	gp,9
    800000e0:	04751463          	bne	a0,t2,80000128 <fail>

00000000800000e4 <test_10>:
    800000e4:	7ff0051b          	addiw	a0,zero,2047
    800000e8:	03451513          	slli	a0,a0,0x34
    800000ec:	00150513          	addi	a0,a0,1
    800000f0:	f2050553          	fmv.d.x	fa0,a0
    800000f4:	e2051553          	fclass.d	a0,fa0
    800000f8:	10000393          	li	t2,256
    800000fc:	00a00193          	li	gp,10
    80000100:	02751463          	bne	a0,t2,80000128 <fail>

0000000080000104 <test_11>:
    80000104:	00001537          	lui	a0,0x1
    80000108:	fff5051b          	addiw	a0,a0,-1
    8000010c:	03351513          	slli	a0,a0,0x33
    80000110:	f2050553          	fmv.d.x	fa0,a0
    80000114:	e2051553          	fclass.d	a0,fa0
    80000118:	20000393          	li	t2,512
    8000011c:	00b00193          	li	gp,11
    80000120:	00751463          	bne	a0,t2,80000128 <fail>
    80000124:	00301663          	bne	zero,gp,80000130 <pass>

0000000080000128 <fail>:
    80000128:	00100513          	li	a0,1
    8000012c:	00c0006f          	j	80000138 <halt>

0000000080000130 <pass>:
    80000130:	00000513          	li	a0,0
    80000134:	0040006f          	j	80000138 <halt>

0000000080000138 <halt>:
    80000138:	0000006f          	j	80000138 <halt>
    8000013c:	0000                	unimp
    8000013e:	0000                	unimp
    80000140:	0000                	unimp
    80000142:	0000                	unimp
