
rv64ud-p-structural:     file format elf64-littleriscv


Disassembly of section .text.init:

0000000080000000 <_start>:
    80000000:	00100613          	li	a2,1
    80000004:	3ff0011b          	addiw	sp,zero,1023
    80000008:	03411113          	slli	sp,sp,0x34
    8000000c:	3f8000b7          	lui	ra,0x3f800

0000000080000010 <test_1>:
    80000010:	00100193          	li	gp,1
    80000014:	f2000253          	fmv.d.x	ft4,zero
    80000018:	f00001d3          	fmv.w.x	ft3,zero
    8000001c:	f2010153          	fmv.d.x	ft2,sp
    80000020:	f00080d3          	fmv.w.x	ft1,ra
    80000024:	01c0006f          	j	80000040 <test_1+0x30>
    80000028:	00000013          	nop
    8000002c:	00000013          	nop
    80000030:	00000013          	nop
    80000034:	00000013          	nop
    80000038:	00000013          	nop
    8000003c:	00000013          	nop
    80000040:	12217253          	fmul.d	ft4,ft2,ft2
    80000044:	201081d3          	fmv.s	ft3,ft1
    80000048:	e2020253          	fmv.x.d	tp,ft4
    8000004c:	e00182d3          	fmv.x.w	t0,ft3
    80000050:	00508463          	beq	ra,t0,80000058 <test_1+0x48>
    80000054:	2500006f          	j	800002a4 <fail>
    80000058:	00410463          	beq	sp,tp,80000060 <test_1+0x50>
    8000005c:	2480006f          	j	800002a4 <fail>
    80000060:	f2000153          	fmv.d.x	ft2,zero
    80000064:	f00000d3          	fmv.w.x	ft1,zero

0000000080000068 <test_2>:
    80000068:	00200193          	li	gp,2
    8000006c:	f2000253          	fmv.d.x	ft4,zero
    80000070:	f00001d3          	fmv.w.x	ft3,zero
    80000074:	f2010153          	fmv.d.x	ft2,sp
    80000078:	f00080d3          	fmv.w.x	ft1,ra
    8000007c:	0040006f          	j	80000080 <test_2+0x18>
    80000080:	12217253          	fmul.d	ft4,ft2,ft2
    80000084:	00000013          	nop
    80000088:	201081d3          	fmv.s	ft3,ft1
    8000008c:	e2020253          	fmv.x.d	tp,ft4
    80000090:	e00182d3          	fmv.x.w	t0,ft3
    80000094:	00508463          	beq	ra,t0,8000009c <test_2+0x34>
    80000098:	20c0006f          	j	800002a4 <fail>
    8000009c:	00410463          	beq	sp,tp,800000a4 <test_2+0x3c>
    800000a0:	2040006f          	j	800002a4 <fail>
    800000a4:	f2000153          	fmv.d.x	ft2,zero
    800000a8:	f00000d3          	fmv.w.x	ft1,zero

00000000800000ac <test_3>:
    800000ac:	00300193          	li	gp,3
    800000b0:	f2000253          	fmv.d.x	ft4,zero
    800000b4:	f00001d3          	fmv.w.x	ft3,zero
    800000b8:	f2010153          	fmv.d.x	ft2,sp
    800000bc:	f00080d3          	fmv.w.x	ft1,ra
    800000c0:	0200006f          	j	800000e0 <test_3+0x34>
    800000c4:	00000013          	nop
    800000c8:	00000013          	nop
    800000cc:	00000013          	nop
    800000d0:	00000013          	nop
    800000d4:	00000013          	nop
    800000d8:	00000013          	nop
    800000dc:	00000013          	nop
    800000e0:	12217253          	fmul.d	ft4,ft2,ft2
    800000e4:	00000013          	nop
    800000e8:	00000013          	nop
    800000ec:	201081d3          	fmv.s	ft3,ft1
    800000f0:	e2020253          	fmv.x.d	tp,ft4
    800000f4:	e00182d3          	fmv.x.w	t0,ft3
    800000f8:	00508463          	beq	ra,t0,80000100 <test_3+0x54>
    800000fc:	1a80006f          	j	800002a4 <fail>
    80000100:	00410463          	beq	sp,tp,80000108 <test_3+0x5c>
    80000104:	1a00006f          	j	800002a4 <fail>
    80000108:	f2000153          	fmv.d.x	ft2,zero
    8000010c:	f00000d3          	fmv.w.x	ft1,zero

0000000080000110 <test_4>:
    80000110:	00400193          	li	gp,4
    80000114:	f2000253          	fmv.d.x	ft4,zero
    80000118:	f00001d3          	fmv.w.x	ft3,zero
    8000011c:	f2010153          	fmv.d.x	ft2,sp
    80000120:	f00080d3          	fmv.w.x	ft1,ra
    80000124:	01c0006f          	j	80000140 <test_4+0x30>
    80000128:	00000013          	nop
    8000012c:	00000013          	nop
    80000130:	00000013          	nop
    80000134:	00000013          	nop
    80000138:	00000013          	nop
    8000013c:	00000013          	nop
    80000140:	12217253          	fmul.d	ft4,ft2,ft2
    80000144:	00000013          	nop
    80000148:	00000013          	nop
    8000014c:	00000013          	nop
    80000150:	201081d3          	fmv.s	ft3,ft1
    80000154:	e2020253          	fmv.x.d	tp,ft4
    80000158:	e00182d3          	fmv.x.w	t0,ft3
    8000015c:	00508463          	beq	ra,t0,80000164 <test_4+0x54>
    80000160:	1440006f          	j	800002a4 <fail>
    80000164:	00410463          	beq	sp,tp,8000016c <test_4+0x5c>
    80000168:	13c0006f          	j	800002a4 <fail>
    8000016c:	f2000153          	fmv.d.x	ft2,zero
    80000170:	f00000d3          	fmv.w.x	ft1,zero

0000000080000174 <test_5>:
    80000174:	00500193          	li	gp,5
    80000178:	f2000253          	fmv.d.x	ft4,zero
    8000017c:	f00001d3          	fmv.w.x	ft3,zero
    80000180:	f2010153          	fmv.d.x	ft2,sp
    80000184:	f00080d3          	fmv.w.x	ft1,ra
    80000188:	0180006f          	j	800001a0 <test_5+0x2c>
    8000018c:	00000013          	nop
    80000190:	00000013          	nop
    80000194:	00000013          	nop
    80000198:	00000013          	nop
    8000019c:	00000013          	nop
    800001a0:	12217253          	fmul.d	ft4,ft2,ft2
    800001a4:	00000013          	nop
    800001a8:	00000013          	nop
    800001ac:	00000013          	nop
    800001b0:	00000013          	nop
    800001b4:	201081d3          	fmv.s	ft3,ft1
    800001b8:	e2020253          	fmv.x.d	tp,ft4
    800001bc:	e00182d3          	fmv.x.w	t0,ft3
    800001c0:	00508463          	beq	ra,t0,800001c8 <test_5+0x54>
    800001c4:	0e00006f          	j	800002a4 <fail>
    800001c8:	00410463          	beq	sp,tp,800001d0 <test_5+0x5c>
    800001cc:	0d80006f          	j	800002a4 <fail>
    800001d0:	f2000153          	fmv.d.x	ft2,zero
    800001d4:	f00000d3          	fmv.w.x	ft1,zero

00000000800001d8 <test_6>:
    800001d8:	00600193          	li	gp,6
    800001dc:	f2000253          	fmv.d.x	ft4,zero
    800001e0:	f00001d3          	fmv.w.x	ft3,zero
    800001e4:	f2010153          	fmv.d.x	ft2,sp
    800001e8:	f00080d3          	fmv.w.x	ft1,ra
    800001ec:	0140006f          	j	80000200 <test_6+0x28>
    800001f0:	00000013          	nop
    800001f4:	00000013          	nop
    800001f8:	00000013          	nop
    800001fc:	00000013          	nop
    80000200:	12217253          	fmul.d	ft4,ft2,ft2
    80000204:	00000013          	nop
    80000208:	00000013          	nop
    8000020c:	00000013          	nop
    80000210:	00000013          	nop
    80000214:	00000013          	nop
    80000218:	201081d3          	fmv.s	ft3,ft1
    8000021c:	e2020253          	fmv.x.d	tp,ft4
    80000220:	e00182d3          	fmv.x.w	t0,ft3
    80000224:	00508463          	beq	ra,t0,8000022c <test_6+0x54>
    80000228:	07c0006f          	j	800002a4 <fail>
    8000022c:	00410463          	beq	sp,tp,80000234 <test_6+0x5c>
    80000230:	0740006f          	j	800002a4 <fail>
    80000234:	f2000153          	fmv.d.x	ft2,zero
    80000238:	f00000d3          	fmv.w.x	ft1,zero

000000008000023c <test_7>:
    8000023c:	00700193          	li	gp,7
    80000240:	f2000253          	fmv.d.x	ft4,zero
    80000244:	f00001d3          	fmv.w.x	ft3,zero
    80000248:	f2010153          	fmv.d.x	ft2,sp
    8000024c:	f00080d3          	fmv.w.x	ft1,ra
    80000250:	0100006f          	j	80000260 <test_7+0x24>
    80000254:	00000013          	nop
    80000258:	00000013          	nop
    8000025c:	00000013          	nop
    80000260:	12217253          	fmul.d	ft4,ft2,ft2
    80000264:	00000013          	nop
    80000268:	00000013          	nop
    8000026c:	00000013          	nop
    80000270:	00000013          	nop
    80000274:	00000013          	nop
    80000278:	00000013          	nop
    8000027c:	201081d3          	fmv.s	ft3,ft1
    80000280:	e2020253          	fmv.x.d	tp,ft4
    80000284:	e00182d3          	fmv.x.w	t0,ft3
    80000288:	00508463          	beq	ra,t0,80000290 <test_7+0x54>
    8000028c:	0180006f          	j	800002a4 <fail>
    80000290:	00410463          	beq	sp,tp,80000298 <test_7+0x5c>
    80000294:	0100006f          	j	800002a4 <fail>
    80000298:	f2000153          	fmv.d.x	ft2,zero
    8000029c:	f00000d3          	fmv.w.x	ft1,zero
    800002a0:	00301663          	bne	zero,gp,800002ac <pass>

00000000800002a4 <fail>:
    800002a4:	00100513          	li	a0,1
    800002a8:	00c0006f          	j	800002b4 <halt>

00000000800002ac <pass>:
    800002ac:	00000513          	li	a0,0
    800002b0:	0040006f          	j	800002b4 <halt>

00000000800002b4 <halt>:
    800002b4:	0000006f          	j	800002b4 <halt>
    800002b8:	0000                	unimp
    800002ba:	0000                	unimp
