
rv64ud-p-fcmp:     file format elf64-littleriscv


Disassembly of section .text.init:

0000000080000000 <_start>:
    80000000:	00200193          	li	gp,2
    80000004:	00002517          	auipc	a0,0x2
    80000008:	ffc50513          	addi	a0,a0,-4 # 80002000 <test_2_data>
    8000000c:	00053007          	fld	ft0,0(a0)
    80000010:	00853087          	fld	ft1,8(a0)
    80000014:	01053107          	fld	ft2,16(a0)
    80000018:	01853683          	ld	a3,24(a0)
    8000001c:	a2102553          	feq.d	a0,ft0,ft1
    80000020:	001015f3          	fsflags	a1,zero
    80000024:	00000613          	li	a2,0
    80000028:	2ad51663          	bne	a0,a3,800002d4 <fail>
    8000002c:	2ac59463          	bne	a1,a2,800002d4 <fail>

0000000080000030 <test_3>:
    80000030:	00300193          	li	gp,3
    80000034:	00002517          	auipc	a0,0x2
    80000038:	fec50513          	addi	a0,a0,-20 # 80002020 <test_3_data>
    8000003c:	00053007          	fld	ft0,0(a0)
    80000040:	00853087          	fld	ft1,8(a0)
    80000044:	01053107          	fld	ft2,16(a0)
    80000048:	01853683          	ld	a3,24(a0)
    8000004c:	a2100553          	fle.d	a0,ft0,ft1
    80000050:	001015f3          	fsflags	a1,zero
    80000054:	00000613          	li	a2,0
    80000058:	26d51e63          	bne	a0,a3,800002d4 <fail>
    8000005c:	26c59c63          	bne	a1,a2,800002d4 <fail>

0000000080000060 <test_4>:
    80000060:	00400193          	li	gp,4
    80000064:	00002517          	auipc	a0,0x2
    80000068:	fdc50513          	addi	a0,a0,-36 # 80002040 <test_4_data>
    8000006c:	00053007          	fld	ft0,0(a0)
    80000070:	00853087          	fld	ft1,8(a0)
    80000074:	01053107          	fld	ft2,16(a0)
    80000078:	01853683          	ld	a3,24(a0)
    8000007c:	a2101553          	flt.d	a0,ft0,ft1
    80000080:	001015f3          	fsflags	a1,zero
    80000084:	00000613          	li	a2,0
    80000088:	24d51663          	bne	a0,a3,800002d4 <fail>
    8000008c:	24c59463          	bne	a1,a2,800002d4 <fail>

0000000080000090 <test_5>:
    80000090:	00500193          	li	gp,5
    80000094:	00002517          	auipc	a0,0x2
    80000098:	fcc50513          	addi	a0,a0,-52 # 80002060 <test_5_data>
    8000009c:	00053007          	fld	ft0,0(a0)
    800000a0:	00853087          	fld	ft1,8(a0)
    800000a4:	01053107          	fld	ft2,16(a0)
    800000a8:	01853683          	ld	a3,24(a0)
    800000ac:	a2102553          	feq.d	a0,ft0,ft1
    800000b0:	001015f3          	fsflags	a1,zero
    800000b4:	00000613          	li	a2,0
    800000b8:	20d51e63          	bne	a0,a3,800002d4 <fail>
    800000bc:	20c59c63          	bne	a1,a2,800002d4 <fail>

00000000800000c0 <test_6>:
    800000c0:	00600193          	li	gp,6
    800000c4:	00002517          	auipc	a0,0x2
    800000c8:	fbc50513          	addi	a0,a0,-68 # 80002080 <test_6_data>
    800000cc:	00053007          	fld	ft0,0(a0)
    800000d0:	00853087          	fld	ft1,8(a0)
    800000d4:	01053107          	fld	ft2,16(a0)
    800000d8:	01853683          	ld	a3,24(a0)
    800000dc:	a2100553          	fle.d	a0,ft0,ft1
    800000e0:	001015f3          	fsflags	a1,zero
    800000e4:	00000613          	li	a2,0
    800000e8:	1ed51663          	bne	a0,a3,800002d4 <fail>
    800000ec:	1ec59463          	bne	a1,a2,800002d4 <fail>

00000000800000f0 <test_7>:
    800000f0:	00700193          	li	gp,7
    800000f4:	00002517          	auipc	a0,0x2
    800000f8:	fac50513          	addi	a0,a0,-84 # 800020a0 <test_7_data>
    800000fc:	00053007          	fld	ft0,0(a0)
    80000100:	00853087          	fld	ft1,8(a0)
    80000104:	01053107          	fld	ft2,16(a0)
    80000108:	01853683          	ld	a3,24(a0)
    8000010c:	a2101553          	flt.d	a0,ft0,ft1
    80000110:	001015f3          	fsflags	a1,zero
    80000114:	00000613          	li	a2,0
    80000118:	1ad51e63          	bne	a0,a3,800002d4 <fail>
    8000011c:	1ac59c63          	bne	a1,a2,800002d4 <fail>

0000000080000120 <test_8>:
    80000120:	00800193          	li	gp,8
    80000124:	00002517          	auipc	a0,0x2
    80000128:	f9c50513          	addi	a0,a0,-100 # 800020c0 <test_8_data>
    8000012c:	00053007          	fld	ft0,0(a0)
    80000130:	00853087          	fld	ft1,8(a0)
    80000134:	01053107          	fld	ft2,16(a0)
    80000138:	01853683          	ld	a3,24(a0)
    8000013c:	a2102553          	feq.d	a0,ft0,ft1
    80000140:	001015f3          	fsflags	a1,zero
    80000144:	00000613          	li	a2,0
    80000148:	18d51663          	bne	a0,a3,800002d4 <fail>
    8000014c:	18c59463          	bne	a1,a2,800002d4 <fail>

0000000080000150 <test_9>:
    80000150:	00900193          	li	gp,9
    80000154:	00002517          	auipc	a0,0x2
    80000158:	f8c50513          	addi	a0,a0,-116 # 800020e0 <test_9_data>
    8000015c:	00053007          	fld	ft0,0(a0)
    80000160:	00853087          	fld	ft1,8(a0)
    80000164:	01053107          	fld	ft2,16(a0)
    80000168:	01853683          	ld	a3,24(a0)
    8000016c:	a2102553          	feq.d	a0,ft0,ft1
    80000170:	001015f3          	fsflags	a1,zero
    80000174:	00000613          	li	a2,0
    80000178:	14d51e63          	bne	a0,a3,800002d4 <fail>
    8000017c:	14c59c63          	bne	a1,a2,800002d4 <fail>

0000000080000180 <test_10>:
    80000180:	00a00193          	li	gp,10
    80000184:	00002517          	auipc	a0,0x2
    80000188:	f7c50513          	addi	a0,a0,-132 # 80002100 <test_10_data>
    8000018c:	00053007          	fld	ft0,0(a0)
    80000190:	00853087          	fld	ft1,8(a0)
    80000194:	01053107          	fld	ft2,16(a0)
    80000198:	01853683          	ld	a3,24(a0)
    8000019c:	a2102553          	feq.d	a0,ft0,ft1
    800001a0:	001015f3          	fsflags	a1,zero
    800001a4:	01000613          	li	a2,16
    800001a8:	12d51663          	bne	a0,a3,800002d4 <fail>
    800001ac:	12c59463          	bne	a1,a2,800002d4 <fail>

00000000800001b0 <test_11>:
    800001b0:	00b00193          	li	gp,11
    800001b4:	00002517          	auipc	a0,0x2
    800001b8:	f6c50513          	addi	a0,a0,-148 # 80002120 <test_11_data>
    800001bc:	00053007          	fld	ft0,0(a0)
    800001c0:	00853087          	fld	ft1,8(a0)
    800001c4:	01053107          	fld	ft2,16(a0)
    800001c8:	01853683          	ld	a3,24(a0)
    800001cc:	a2101553          	flt.d	a0,ft0,ft1
    800001d0:	001015f3          	fsflags	a1,zero
    800001d4:	01000613          	li	a2,16
    800001d8:	0ed51e63          	bne	a0,a3,800002d4 <fail>
    800001dc:	0ec59c63          	bne	a1,a2,800002d4 <fail>

00000000800001e0 <test_12>:
    800001e0:	00c00193          	li	gp,12
    800001e4:	00002517          	auipc	a0,0x2
    800001e8:	f5c50513          	addi	a0,a0,-164 # 80002140 <test_12_data>
    800001ec:	00053007          	fld	ft0,0(a0)
    800001f0:	00853087          	fld	ft1,8(a0)
    800001f4:	01053107          	fld	ft2,16(a0)
    800001f8:	01853683          	ld	a3,24(a0)
    800001fc:	a2101553          	flt.d	a0,ft0,ft1
    80000200:	001015f3          	fsflags	a1,zero
    80000204:	01000613          	li	a2,16
    80000208:	0cd51663          	bne	a0,a3,800002d4 <fail>
    8000020c:	0cc59463          	bne	a1,a2,800002d4 <fail>

0000000080000210 <test_13>:
    80000210:	00d00193          	li	gp,13
    80000214:	00002517          	auipc	a0,0x2
    80000218:	f4c50513          	addi	a0,a0,-180 # 80002160 <test_13_data>
    8000021c:	00053007          	fld	ft0,0(a0)
    80000220:	00853087          	fld	ft1,8(a0)
    80000224:	01053107          	fld	ft2,16(a0)
    80000228:	01853683          	ld	a3,24(a0)
    8000022c:	a2101553          	flt.d	a0,ft0,ft1
    80000230:	001015f3          	fsflags	a1,zero
    80000234:	01000613          	li	a2,16
    80000238:	08d51e63          	bne	a0,a3,800002d4 <fail>
    8000023c:	08c59c63          	bne	a1,a2,800002d4 <fail>

0000000080000240 <test_14>:
    80000240:	00e00193          	li	gp,14
    80000244:	00002517          	auipc	a0,0x2
    80000248:	f3c50513          	addi	a0,a0,-196 # 80002180 <test_14_data>
    8000024c:	00053007          	fld	ft0,0(a0)
    80000250:	00853087          	fld	ft1,8(a0)
    80000254:	01053107          	fld	ft2,16(a0)
    80000258:	01853683          	ld	a3,24(a0)
    8000025c:	a2100553          	fle.d	a0,ft0,ft1
    80000260:	001015f3          	fsflags	a1,zero
    80000264:	01000613          	li	a2,16
    80000268:	06d51663          	bne	a0,a3,800002d4 <fail>
    8000026c:	06c59463          	bne	a1,a2,800002d4 <fail>

0000000080000270 <test_15>:
    80000270:	00f00193          	li	gp,15
    80000274:	00002517          	auipc	a0,0x2
    80000278:	f2c50513          	addi	a0,a0,-212 # 800021a0 <test_15_data>
    8000027c:	00053007          	fld	ft0,0(a0)
    80000280:	00853087          	fld	ft1,8(a0)
    80000284:	01053107          	fld	ft2,16(a0)
    80000288:	01853683          	ld	a3,24(a0)
    8000028c:	a2100553          	fle.d	a0,ft0,ft1
    80000290:	001015f3          	fsflags	a1,zero
    80000294:	01000613          	li	a2,16
    80000298:	02d51e63          	bne	a0,a3,800002d4 <fail>
    8000029c:	02c59c63          	bne	a1,a2,800002d4 <fail>

00000000800002a0 <test_16>:
    800002a0:	01000193          	li	gp,16
    800002a4:	00002517          	auipc	a0,0x2
    800002a8:	f1c50513          	addi	a0,a0,-228 # 800021c0 <test_16_data>
    800002ac:	00053007          	fld	ft0,0(a0)
    800002b0:	00853087          	fld	ft1,8(a0)
    800002b4:	01053107          	fld	ft2,16(a0)
    800002b8:	01853683          	ld	a3,24(a0)
    800002bc:	a2100553          	fle.d	a0,ft0,ft1
    800002c0:	001015f3          	fsflags	a1,zero
    800002c4:	01000613          	li	a2,16
    800002c8:	00d51663          	bne	a0,a3,800002d4 <fail>
    800002cc:	00c59463          	bne	a1,a2,800002d4 <fail>
    800002d0:	00301663          	bne	zero,gp,800002dc <pass>

00000000800002d4 <fail>:
    800002d4:	00100513          	li	a0,1
    800002d8:	00c0006f          	j	800002e4 <halt>

00000000800002dc <pass>:
    800002dc:	00000513          	li	a0,0
    800002e0:	0040006f          	j	800002e4 <halt>

00000000800002e4 <halt>:
    800002e4:	0000006f          	j	800002e4 <halt>
    800002e8:	0000                	unimp
    800002ea:	0000                	unimp
    800002ec:	0000                	unimp
    800002ee:	0000                	unimp
    800002f0:	0000                	unimp
    800002f2:	0000                	unimp
    800002f4:	0000                	unimp
    800002f6:	0000                	unimp
    800002f8:	0000                	unimp
    800002fa:	0000                	unimp
    800002fc:	0000                	unimp
    800002fe:	0000                	unimp
    80000300:	0000                	unimp
    80000302:	0000                	unimp
