
rv64ud-p-recoding:     file format elf64-littleriscv


Disassembly of section .text.init:

0000000080000000 <_start>:
    80000000:	00002517          	auipc	a0,0x2
    80000004:	00053007          	fld	ft0,0(a0) # 80002000 <begin_signature>
    80000008:	00002517          	auipc	a0,0x2
    8000000c:	00053087          	fld	ft1,0(a0) # 80002008 <three>
    80000010:	1200f0d3          	fmul.d	ft1,ft1,ft0

0000000080000014 <test_2>:
    80000014:	a2102553          	feq.d	a0,ft0,ft1
    80000018:	00100393          	li	t2,1
    8000001c:	00200193          	li	gp,2
    80000020:	0c751663          	bne	a0,t2,800000ec <fail>

0000000080000024 <test_3>:
    80000024:	a2100553          	fle.d	a0,ft0,ft1
    80000028:	00100393          	li	t2,1
    8000002c:	00300193          	li	gp,3
    80000030:	0a751e63          	bne	a0,t2,800000ec <fail>

0000000080000034 <test_4>:
    80000034:	a2101553          	flt.d	a0,ft0,ft1
    80000038:	00000393          	li	t2,0
    8000003c:	00400193          	li	gp,4
    80000040:	0a751663          	bne	a0,t2,800000ec <fail>
    80000044:	d2000053          	fcvt.d.w	ft0,zero
    80000048:	00100513          	li	a0,1
    8000004c:	d20500d3          	fcvt.d.w	ft1,a0
    80000050:	1200f0d3          	fmul.d	ft1,ft1,ft0

0000000080000054 <test_5>:
    80000054:	a2102553          	feq.d	a0,ft0,ft1
    80000058:	00100393          	li	t2,1
    8000005c:	00500193          	li	gp,5
    80000060:	08751663          	bne	a0,t2,800000ec <fail>

0000000080000064 <test_6>:
    80000064:	a2100553          	fle.d	a0,ft0,ft1
    80000068:	00100393          	li	t2,1
    8000006c:	00600193          	li	gp,6
    80000070:	06751e63          	bne	a0,t2,800000ec <fail>

0000000080000074 <test_7>:
    80000074:	a2101553          	flt.d	a0,ft0,ft1
    80000078:	00000393          	li	t2,0
    8000007c:	00700193          	li	gp,7
    80000080:	06751663          	bne	a0,t2,800000ec <fail>
    80000084:	00002517          	auipc	a0,0x2
    80000088:	f8c52007          	flw	ft0,-116(a0) # 80002010 <big>
    8000008c:	00002517          	auipc	a0,0x2
    80000090:	f8c53087          	fld	ft1,-116(a0) # 80002018 <tiny>
    80000094:	4010f0d3          	fcvt.s.d	ft1,ft1
    80000098:	10107053          	fmul.s	ft0,ft0,ft1
    8000009c:	e0000553          	fmv.x.w	a0,ft0
    800000a0:	00002597          	auipc	a1,0x2
    800000a4:	f745a583          	lw	a1,-140(a1) # 80002014 <small>

00000000800000a8 <test_10>:
    800000a8:	40b50533          	sub	a0,a0,a1
    800000ac:	00000393          	li	t2,0
    800000b0:	00a00193          	li	gp,10
    800000b4:	02751c63          	bne	a0,t2,800000ec <fail>
    800000b8:	00002517          	auipc	a0,0x2
    800000bc:	f5052007          	flw	ft0,-176(a0) # 80002008 <three>
    800000c0:	000070d3          	fadd.s	ft1,ft0,ft0
    800000c4:	00007053          	fadd.s	ft0,ft0,ft0
    800000c8:	00002517          	auipc	a0,0x2
    800000cc:	f4053827          	fsd	ft0,-176(a0) # 80002018 <tiny>
    800000d0:	00002517          	auipc	a0,0x2
    800000d4:	f4853007          	fld	ft0,-184(a0) # 80002018 <tiny>

00000000800000d8 <test_20>:
    800000d8:	a0102553          	feq.s	a0,ft0,ft1
    800000dc:	00100393          	li	t2,1
    800000e0:	01400193          	li	gp,20
    800000e4:	00751463          	bne	a0,t2,800000ec <fail>
    800000e8:	00301663          	bne	zero,gp,800000f4 <pass>

00000000800000ec <fail>:
    800000ec:	00100513          	li	a0,1
    800000f0:	00c0006f          	j	800000fc <halt>

00000000800000f4 <pass>:
    800000f4:	00000513          	li	a0,0
    800000f8:	0040006f          	j	800000fc <halt>

00000000800000fc <halt>:
    800000fc:	0000006f          	j	800000fc <halt>
    80000100:	0000                	unimp
    80000102:	0000                	unimp
