
rv64ud-p-fadd:     file format elf64-littleriscv


Disassembly of section .text.init:

0000000080000000 <_start>:
    80000000:	00200193          	li	gp,2
    80000004:	00002517          	auipc	a0,0x2
    80000008:	ffc50513          	addi	a0,a0,-4 # 80002000 <test_2_data>
    8000000c:	00053007          	fld	ft0,0(a0)
    80000010:	00853087          	fld	ft1,8(a0)
    80000014:	01053107          	fld	ft2,16(a0)
    80000018:	01853683          	ld	a3,24(a0)
    8000001c:	021071d3          	fadd.d	ft3,ft0,ft1
    80000020:	e2018553          	fmv.x.d	a0,ft3
    80000024:	001015f3          	fsflags	a1,zero
    80000028:	00000613          	li	a2,0
    8000002c:	1ed51063          	bne	a0,a3,8000020c <fail>
    80000030:	1cc59e63          	bne	a1,a2,8000020c <fail>

0000000080000034 <test_3>:
    80000034:	00300193          	li	gp,3
    80000038:	00002517          	auipc	a0,0x2
    8000003c:	fe850513          	addi	a0,a0,-24 # 80002020 <test_3_data>
    80000040:	00053007          	fld	ft0,0(a0)
    80000044:	00853087          	fld	ft1,8(a0)
    80000048:	01053107          	fld	ft2,16(a0)
    8000004c:	01853683          	ld	a3,24(a0)
    80000050:	021071d3          	fadd.d	ft3,ft0,ft1
    80000054:	e2018553          	fmv.x.d	a0,ft3
    80000058:	001015f3          	fsflags	a1,zero
    8000005c:	00100613          	li	a2,1
    80000060:	1ad51663          	bne	a0,a3,8000020c <fail>
    80000064:	1ac59463          	bne	a1,a2,8000020c <fail>

0000000080000068 <test_4>:
    80000068:	00400193          	li	gp,4
    8000006c:	00002517          	auipc	a0,0x2
    80000070:	fd450513          	addi	a0,a0,-44 # 80002040 <test_4_data>
    80000074:	00053007          	fld	ft0,0(a0)
    80000078:	00853087          	fld	ft1,8(a0)
    8000007c:	01053107          	fld	ft2,16(a0)
    80000080:	01853683          	ld	a3,24(a0)
    80000084:	021071d3          	fadd.d	ft3,ft0,ft1
    80000088:	e2018553          	fmv.x.d	a0,ft3
    8000008c:	001015f3          	fsflags	a1,zero
    80000090:	00100613          	li	a2,1
    80000094:	16d51c63          	bne	a0,a3,8000020c <fail>
    80000098:	16c59a63          	bne	a1,a2,8000020c <fail>

000000008000009c <test_5>:
    8000009c:	00500193          	li	gp,5
    800000a0:	00002517          	auipc	a0,0x2
    800000a4:	fc050513          	addi	a0,a0,-64 # 80002060 <test_5_data>
    800000a8:	00053007          	fld	ft0,0(a0)
    800000ac:	00853087          	fld	ft1,8(a0)
    800000b0:	01053107          	fld	ft2,16(a0)
    800000b4:	01853683          	ld	a3,24(a0)
    800000b8:	0a1071d3          	fsub.d	ft3,ft0,ft1
    800000bc:	e2018553          	fmv.x.d	a0,ft3
    800000c0:	001015f3          	fsflags	a1,zero
    800000c4:	00000613          	li	a2,0
    800000c8:	14d51263          	bne	a0,a3,8000020c <fail>
    800000cc:	14c59063          	bne	a1,a2,8000020c <fail>

00000000800000d0 <test_6>:
    800000d0:	00600193          	li	gp,6
    800000d4:	00002517          	auipc	a0,0x2
    800000d8:	fac50513          	addi	a0,a0,-84 # 80002080 <test_6_data>
    800000dc:	00053007          	fld	ft0,0(a0)
    800000e0:	00853087          	fld	ft1,8(a0)
    800000e4:	01053107          	fld	ft2,16(a0)
    800000e8:	01853683          	ld	a3,24(a0)
    800000ec:	0a1071d3          	fsub.d	ft3,ft0,ft1
    800000f0:	e2018553          	fmv.x.d	a0,ft3
    800000f4:	001015f3          	fsflags	a1,zero
    800000f8:	00100613          	li	a2,1
    800000fc:	10d51863          	bne	a0,a3,8000020c <fail>
    80000100:	10c59663          	bne	a1,a2,8000020c <fail>

0000000080000104 <test_7>:
    80000104:	00700193          	li	gp,7
    80000108:	00002517          	auipc	a0,0x2
    8000010c:	f9850513          	addi	a0,a0,-104 # 800020a0 <test_7_data>
    80000110:	00053007          	fld	ft0,0(a0)
    80000114:	00853087          	fld	ft1,8(a0)
    80000118:	01053107          	fld	ft2,16(a0)
    8000011c:	01853683          	ld	a3,24(a0)
    80000120:	0a1071d3          	fsub.d	ft3,ft0,ft1
    80000124:	e2018553          	fmv.x.d	a0,ft3
    80000128:	001015f3          	fsflags	a1,zero
    8000012c:	00100613          	li	a2,1
    80000130:	0cd51e63          	bne	a0,a3,8000020c <fail>
    80000134:	0cc59c63          	bne	a1,a2,8000020c <fail>

0000000080000138 <test_8>:
    80000138:	00800193          	li	gp,8
    8000013c:	00002517          	auipc	a0,0x2
    80000140:	f8450513          	addi	a0,a0,-124 # 800020c0 <test_8_data>
    80000144:	00053007          	fld	ft0,0(a0)
    80000148:	00853087          	fld	ft1,8(a0)
    8000014c:	01053107          	fld	ft2,16(a0)
    80000150:	01853683          	ld	a3,24(a0)
    80000154:	121071d3          	fmul.d	ft3,ft0,ft1
    80000158:	e2018553          	fmv.x.d	a0,ft3
    8000015c:	001015f3          	fsflags	a1,zero
    80000160:	00000613          	li	a2,0
    80000164:	0ad51463          	bne	a0,a3,8000020c <fail>
    80000168:	0ac59263          	bne	a1,a2,8000020c <fail>

000000008000016c <test_9>:
    8000016c:	00900193          	li	gp,9
    80000170:	00002517          	auipc	a0,0x2
    80000174:	f7050513          	addi	a0,a0,-144 # 800020e0 <test_9_data>
    80000178:	00053007          	fld	ft0,0(a0)
    8000017c:	00853087          	fld	ft1,8(a0)
    80000180:	01053107          	fld	ft2,16(a0)
    80000184:	01853683          	ld	a3,24(a0)
    80000188:	121071d3          	fmul.d	ft3,ft0,ft1
    8000018c:	e2018553          	fmv.x.d	a0,ft3
    80000190:	001015f3          	fsflags	a1,zero
    80000194:	00100613          	li	a2,1
    80000198:	06d51a63          	bne	a0,a3,8000020c <fail>
    8000019c:	06c59863          	bne	a1,a2,8000020c <fail>

00000000800001a0 <test_10>:
    800001a0:	00a00193          	li	gp,10
    800001a4:	00002517          	auipc	a0,0x2
    800001a8:	f5c50513          	addi	a0,a0,-164 # 80002100 <test_10_data>
    800001ac:	00053007          	fld	ft0,0(a0)
    800001b0:	00853087          	fld	ft1,8(a0)
    800001b4:	01053107          	fld	ft2,16(a0)
    800001b8:	01853683          	ld	a3,24(a0)
    800001bc:	121071d3          	fmul.d	ft3,ft0,ft1
    800001c0:	e2018553          	fmv.x.d	a0,ft3
    800001c4:	001015f3          	fsflags	a1,zero
    800001c8:	00100613          	li	a2,1
    800001cc:	04d51063          	bne	a0,a3,8000020c <fail>
    800001d0:	02c59e63          	bne	a1,a2,8000020c <fail>

00000000800001d4 <test_11>:
    800001d4:	00b00193          	li	gp,11
    800001d8:	00002517          	auipc	a0,0x2
    800001dc:	f4850513          	addi	a0,a0,-184 # 80002120 <test_11_data>
    800001e0:	00053007          	fld	ft0,0(a0)
    800001e4:	00853087          	fld	ft1,8(a0)
    800001e8:	01053107          	fld	ft2,16(a0)
    800001ec:	01853683          	ld	a3,24(a0)
    800001f0:	0a1071d3          	fsub.d	ft3,ft0,ft1
    800001f4:	e2018553          	fmv.x.d	a0,ft3
    800001f8:	001015f3          	fsflags	a1,zero
    800001fc:	01000613          	li	a2,16
    80000200:	00d51663          	bne	a0,a3,8000020c <fail>
    80000204:	00c59463          	bne	a1,a2,8000020c <fail>
    80000208:	00301663          	bne	zero,gp,80000214 <pass>

000000008000020c <fail>:
    8000020c:	00100513          	li	a0,1
    80000210:	00c0006f          	j	8000021c <halt>

0000000080000214 <pass>:
    80000214:	00000513          	li	a0,0
    80000218:	0040006f          	j	8000021c <halt>

000000008000021c <halt>:
    8000021c:	0000006f          	j	8000021c <halt>
    80000220:	0000                	unimp
    80000222:	0000                	unimp
    80000224:	0000                	unimp
    80000226:	0000                	unimp
    80000228:	0000                	unimp
    8000022a:	0000                	unimp
    8000022c:	0000                	unimp
    8000022e:	0000                	unimp
    80000230:	0000                	unimp
    80000232:	0000                	unimp
    80000234:	0000                	unimp
    80000236:	0000                	unimp
    80000238:	0000                	unimp
    8000023a:	0000                	unimp
    8000023c:	0000                	unimp
    8000023e:	0000                	unimp
    80000240:	0000                	unimp
    80000242:	0000                	unimp

Disassembly of section .data:

0000000080002000 <test_2_data>:
    80002000:	0000                	unimp
    80002002:	0000                	unimp
    80002004:	0000                	unimp
    80002006:	4004                	lw	s1,0(s0)
    80002008:	0000                	unimp
    8000200a:	0000                	unimp
    8000200c:	0000                	unimp
    8000200e:	3ff0                	fld	fa2,248(a5)
    80002010:	0000                	unimp
    80002012:	0000                	unimp
    80002014:	0000                	unimp
    80002016:	0000                	unimp
    80002018:	0000                	unimp
    8000201a:	0000                	unimp
    8000201c:	0000                	unimp
    8000201e:	400c                	lw	a1,0(s0)

0000000080002020 <test_3_data>:
    80002020:	6666                	ld	a2,88(sp)
    80002022:	6666                	ld	a2,88(sp)
    80002024:	4c66                	lw	s8,88(sp)
    80002026:	999ac093          	xori	ra,s5,-1639
    8000202a:	9999                	andi	a1,a1,-26
    8000202c:	9999                	andi	a1,a1,-26
    8000202e:	3ff1                	addiw	t6,t6,-4
    80002030:	0000                	unimp
    80002032:	0000                	unimp
    80002034:	0000                	unimp
    80002036:	0000                	unimp
    80002038:	0000                	unimp
    8000203a:	0000                	unimp
    8000203c:	4800                	lw	s0,16(s0)
    8000203e:	          	xori	ra,gp,-689

0000000080002040 <test_4_data>:
    80002040:	d4f1                	beqz	s1,8000200c <test_2_data+0xc>
    80002042:	53c8                	lw	a0,36(a5)
    80002044:	400921fb          	0x400921fb
    80002048:	8c3a                	mv	s8,a4
    8000204a:	e230                	sd	a2,64(a2)
    8000204c:	798e                	ld	s3,224(sp)
    8000204e:	3e45                	addiw	t3,t3,-15
    80002050:	0000                	unimp
    80002052:	0000                	unimp
    80002054:	0000                	unimp
    80002056:	0000                	unimp
    80002058:	6ddf 5520 21fb      	0x21fb55206ddf
    8000205e:	4009                	c.li	zero,2

0000000080002060 <test_5_data>:
    80002060:	0000                	unimp
    80002062:	0000                	unimp
    80002064:	0000                	unimp
    80002066:	4004                	lw	s1,0(s0)
    80002068:	0000                	unimp
    8000206a:	0000                	unimp
    8000206c:	0000                	unimp
    8000206e:	3ff0                	fld	fa2,248(a5)
    80002070:	0000                	unimp
    80002072:	0000                	unimp
    80002074:	0000                	unimp
    80002076:	0000                	unimp
    80002078:	0000                	unimp
    8000207a:	0000                	unimp
    8000207c:	0000                	unimp
    8000207e:	3ff8                	fld	fa4,248(a5)

0000000080002080 <test_6_data>:
    80002080:	6666                	ld	a2,88(sp)
    80002082:	6666                	ld	a2,88(sp)
    80002084:	4c66                	lw	s8,88(sp)
    80002086:	999ac093          	xori	ra,s5,-1639
    8000208a:	9999                	andi	a1,a1,-26
    8000208c:	9999                	andi	a1,a1,-26
    8000208e:	bff1                	j	8000206a <test_5_data+0xa>
    80002090:	0000                	unimp
    80002092:	0000                	unimp
    80002094:	0000                	unimp
    80002096:	0000                	unimp
    80002098:	0000                	unimp
    8000209a:	0000                	unimp
    8000209c:	4800                	lw	s0,16(s0)
    8000209e:	          	xori	ra,gp,-689

00000000800020a0 <test_7_data>:
    800020a0:	d4f1                	beqz	s1,8000206c <test_5_data+0xc>
    800020a2:	53c8                	lw	a0,36(a5)
    800020a4:	400921fb          	0x400921fb
    800020a8:	8c3a                	mv	s8,a4
    800020aa:	e230                	sd	a2,64(a2)
    800020ac:	798e                	ld	s3,224(sp)
    800020ae:	3e45                	addiw	t3,t3,-15
    800020b0:	0000                	unimp
    800020b2:	0000                	unimp
    800020b4:	0000                	unimp
    800020b6:	0000                	unimp
    800020b8:	52713c03          	ld	s8,1319(sp)
    800020bc:	400921fb          	0x400921fb

00000000800020c0 <test_8_data>:
    800020c0:	0000                	unimp
    800020c2:	0000                	unimp
    800020c4:	0000                	unimp
    800020c6:	4004                	lw	s1,0(s0)
    800020c8:	0000                	unimp
    800020ca:	0000                	unimp
    800020cc:	0000                	unimp
    800020ce:	3ff0                	fld	fa2,248(a5)
    800020d0:	0000                	unimp
    800020d2:	0000                	unimp
    800020d4:	0000                	unimp
    800020d6:	0000                	unimp
    800020d8:	0000                	unimp
    800020da:	0000                	unimp
    800020dc:	0000                	unimp
    800020de:	4004                	lw	s1,0(s0)

00000000800020e0 <test_9_data>:
    800020e0:	6666                	ld	a2,88(sp)
    800020e2:	6666                	ld	a2,88(sp)
    800020e4:	4c66                	lw	s8,88(sp)
    800020e6:	999ac093          	xori	ra,s5,-1639
    800020ea:	9999                	andi	a1,a1,-26
    800020ec:	9999                	andi	a1,a1,-26
    800020ee:	bff1                	j	800020ca <test_8_data+0xa>
    800020f0:	0000                	unimp
    800020f2:	0000                	unimp
    800020f4:	0000                	unimp
    800020f6:	0000                	unimp
    800020f8:	0a3d                	addi	s4,s4,15
    800020fa:	3a70a3d7          	0x3a70a3d7
    800020fe:	4095                	li	ra,5

0000000080002100 <test_10_data>:
    80002100:	d4f1                	beqz	s1,800020cc <test_8_data+0xc>
    80002102:	53c8                	lw	a0,36(a5)
    80002104:	400921fb          	0x400921fb
    80002108:	8c3a                	mv	s8,a4
    8000210a:	e230                	sd	a2,64(a2)
    8000210c:	798e                	ld	s3,224(sp)
    8000210e:	3e45                	addiw	t3,t3,-15
    80002110:	0000                	unimp
    80002112:	0000                	unimp
    80002114:	0000                	unimp
    80002116:	0000                	unimp
    80002118:	ff09                	bnez	a4,80002032 <test_3_data+0x12>
    8000211a:	a5c1                	j	800027da <_end+0x69a>
    8000211c:	ddc5                	beqz	a1,800020d4 <test_8_data+0x14>
    8000211e:	3e60                	fld	fs0,248(a2)

0000000080002120 <test_11_data>:
    80002120:	0000                	unimp
    80002122:	0000                	unimp
    80002124:	0000                	unimp
    80002126:	7ff0                	ld	a2,248(a5)
    80002128:	0000                	unimp
    8000212a:	0000                	unimp
    8000212c:	0000                	unimp
    8000212e:	7ff0                	ld	a2,248(a5)
    80002130:	0000                	unimp
    80002132:	0000                	unimp
    80002134:	0000                	unimp
    80002136:	0000                	unimp
    80002138:	0000                	unimp
    8000213a:	0000                	unimp
    8000213c:	0000                	unimp
    8000213e:	7ff8                	ld	a4,248(a5)
