
rv64ud-p-fadd:     file format elf64-littleriscv


Disassembly of section .text.init:

0000000080000000 <_start>:
    80000000:	00200193          	li	gp,2
    80000004:	00002517          	auipc	a0,0x2
    80000008:	ffc50513          	addi	a0,a0,-4 # 80002000 <test_2_data>
    8000000c:	00053007          	fld	ft0,0(a0)
    80000010:	00853087          	fld	ft1,8(a0)
    80000014:	01053107          	fld	ft2,16(a0)
    80000018:	01853683          	ld	a3,24(a0)
    8000001c:	021071d3          	fadd.d	ft3,ft0,ft1
    80000020:	e2018553          	fmv.x.d	a0,ft3
    80000024:	001015f3          	fsflags	a1,zero
    80000028:	00000613          	li	a2,0
    8000002c:	1ed51063          	bne	a0,a3,8000020c <fail>
    80000030:	1cc59e63          	bne	a1,a2,8000020c <fail>

0000000080000034 <test_3>:
    80000034:	00300193          	li	gp,3
    80000038:	00002517          	auipc	a0,0x2
    8000003c:	fe850513          	addi	a0,a0,-24 # 80002020 <test_3_data>
    80000040:	00053007          	fld	ft0,0(a0)
    80000044:	00853087          	fld	ft1,8(a0)
    80000048:	01053107          	fld	ft2,16(a0)
    8000004c:	01853683          	ld	a3,24(a0)
    80000050:	021071d3          	fadd.d	ft3,ft0,ft1
    80000054:	e2018553          	fmv.x.d	a0,ft3
    80000058:	001015f3          	fsflags	a1,zero
    8000005c:	00100613          	li	a2,1
    80000060:	1ad51663          	bne	a0,a3,8000020c <fail>
    80000064:	1ac59463          	bne	a1,a2,8000020c <fail>

0000000080000068 <test_4>:
    80000068:	00400193          	li	gp,4
    8000006c:	00002517          	auipc	a0,0x2
    80000070:	fd450513          	addi	a0,a0,-44 # 80002040 <test_4_data>
    80000074:	00053007          	fld	ft0,0(a0)
    80000078:	00853087          	fld	ft1,8(a0)
    8000007c:	01053107          	fld	ft2,16(a0)
    80000080:	01853683          	ld	a3,24(a0)
    80000084:	021071d3          	fadd.d	ft3,ft0,ft1
    80000088:	e2018553          	fmv.x.d	a0,ft3
    8000008c:	001015f3          	fsflags	a1,zero
    80000090:	00100613          	li	a2,1
    80000094:	16d51c63          	bne	a0,a3,8000020c <fail>
    80000098:	16c59a63          	bne	a1,a2,8000020c <fail>

000000008000009c <test_5>:
    8000009c:	00500193          	li	gp,5
    800000a0:	00002517          	auipc	a0,0x2
    800000a4:	fc050513          	addi	a0,a0,-64 # 80002060 <test_5_data>
    800000a8:	00053007          	fld	ft0,0(a0)
    800000ac:	00853087          	fld	ft1,8(a0)
    800000b0:	01053107          	fld	ft2,16(a0)
    800000b4:	01853683          	ld	a3,24(a0)
    800000b8:	0a1071d3          	fsub.d	ft3,ft0,ft1
    800000bc:	e2018553          	fmv.x.d	a0,ft3
    800000c0:	001015f3          	fsflags	a1,zero
    800000c4:	00000613          	li	a2,0
    800000c8:	14d51263          	bne	a0,a3,8000020c <fail>
    800000cc:	14c59063          	bne	a1,a2,8000020c <fail>

00000000800000d0 <test_6>:
    800000d0:	00600193          	li	gp,6
    800000d4:	00002517          	auipc	a0,0x2
    800000d8:	fac50513          	addi	a0,a0,-84 # 80002080 <test_6_data>
    800000dc:	00053007          	fld	ft0,0(a0)
    800000e0:	00853087          	fld	ft1,8(a0)
    800000e4:	01053107          	fld	ft2,16(a0)
    800000e8:	01853683          	ld	a3,24(a0)
    800000ec:	0a1071d3          	fsub.d	ft3,ft0,ft1
    800000f0:	e2018553          	fmv.x.d	a0,ft3
    800000f4:	001015f3          	fsflags	a1,zero
    800000f8:	00100613          	li	a2,1
    800000fc:	10d51863          	bne	a0,a3,8000020c <fail>
    80000100:	10c59663          	bne	a1,a2,8000020c <fail>

0000000080000104 <test_7>:
    80000104:	00700193          	li	gp,7
    80000108:	00002517          	auipc	a0,0x2
    8000010c:	f9850513          	addi	a0,a0,-104 # 800020a0 <test_7_data>
    80000110:	00053007          	fld	ft0,0(a0)
    80000114:	00853087          	fld	ft1,8(a0)
    80000118:	01053107          	fld	ft2,16(a0)
    8000011c:	01853683          	ld	a3,24(a0)
    80000120:	0a1071d3          	fsub.d	ft3,ft0,ft1
    80000124:	e2018553          	fmv.x.d	a0,ft3
    80000128:	001015f3          	fsflags	a1,zero
    8000012c:	00100613          	li	a2,1
    80000130:	0cd51e63          	bne	a0,a3,8000020c <fail>
    80000134:	0cc59c63          	bne	a1,a2,8000020c <fail>

0000000080000138 <test_8>:
    80000138:	00800193          	li	gp,8
    8000013c:	00002517          	auipc	a0,0x2
    80000140:	f8450513          	addi	a0,a0,-124 # 800020c0 <test_8_data>
    80000144:	00053007          	fld	ft0,0(a0)
    80000148:	00853087          	fld	ft1,8(a0)
    8000014c:	01053107          	fld	ft2,16(a0)
    80000150:	01853683          	ld	a3,24(a0)
    80000154:	121071d3          	fmul.d	ft3,ft0,ft1
    80000158:	e2018553          	fmv.x.d	a0,ft3
    8000015c:	001015f3          	fsflags	a1,zero
    80000160:	00000613          	li	a2,0
    80000164:	0ad51463          	bne	a0,a3,8000020c <fail>
    80000168:	0ac59263          	bne	a1,a2,8000020c <fail>

000000008000016c <test_9>:
    8000016c:	00900193          	li	gp,9
    80000170:	00002517          	auipc	a0,0x2
    80000174:	f7050513          	addi	a0,a0,-144 # 800020e0 <test_9_data>
    80000178:	00053007          	fld	ft0,0(a0)
    8000017c:	00853087          	fld	ft1,8(a0)
    80000180:	01053107          	fld	ft2,16(a0)
    80000184:	01853683          	ld	a3,24(a0)
    80000188:	121071d3          	fmul.d	ft3,ft0,ft1
    8000018c:	e2018553          	fmv.x.d	a0,ft3
    80000190:	001015f3          	fsflags	a1,zero
    80000194:	00100613          	li	a2,1
    80000198:	06d51a63          	bne	a0,a3,8000020c <fail>
    8000019c:	06c59863          	bne	a1,a2,8000020c <fail>

00000000800001a0 <test_10>:
    800001a0:	00a00193          	li	gp,10
    800001a4:	00002517          	auipc	a0,0x2
    800001a8:	f5c50513          	addi	a0,a0,-164 # 80002100 <test_10_data>
    800001ac:	00053007          	fld	ft0,0(a0)
    800001b0:	00853087          	fld	ft1,8(a0)
    800001b4:	01053107          	fld	ft2,16(a0)
    800001b8:	01853683          	ld	a3,24(a0)
    800001bc:	121071d3          	fmul.d	ft3,ft0,ft1
    800001c0:	e2018553          	fmv.x.d	a0,ft3
    800001c4:	001015f3          	fsflags	a1,zero
    800001c8:	00100613          	li	a2,1
    800001cc:	04d51063          	bne	a0,a3,8000020c <fail>
    800001d0:	02c59e63          	bne	a1,a2,8000020c <fail>

00000000800001d4 <test_11>:
    800001d4:	00b00193          	li	gp,11
    800001d8:	00002517          	auipc	a0,0x2
    800001dc:	f4850513          	addi	a0,a0,-184 # 80002120 <test_11_data>
    800001e0:	00053007          	fld	ft0,0(a0)
    800001e4:	00853087          	fld	ft1,8(a0)
    800001e8:	01053107          	fld	ft2,16(a0)
    800001ec:	01853683          	ld	a3,24(a0)
    800001f0:	0a1071d3          	fsub.d	ft3,ft0,ft1
    800001f4:	e2018553          	fmv.x.d	a0,ft3
    800001f8:	001015f3          	fsflags	a1,zero
    800001fc:	01000613          	li	a2,16
    80000200:	00d51663          	bne	a0,a3,8000020c <fail>
    80000204:	00c59463          	bne	a1,a2,8000020c <fail>
    80000208:	00301663          	bne	zero,gp,80000214 <pass>

000000008000020c <fail>:
    8000020c:	00100513          	li	a0,1
    80000210:	00c0006f          	j	8000021c <halt>

0000000080000214 <pass>:
    80000214:	00000513          	li	a0,0
    80000218:	0040006f          	j	8000021c <halt>

000000008000021c <halt>:
    8000021c:	0000006f          	j	8000021c <halt>
    80000220:	0000                	unimp
    80000222:	0000                	unimp
    80000224:	0000                	unimp
    80000226:	0000                	unimp
    80000228:	0000                	unimp
    8000022a:	0000                	unimp
    8000022c:	0000                	unimp
    8000022e:	0000                	unimp
    80000230:	0000                	unimp
    80000232:	0000                	unimp
    80000234:	0000                	unimp
    80000236:	0000                	unimp
    80000238:	0000                	unimp
    8000023a:	0000                	unimp
    8000023c:	0000                	unimp
    8000023e:	0000                	unimp
    80000240:	0000                	unimp
    80000242:	0000                	unimp
