
rv64ud-p-ldst:     file format elf64-littleriscv


Disassembly of section .text.init:

0000000080000000 <_start>:
    80000000:	00002417          	auipc	s0,0x2
    80000004:	00040413          	mv	s0,s0

0000000080000008 <test_2>:
    80000008:	00043107          	fld	ft2,0(s0) # 80002000 <begin_signature>
    8000000c:	00243827          	fsd	ft2,16(s0)
    80000010:	01043503          	ld	a0,16(s0)
    80000014:	0010039b          	addiw	t2,zero,1
    80000018:	02739393          	slli	t2,t2,0x27
    8000001c:	17f38393          	addi	t2,t2,383
    80000020:	01739393          	slli	t2,t2,0x17
    80000024:	00200193          	li	gp,2
    80000028:	08751863          	bne	a0,t2,800000b8 <fail>

000000008000002c <test_3>:
    8000002c:	00043107          	fld	ft2,0(s0)
    80000030:	00242827          	fsw	ft2,16(s0)
    80000034:	01043503          	ld	a0,16(s0)
    80000038:	0010039b          	addiw	t2,zero,1
    8000003c:	02739393          	slli	t2,t2,0x27
    80000040:	17f38393          	addi	t2,t2,383
    80000044:	01739393          	slli	t2,t2,0x17
    80000048:	00300193          	li	gp,3
    8000004c:	06751663          	bne	a0,t2,800000b8 <fail>

0000000080000050 <test_4>:
    80000050:	00042107          	flw	ft2,0(s0)
    80000054:	00242827          	fsw	ft2,16(s0)
    80000058:	01043503          	ld	a0,16(s0)
    8000005c:	0010039b          	addiw	t2,zero,1
    80000060:	02739393          	slli	t2,t2,0x27
    80000064:	17f38393          	addi	t2,t2,383
    80000068:	01739393          	slli	t2,t2,0x17
    8000006c:	00400193          	li	gp,4
    80000070:	04751463          	bne	a0,t2,800000b8 <fail>

0000000080000074 <test_5>:
    80000074:	00843107          	fld	ft2,8(s0)
    80000078:	00243827          	fsd	ft2,16(s0)
    8000007c:	01043503          	ld	a0,16(s0)
    80000080:	f810039b          	addiw	t2,zero,-127
    80000084:	02139393          	slli	t2,t2,0x21
    80000088:	10138393          	addi	t2,t2,257
    8000008c:	01639393          	slli	t2,t2,0x16
    80000090:	00500193          	li	gp,5
    80000094:	02751263          	bne	a0,t2,800000b8 <fail>

0000000080000098 <test_6>:
    80000098:	00842107          	flw	ft2,8(s0)
    8000009c:	00243827          	fsd	ft2,16(s0)
    800000a0:	01043503          	ld	a0,16(s0)
    800000a4:	d010039b          	addiw	t2,zero,-767
    800000a8:	01639393          	slli	t2,t2,0x16
    800000ac:	00600193          	li	gp,6
    800000b0:	00751463          	bne	a0,t2,800000b8 <fail>
    800000b4:	00301663          	bne	zero,gp,800000c0 <pass>

00000000800000b8 <fail>:
    800000b8:	00100513          	li	a0,1
    800000bc:	00c0006f          	j	800000c8 <halt>

00000000800000c0 <pass>:
    800000c0:	00000513          	li	a0,0
    800000c4:	0040006f          	j	800000c8 <halt>

00000000800000c8 <halt>:
    800000c8:	0000006f          	j	800000c8 <halt>
    800000cc:	0000                	unimp
    800000ce:	0000                	unimp
    800000d0:	0000                	unimp
    800000d2:	0000                	unimp
    800000d4:	0000                	unimp
    800000d6:	0000                	unimp
    800000d8:	0000                	unimp
    800000da:	0000                	unimp
    800000dc:	0000                	unimp
    800000de:	0000                	unimp
    800000e0:	0000                	unimp
    800000e2:	0000                	unimp
    800000e4:	0000                	unimp
    800000e6:	0000                	unimp
    800000e8:	0000                	unimp
    800000ea:	0000                	unimp
    800000ec:	0000                	unimp
    800000ee:	0000                	unimp
    800000f0:	0000                	unimp
    800000f2:	0000                	unimp
    800000f4:	0000                	unimp
    800000f6:	0000                	unimp
    800000f8:	0000                	unimp
    800000fa:	0000                	unimp
    800000fc:	0000                	unimp
    800000fe:	0000                	unimp
    80000100:	0000                	unimp
    80000102:	0000                	unimp

Disassembly of section .data:

0000000080002000 <begin_signature>:
    80002000:	0000                	unimp
    80002002:	bf80                	fsd	fs0,56(a5)
    80002004:	0000                	unimp
    80002006:	4000                	lw	s0,0(s0)
    80002008:	0000                	unimp
    8000200a:	4040                	lw	s0,4(s0)
    8000200c:	0000                	unimp
    8000200e:	c080                	sw	s0,0(s1)
    80002010:	deadbeef          	jal	t4,7ffdd5fa <_start-0x22a06>
    80002014:	babe                	fsd	fa5,368(sp)
    80002016:	cafe                	sw	t6,84(sp)
    80002018:	1dea                	slli	s11,s11,0x3a
    8000201a:	abad                	j	80002594 <_end+0x574>
    8000201c:	d00d                	beqz	s0,80001f3e <fromhost+0xefe>
    8000201e:	          	lui	t1,0x1
