
rv64uzbkb-p-packw:     file format elf64-littleriscv


Disassembly of section .text.init:

0000000080000000 <_start>:
    80000000:	00100193          	li	gp,1
    80000004:	800005b7          	lui	a1,0x80000
    80000008:	fff5859b          	addiw	a1,a1,-1 # 7fffffff <_start-0x1>
    8000000c:	80000637          	lui	a2,0x80000
    80000010:	fff6061b          	addiw	a2,a2,-1 # 7fffffff <_start-0x1>
    80000014:	08c5c73b          	packw	a4,a1,a2
    80000018:	fff00393          	li	t2,-1
    8000001c:	58771063          	bne	a4,t2,8000059c <fail>

0000000080000020 <test_2>:
    80000020:	00200193          	li	gp,2
    80000024:	800005b7          	lui	a1,0x80000
    80000028:	00000613          	li	a2,0
    8000002c:	08c5c73b          	packw	a4,a1,a2
    80000030:	00000393          	li	t2,0
    80000034:	56771463          	bne	a4,t2,8000059c <fail>

0000000080000038 <test_3>:
    80000038:	00300193          	li	gp,3
    8000003c:	0010059b          	addiw	a1,zero,1
    80000040:	02059593          	slli	a1,a1,0x20
    80000044:	fff58593          	addi	a1,a1,-1 # ffffffff7fffffff <_end+0xfffffffeffffdfff>
    80000048:	0010061b          	addiw	a2,zero,1
    8000004c:	02061613          	slli	a2,a2,0x20
    80000050:	fff60613          	addi	a2,a2,-1
    80000054:	08c5c73b          	packw	a4,a1,a2
    80000058:	fff00393          	li	t2,-1
    8000005c:	54771063          	bne	a4,t2,8000059c <fail>

0000000080000060 <test_4>:
    80000060:	00400193          	li	gp,4
    80000064:	fff00593          	li	a1,-1
    80000068:	00000613          	li	a2,0
    8000006c:	08c5c73b          	packw	a4,a1,a2
    80000070:	000103b7          	lui	t2,0x10
    80000074:	fff3839b          	addiw	t2,t2,-1 # ffff <_start-0x7fff0001>
    80000078:	52771263          	bne	a4,t2,8000059c <fail>

000000008000007c <test_5>:
    8000007c:	00500193          	li	gp,5
    80000080:	123455b7          	lui	a1,0x12345
    80000084:	6785859b          	addiw	a1,a1,1656 # 12345678 <_start-0x6dcba988>
    80000088:	12345637          	lui	a2,0x12345
    8000008c:	6786061b          	addiw	a2,a2,1656 # 12345678 <_start-0x6dcba988>
    80000090:	08c5c73b          	packw	a4,a1,a2
    80000094:	567853b7          	lui	t2,0x56785
    80000098:	6783839b          	addiw	t2,t2,1656 # 56785678 <_start-0x2987a988>
    8000009c:	50771063          	bne	a4,t2,8000059c <fail>

00000000800000a0 <test_6>:
    800000a0:	00600193          	li	gp,6
    800000a4:	800005b7          	lui	a1,0x80000
    800000a8:	00000613          	li	a2,0
    800000ac:	08c5c73b          	packw	a4,a1,a2
    800000b0:	00000393          	li	t2,0
    800000b4:	4e771463          	bne	a4,t2,8000059c <fail>

00000000800000b8 <test_7>:
    800000b8:	00700193          	li	gp,7
    800000bc:	000015b7          	lui	a1,0x1
    800000c0:	2345859b          	addiw	a1,a1,564 # 1234 <_start-0x7fffedcc>
    800000c4:	00004637          	lui	a2,0x4
    800000c8:	5676061b          	addiw	a2,a2,1383 # 4567 <_start-0x7fffba99>
    800000cc:	08c5c73b          	packw	a4,a1,a2
    800000d0:	456713b7          	lui	t2,0x45671
    800000d4:	2343839b          	addiw	t2,t2,564 # 45671234 <_start-0x3a98edcc>
    800000d8:	4c771263          	bne	a4,t2,8000059c <fail>

00000000800000dc <test_8>:
    800000dc:	00800193          	li	gp,8
    800000e0:	fff00593          	li	a1,-1
    800000e4:	fff00613          	li	a2,-1
    800000e8:	08c5c73b          	packw	a4,a1,a2
    800000ec:	fff00393          	li	t2,-1
    800000f0:	4a771663          	bne	a4,t2,8000059c <fail>

00000000800000f4 <test_9>:
    800000f4:	00900193          	li	gp,9
    800000f8:	7fff45b7          	lui	a1,0x7fff4
    800000fc:	5ff5859b          	addiw	a1,a1,1535 # 7fff45ff <_start-0xba01>
    80000100:	7fff3637          	lui	a2,0x7fff3
    80000104:	2ff6061b          	addiw	a2,a2,767 # 7fff32ff <_start-0xcd01>
    80000108:	08c5c5bb          	packw	a1,a1,a2
    8000010c:	32ff43b7          	lui	t2,0x32ff4
    80000110:	5ff3839b          	addiw	t2,t2,1535 # 32ff45ff <_start-0x4d00ba01>
    80000114:	48759463          	bne	a1,t2,8000059c <fail>

0000000080000118 <test_10>:
    80000118:	00a00193          	li	gp,10
    8000011c:	800085b7          	lui	a1,0x80008
    80000120:	0015859b          	addiw	a1,a1,1 # ffffffff80008001 <_end+0xffffffff00006001>
    80000124:	00007637          	lui	a2,0x7
    80000128:	7556061b          	addiw	a2,a2,1877 # 7755 <_start-0x7fff88ab>
    8000012c:	08c5c63b          	packw	a2,a1,a2
    80000130:	775583b7          	lui	t2,0x77558
    80000134:	0013839b          	addiw	t2,t2,1 # 77558001 <_start-0x8aa7fff>
    80000138:	46761263          	bne	a2,t2,8000059c <fail>

000000008000013c <test_11>:
    8000013c:	00b00193          	li	gp,11
    80000140:	001005b7          	lui	a1,0x100
    80000144:	ffb5859b          	addiw	a1,a1,-5 # ffffb <_start-0x7ff00005>
    80000148:	00c59593          	slli	a1,a1,0xc
    8000014c:	bcd58593          	addi	a1,a1,-1075
    80000150:	08b5c5bb          	packw	a1,a1,a1
    80000154:	abcdb3b7          	lui	t2,0xabcdb
    80000158:	bcd3839b          	addiw	t2,t2,-1075 # ffffffffabcdabcd <_end+0xffffffff2bcd8bcd>
    8000015c:	44759063          	bne	a1,t2,8000059c <fail>

0000000080000160 <test_12>:
    80000160:	00c00193          	li	gp,12
    80000164:	00000213          	li	tp,0
    80000168:	7fff50b7          	lui	ra,0x7fff5
    8000016c:	5660809b          	addiw	ra,ra,1382 # 7fff5566 <_start-0xaa9a>
    80000170:	7fff3137          	lui	sp,0x7fff3
    80000174:	3551011b          	addiw	sp,sp,853 # 7fff3355 <_start-0xccab>
    80000178:	0820c73b          	packw	a4,ra,sp
    8000017c:	00070313          	mv	t1,a4
    80000180:	00120213          	addi	tp,tp,1 # 1 <_start-0x7fffffff>
    80000184:	00200293          	li	t0,2
    80000188:	fe5210e3          	bne	tp,t0,80000168 <test_12+0x8>
    8000018c:	335553b7          	lui	t2,0x33555
    80000190:	5663839b          	addiw	t2,t2,1382 # 33555566 <_start-0x4caaaa9a>
    80000194:	40731463          	bne	t1,t2,8000059c <fail>

0000000080000198 <test_13>:
    80000198:	00d00193          	li	gp,13
    8000019c:	00000213          	li	tp,0
    800001a0:	800060b7          	lui	ra,0x80006
    800001a4:	4570809b          	addiw	ra,ra,1111 # ffffffff80006457 <_end+0xffffffff00004457>
    800001a8:	00008137          	lui	sp,0x8
    800001ac:	5201011b          	addiw	sp,sp,1312 # 8520 <_start-0x7fff7ae0>
    800001b0:	0820c73b          	packw	a4,ra,sp
    800001b4:	00000013          	nop
    800001b8:	00070313          	mv	t1,a4
    800001bc:	00120213          	addi	tp,tp,1 # 1 <_start-0x7fffffff>
    800001c0:	00200293          	li	t0,2
    800001c4:	fc521ee3          	bne	tp,t0,800001a0 <test_13+0x8>
    800001c8:	852063b7          	lui	t2,0x85206
    800001cc:	4573839b          	addiw	t2,t2,1111 # ffffffff85206457 <_end+0xffffffff05204457>
    800001d0:	3c731663          	bne	t1,t2,8000059c <fail>

00000000800001d4 <test_14>:
    800001d4:	00e00193          	li	gp,14
    800001d8:	00000213          	li	tp,0
    800001dc:	0010009b          	addiw	ra,zero,1
    800001e0:	02009093          	slli	ra,ra,0x20
    800001e4:	fff08093          	addi	ra,ra,-1
    800001e8:	0010011b          	addiw	sp,zero,1
    800001ec:	02011113          	slli	sp,sp,0x20
    800001f0:	fff10113          	addi	sp,sp,-1
    800001f4:	0820c73b          	packw	a4,ra,sp
    800001f8:	00000013          	nop
    800001fc:	00000013          	nop
    80000200:	00070313          	mv	t1,a4
    80000204:	00120213          	addi	tp,tp,1 # 1 <_start-0x7fffffff>
    80000208:	00200293          	li	t0,2
    8000020c:	fc5218e3          	bne	tp,t0,800001dc <test_14+0x8>
    80000210:	fff00393          	li	t2,-1
    80000214:	38731463          	bne	t1,t2,8000059c <fail>

0000000080000218 <test_15>:
    80000218:	00f00193          	li	gp,15
    8000021c:	00000213          	li	tp,0
    80000220:	009920b7          	lui	ra,0x992
    80000224:	3290809b          	addiw	ra,ra,809 # 992329 <_start-0x7f66dcd7>
    80000228:	00c09093          	slli	ra,ra,0xc
    8000022c:	92308093          	addi	ra,ra,-1757
    80000230:	00d09093          	slli	ra,ra,0xd
    80000234:	51308093          	addi	ra,ra,1299
    80000238:	00c09093          	slli	ra,ra,0xc
    8000023c:	25f08093          	addi	ra,ra,607
    80000240:	00453137          	lui	sp,0x453
    80000244:	4531011b          	addiw	sp,sp,1107 # 453453 <_start-0x7fbacbad>
    80000248:	00c11113          	slli	sp,sp,0xc
    8000024c:	24510113          	addi	sp,sp,581
    80000250:	00c11113          	slli	sp,sp,0xc
    80000254:	28710113          	addi	sp,sp,647
    80000258:	00c11113          	slli	sp,sp,0xc
    8000025c:	56510113          	addi	sp,sp,1381
    80000260:	0820c73b          	packw	a4,ra,sp
    80000264:	00120213          	addi	tp,tp,1 # 1 <_start-0x7fffffff>
    80000268:	00200293          	li	t0,2
    8000026c:	fa521ae3          	bne	tp,t0,80000220 <test_15+0x8>
    80000270:	756533b7          	lui	t2,0x75653
    80000274:	25f3839b          	addiw	t2,t2,607 # 7565325f <_start-0xa9acda1>
    80000278:	32771263          	bne	a4,t2,8000059c <fail>

000000008000027c <test_16>:
    8000027c:	01000193          	li	gp,16
    80000280:	00000213          	li	tp,0
    80000284:	8000e0b7          	lui	ra,0x8000e
    80000288:	eff0809b          	addiw	ra,ra,-257 # ffffffff8000deff <_end+0xffffffff0000beff>
    8000028c:	0000b137          	lui	sp,0xb
    80000290:	bcd1011b          	addiw	sp,sp,-1075 # abcd <_start-0x7fff5433>
    80000294:	00000013          	nop
    80000298:	0820c73b          	packw	a4,ra,sp
    8000029c:	00120213          	addi	tp,tp,1 # 1 <_start-0x7fffffff>
    800002a0:	00200293          	li	t0,2
    800002a4:	fe5210e3          	bne	tp,t0,80000284 <test_16+0x8>
    800002a8:	abcde3b7          	lui	t2,0xabcde
    800002ac:	eff3839b          	addiw	t2,t2,-257 # ffffffffabcddeff <_end+0xffffffff2bcdbeff>
    800002b0:	2e771663          	bne	a4,t2,8000059c <fail>

00000000800002b4 <test_17>:
    800002b4:	01100193          	li	gp,17
    800002b8:	00000213          	li	tp,0
    800002bc:	0010009b          	addiw	ra,zero,1
    800002c0:	02009093          	slli	ra,ra,0x20
    800002c4:	fff08093          	addi	ra,ra,-1
    800002c8:	00100137          	lui	sp,0x100
    800002cc:	ff31011b          	addiw	sp,sp,-13 # ffff3 <_start-0x7ff0000d>
    800002d0:	00c11113          	slli	sp,sp,0xc
    800002d4:	34410113          	addi	sp,sp,836
    800002d8:	00000013          	nop
    800002dc:	00000013          	nop
    800002e0:	0820c73b          	packw	a4,ra,sp
    800002e4:	00120213          	addi	tp,tp,1 # 1 <_start-0x7fffffff>
    800002e8:	00200293          	li	t0,2
    800002ec:	fc5218e3          	bne	tp,t0,800002bc <test_17+0x8>
    800002f0:	334503b7          	lui	t2,0x33450
    800002f4:	fff3839b          	addiw	t2,t2,-1 # 3344ffff <_start-0x4cbb0001>
    800002f8:	2a771263          	bne	a4,t2,8000059c <fail>

00000000800002fc <test_18>:
    800002fc:	01200193          	li	gp,18
    80000300:	00000213          	li	tp,0
    80000304:	7fff50b7          	lui	ra,0x7fff5
    80000308:	5440809b          	addiw	ra,ra,1348 # 7fff5544 <_start-0xaabc>
    8000030c:	00000013          	nop
    80000310:	80000137          	lui	sp,0x80000
    80000314:	fff1011b          	addiw	sp,sp,-1 # 7fffffff <_start-0x1>
    80000318:	0820c73b          	packw	a4,ra,sp
    8000031c:	00120213          	addi	tp,tp,1 # 1 <_start-0x7fffffff>
    80000320:	00200293          	li	t0,2
    80000324:	fe5210e3          	bne	tp,t0,80000304 <test_18+0x8>
    80000328:	ffff53b7          	lui	t2,0xffff5
    8000032c:	5443839b          	addiw	t2,t2,1348 # ffffffffffff5544 <_end+0xffffffff7fff3544>
    80000330:	26771663          	bne	a4,t2,8000059c <fail>

0000000080000334 <test_19>:
    80000334:	01300193          	li	gp,19
    80000338:	00000213          	li	tp,0
    8000033c:	800000b7          	lui	ra,0x80000
    80000340:	00000013          	nop
    80000344:	0000b137          	lui	sp,0xb
    80000348:	abb1011b          	addiw	sp,sp,-1349 # aabb <_start-0x7fff5545>
    8000034c:	00000013          	nop
    80000350:	0820c73b          	packw	a4,ra,sp
    80000354:	00120213          	addi	tp,tp,1 # 1 <_start-0x7fffffff>
    80000358:	00200293          	li	t0,2
    8000035c:	fe5210e3          	bne	tp,t0,8000033c <test_19+0x8>
    80000360:	aabb03b7          	lui	t2,0xaabb0
    80000364:	22771c63          	bne	a4,t2,8000059c <fail>

0000000080000368 <test_20>:
    80000368:	01400193          	li	gp,20
    8000036c:	00000213          	li	tp,0
    80000370:	0010009b          	addiw	ra,zero,1
    80000374:	02009093          	slli	ra,ra,0x20
    80000378:	fff08093          	addi	ra,ra,-1 # ffffffff7fffffff <_end+0xfffffffeffffdfff>
    8000037c:	00000013          	nop
    80000380:	00000013          	nop
    80000384:	0010011b          	addiw	sp,zero,1
    80000388:	02011113          	slli	sp,sp,0x20
    8000038c:	fff10113          	addi	sp,sp,-1
    80000390:	0820c73b          	packw	a4,ra,sp
    80000394:	00120213          	addi	tp,tp,1 # 1 <_start-0x7fffffff>
    80000398:	00200293          	li	t0,2
    8000039c:	fc521ae3          	bne	tp,t0,80000370 <test_20+0x8>
    800003a0:	fff00393          	li	t2,-1
    800003a4:	1e771c63          	bne	a4,t2,8000059c <fail>

00000000800003a8 <test_21>:
    800003a8:	01500193          	li	gp,21
    800003ac:	00000213          	li	tp,0
    800003b0:	7fff6137          	lui	sp,0x7fff6
    800003b4:	6771011b          	addiw	sp,sp,1655 # 7fff6677 <_start-0x9989>
    800003b8:	800000b7          	lui	ra,0x80000
    800003bc:	fff0809b          	addiw	ra,ra,-1 # 7fffffff <_start-0x1>
    800003c0:	0820c73b          	packw	a4,ra,sp
    800003c4:	00120213          	addi	tp,tp,1 # 1 <_start-0x7fffffff>
    800003c8:	00200293          	li	t0,2
    800003cc:	fe5212e3          	bne	tp,t0,800003b0 <test_21+0x8>
    800003d0:	667803b7          	lui	t2,0x66780
    800003d4:	fff3839b          	addiw	t2,t2,-1 # 6677ffff <_start-0x19880001>
    800003d8:	1c771263          	bne	a4,t2,8000059c <fail>

00000000800003dc <test_22>:
    800003dc:	01600193          	li	gp,22
    800003e0:	00000213          	li	tp,0
    800003e4:	00003137          	lui	sp,0x3
    800003e8:	2141011b          	addiw	sp,sp,532 # 3214 <_start-0x7fffcdec>
    800003ec:	800060b7          	lui	ra,0x80006
    800003f0:	8740809b          	addiw	ra,ra,-1932 # ffffffff80005874 <_end+0xffffffff00003874>
    800003f4:	00000013          	nop
    800003f8:	0820c73b          	packw	a4,ra,sp
    800003fc:	00120213          	addi	tp,tp,1 # 1 <_start-0x7fffffff>
    80000400:	00200293          	li	t0,2
    80000404:	fe5210e3          	bne	tp,t0,800003e4 <test_22+0x8>
    80000408:	321463b7          	lui	t2,0x32146
    8000040c:	8743839b          	addiw	t2,t2,-1932 # 32145874 <_start-0x4deba78c>
    80000410:	18771663          	bne	a4,t2,8000059c <fail>

0000000080000414 <test_23>:
    80000414:	01700193          	li	gp,23
    80000418:	00000213          	li	tp,0
    8000041c:	0010011b          	addiw	sp,zero,1
    80000420:	02011113          	slli	sp,sp,0x20
    80000424:	fff10113          	addi	sp,sp,-1
    80000428:	0010009b          	addiw	ra,zero,1
    8000042c:	02009093          	slli	ra,ra,0x20
    80000430:	fff08093          	addi	ra,ra,-1
    80000434:	00000013          	nop
    80000438:	00000013          	nop
    8000043c:	0820c73b          	packw	a4,ra,sp
    80000440:	00120213          	addi	tp,tp,1 # 1 <_start-0x7fffffff>
    80000444:	00200293          	li	t0,2
    80000448:	fc521ae3          	bne	tp,t0,8000041c <test_23+0x8>
    8000044c:	fff00393          	li	t2,-1
    80000450:	14771663          	bne	a4,t2,8000059c <fail>

0000000080000454 <test_24>:
    80000454:	01800193          	li	gp,24
    80000458:	00000213          	li	tp,0
    8000045c:	7fff8137          	lui	sp,0x7fff8
    80000460:	7511011b          	addiw	sp,sp,1873 # 7fff8751 <_start-0x78af>
    80000464:	00000013          	nop
    80000468:	800000b7          	lui	ra,0x80000
    8000046c:	fff0809b          	addiw	ra,ra,-1 # 7fffffff <_start-0x1>
    80000470:	0820c73b          	packw	a4,ra,sp
    80000474:	00120213          	addi	tp,tp,1 # 1 <_start-0x7fffffff>
    80000478:	00200293          	li	t0,2
    8000047c:	fe5210e3          	bne	tp,t0,8000045c <test_24+0x8>
    80000480:	875203b7          	lui	t2,0x87520
    80000484:	fff3839b          	addiw	t2,t2,-1 # ffffffff8751ffff <_end+0xffffffff0751dfff>
    80000488:	10771a63          	bne	a4,t2,8000059c <fail>

000000008000048c <test_25>:
    8000048c:	01900193          	li	gp,25
    80000490:	00000213          	li	tp,0
    80000494:	00000113          	li	sp,0
    80000498:	00000013          	nop
    8000049c:	800000b7          	lui	ra,0x80000
    800004a0:	00000013          	nop
    800004a4:	0820c73b          	packw	a4,ra,sp
    800004a8:	00120213          	addi	tp,tp,1 # 1 <_start-0x7fffffff>
    800004ac:	00200293          	li	t0,2
    800004b0:	fe5212e3          	bne	tp,t0,80000494 <test_25+0x8>
    800004b4:	00000393          	li	t2,0
    800004b8:	0e771263          	bne	a4,t2,8000059c <fail>

00000000800004bc <test_26>:
    800004bc:	01a00193          	li	gp,26
    800004c0:	00000213          	li	tp,0
    800004c4:	00100137          	lui	sp,0x100
    800004c8:	ffd1011b          	addiw	sp,sp,-3 # ffffd <_start-0x7ff00003>
    800004cc:	00c11113          	slli	sp,sp,0xc
    800004d0:	cdd10113          	addi	sp,sp,-803
    800004d4:	00000013          	nop
    800004d8:	00000013          	nop
    800004dc:	0010009b          	addiw	ra,zero,1
    800004e0:	02009093          	slli	ra,ra,0x20
    800004e4:	fff08093          	addi	ra,ra,-1 # ffffffff7fffffff <_end+0xfffffffeffffdfff>
    800004e8:	0820c73b          	packw	a4,ra,sp
    800004ec:	00120213          	addi	tp,tp,1 # 1 <_start-0x7fffffff>
    800004f0:	00200293          	li	t0,2
    800004f4:	fc5218e3          	bne	tp,t0,800004c4 <test_26+0x8>
    800004f8:	ccde03b7          	lui	t2,0xccde0
    800004fc:	fff3839b          	addiw	t2,t2,-1 # ffffffffccddffff <_end+0xffffffff4cdddfff>
    80000500:	08771e63          	bne	a4,t2,8000059c <fail>

0000000080000504 <test_27>:
    80000504:	01b00193          	li	gp,27
    80000508:	ffff00b7          	lui	ra,0xffff0
    8000050c:	0330809b          	addiw	ra,ra,51 # ffffffffffff0033 <_end+0xffffffff7ffee033>
    80000510:	0810413b          	packw	sp,zero,ra
    80000514:	003303b7          	lui	t2,0x330
    80000518:	08711263          	bne	sp,t2,8000059c <fail>

000000008000051c <test_28>:
    8000051c:	01c00193          	li	gp,28
    80000520:	000100b7          	lui	ra,0x10
    80000524:	fff0809b          	addiw	ra,ra,-1 # ffff <_start-0x7fff0001>
    80000528:	0800c13b          	packw	sp,ra,zero
    8000052c:	000103b7          	lui	t2,0x10
    80000530:	fff3839b          	addiw	t2,t2,-1 # ffff <_start-0x7fff0001>
    80000534:	06711463          	bne	sp,t2,8000059c <fail>

0000000080000538 <test_29>:
    80000538:	01d00193          	li	gp,29
    8000053c:	080040bb          	packw	ra,zero,zero
    80000540:	00000393          	li	t2,0
    80000544:	04709c63          	bne	ra,t2,8000059c <fail>

0000000080000548 <test_30>:
    80000548:	01e00193          	li	gp,30
    8000054c:	002470b7          	lui	ra,0x247
    80000550:	8ad0809b          	addiw	ra,ra,-1875 # 2468ad <_start-0x7fdb9753>
    80000554:	00e09093          	slli	ra,ra,0xe
    80000558:	c0908093          	addi	ra,ra,-1015
    8000055c:	00d09093          	slli	ra,ra,0xd
    80000560:	34508093          	addi	ra,ra,837
    80000564:	00c09093          	slli	ra,ra,0xc
    80000568:	67808093          	addi	ra,ra,1656
    8000056c:	ff9ac137          	lui	sp,0xff9ac
    80000570:	cdf1011b          	addiw	sp,sp,-801 # ffffffffff9abcdf <_end+0xffffffff7f9a9cdf>
    80000574:	00f11113          	slli	sp,sp,0xf
    80000578:	80910113          	addi	sp,sp,-2039
    8000057c:	00d11113          	slli	sp,sp,0xd
    80000580:	34510113          	addi	sp,sp,837
    80000584:	00c11113          	slli	sp,sp,0xc
    80000588:	67810113          	addi	sp,sp,1656
    8000058c:	0820c03b          	packw	zero,ra,sp
    80000590:	00000393          	li	t2,0
    80000594:	00701463          	bne	zero,t2,8000059c <fail>
    80000598:	00301663          	bne	zero,gp,800005a4 <pass>

000000008000059c <fail>:
    8000059c:	00100513          	li	a0,1
    800005a0:	00c0006f          	j	800005ac <halt>

00000000800005a4 <pass>:
    800005a4:	00000513          	li	a0,0
    800005a8:	0040006f          	j	800005ac <halt>

00000000800005ac <halt>:
    800005ac:	0000006f          	j	800005ac <halt>
    800005b0:	0000                	.insn	2, 0x
    800005b2:	0000                	.insn	2, 0x
    800005b4:	0000                	.insn	2, 0x
    800005b6:	0000                	.insn	2, 0x
    800005b8:	0000                	.insn	2, 0x
    800005ba:	0000                	.insn	2, 0x
    800005bc:	0000                	.insn	2, 0x
    800005be:	0000                	.insn	2, 0x
    800005c0:	0000                	.insn	2, 0x
    800005c2:	0000                	.insn	2, 0x
