
rv64uzbkb-p-rev_b:     file format elf64-littleriscv


Disassembly of section .text.init:

0000000080000000 <_start>:
    80000000:	00100193          	li	gp,1
    80000004:	fea950b7          	lui	ra,0xfea95
    80000008:	7310809b          	addiw	ra,ra,1841 # fffffffffea95731 <_end+0xffffffff7ea93731>
    8000000c:	00d09093          	slli	ra,ra,0xd
    80000010:	98908093          	addi	ra,ra,-1655
    80000014:	00d09093          	slli	ra,ra,0xd
    80000018:	34508093          	addi	ra,ra,837
    8000001c:	00c09093          	slli	ra,ra,0xc
    80000020:	67808093          	addi	ra,ra,1656
    80000024:	6870d713          	brev8	a4,ra
    80000028:	001573b7          	lui	t2,0x157
    8000002c:	a8d3839b          	addiw	t2,t2,-1395 # 156a8d <_start-0x7fea9573>
    80000030:	00f39393          	slli	t2,t2,0xf
    80000034:	98938393          	addi	t2,t2,-1655
    80000038:	00f39393          	slli	t2,t2,0xf
    8000003c:	2c738393          	addi	t2,t2,711
    80000040:	00c39393          	slli	t2,t2,0xc
    80000044:	a1e38393          	addi	t2,t2,-1506
    80000048:	3e771663          	bne	a4,t2,80000434 <fail>

000000008000004c <test_2>:
    8000004c:	00200193          	li	gp,2
    80000050:	fea950b7          	lui	ra,0xfea95
    80000054:	7310809b          	addiw	ra,ra,1841 # fffffffffea95731 <_end+0xffffffff7ea93731>
    80000058:	00d09093          	slli	ra,ra,0xd
    8000005c:	9d508093          	addi	ra,ra,-1579
    80000060:	00d09093          	slli	ra,ra,0xd
    80000064:	55d08093          	addi	ra,ra,1373
    80000068:	00c09093          	slli	ra,ra,0xc
    8000006c:	c3308093          	addi	ra,ra,-973
    80000070:	6870d713          	brev8	a4,ra
    80000074:	0156b3b7          	lui	t2,0x156b
    80000078:	8cf3839b          	addiw	t2,t2,-1841 # 156a8cf <_start-0x7ea95731>
    8000007c:	00d39393          	slli	t2,t2,0xd
    80000080:	62b38393          	addi	t2,t2,1579
    80000084:	00d39393          	slli	t2,t2,0xd
    80000088:	aa338393          	addi	t2,t2,-1373
    8000008c:	00c39393          	slli	t2,t2,0xc
    80000090:	3cc38393          	addi	t2,t2,972
    80000094:	3a771063          	bne	a4,t2,80000434 <fail>

0000000080000098 <test_3>:
    80000098:	00300193          	li	gp,3
    8000009c:	800080b7          	lui	ra,0x80008
    800000a0:	f890809b          	addiw	ra,ra,-119 # ffffffff80007f89 <_end+0xffffffff00005f89>
    800000a4:	00d09093          	slli	ra,ra,0xd
    800000a8:	34508093          	addi	ra,ra,837
    800000ac:	00c09093          	slli	ra,ra,0xc
    800000b0:	67808093          	addi	ra,ra,1656
    800000b4:	6870d713          	brev8	a4,ra
    800000b8:	e00023b7          	lui	t2,0xe0002
    800000bc:	fe93839b          	addiw	t2,t2,-23 # ffffffffe0001fe9 <_end+0xffffffff5fffffe9>
    800000c0:	00f39393          	slli	t2,t2,0xf
    800000c4:	2c738393          	addi	t2,t2,711
    800000c8:	00c39393          	slli	t2,t2,0xc
    800000cc:	a1e38393          	addi	t2,t2,-1506
    800000d0:	36771263          	bne	a4,t2,80000434 <fail>

00000000800000d4 <test_4>:
    800000d4:	00400193          	li	gp,4
    800000d8:	0089a0b7          	lui	ra,0x89a
    800000dc:	9130809b          	addiw	ra,ra,-1773 # 899913 <_start-0x7f7666ed>
    800000e0:	00c09093          	slli	ra,ra,0xc
    800000e4:	a8908093          	addi	ra,ra,-1399
    800000e8:	00c09093          	slli	ra,ra,0xc
    800000ec:	99908093          	addi	ra,ra,-1639
    800000f0:	00d09093          	slli	ra,ra,0xd
    800000f4:	25508093          	addi	ra,ra,597
    800000f8:	6870d713          	brev8	a4,ra
    800000fc:	ff11a3b7          	lui	t2,0xff11a
    80000100:	8893839b          	addiw	t2,t2,-1911 # ffffffffff119889 <_end+0xffffffff7f117889>
    80000104:	00c39393          	slli	t2,t2,0xc
    80000108:	55138393          	addi	t2,t2,1361
    8000010c:	00d39393          	slli	t2,t2,0xd
    80000110:	33138393          	addi	t2,t2,817
    80000114:	00e39393          	slli	t2,t2,0xe
    80000118:	4aa38393          	addi	t2,t2,1194
    8000011c:	30771c63          	bne	a4,t2,80000434 <fail>

0000000080000120 <test_5>:
    80000120:	00500193          	li	gp,5
    80000124:	02d2d0b7          	lui	ra,0x2d2d
    80000128:	2d30809b          	addiw	ra,ra,723 # 2d2d2d3 <_start-0x7d2d2d2d>
    8000012c:	00d09093          	slli	ra,ra,0xd
    80000130:	aff08093          	addi	ra,ra,-1281
    80000134:	01809093          	slli	ra,ra,0x18
    80000138:	0ff08093          	addi	ra,ra,255
    8000013c:	6870d713          	brev8	a4,ra
    80000140:	02d2d3b7          	lui	t2,0x2d2d
    80000144:	2d33839b          	addiw	t2,t2,723 # 2d2d2d3 <_start-0x7d2d2d2d>
    80000148:	00d39393          	slli	t2,t2,0xd
    8000014c:	aff38393          	addi	t2,t2,-1281
    80000150:	01839393          	slli	t2,t2,0x18
    80000154:	0ff38393          	addi	t2,t2,255
    80000158:	2c771e63          	bne	a4,t2,80000434 <fail>

000000008000015c <test_6>:
    8000015c:	00600193          	li	gp,6
    80000160:	002470b7          	lui	ra,0x247
    80000164:	8ad0809b          	addiw	ra,ra,-1875 # 2468ad <_start-0x7fdb9753>
    80000168:	00e09093          	slli	ra,ra,0xe
    8000016c:	c0908093          	addi	ra,ra,-1015
    80000170:	00c09093          	slli	ra,ra,0xc
    80000174:	99908093          	addi	ra,ra,-1639
    80000178:	00d09093          	slli	ra,ra,0xd
    8000017c:	25508093          	addi	ra,ra,597
    80000180:	6870d093          	brev8	ra,ra
    80000184:	002413b7          	lui	t2,0x241
    80000188:	6353839b          	addiw	t2,t2,1589 # 241635 <_start-0x7fdbe9cb>
    8000018c:	00e39393          	slli	t2,t2,0xe
    80000190:	3d138393          	addi	t2,t2,977
    80000194:	00d39393          	slli	t2,t2,0xd
    80000198:	33138393          	addi	t2,t2,817
    8000019c:	00e39393          	slli	t2,t2,0xe
    800001a0:	4aa38393          	addi	t2,t2,1194
    800001a4:	28709863          	bne	ra,t2,80000434 <fail>

00000000800001a8 <test_7>:
    800001a8:	00700193          	li	gp,7
    800001ac:	00000213          	li	tp,0
    800001b0:	002470b7          	lui	ra,0x247
    800001b4:	8ad0809b          	addiw	ra,ra,-1875 # 2468ad <_start-0x7fdb9753>
    800001b8:	00e09093          	slli	ra,ra,0xe
    800001bc:	c5508093          	addi	ra,ra,-939
    800001c0:	00d09093          	slli	ra,ra,0xd
    800001c4:	55d08093          	addi	ra,ra,1373
    800001c8:	00c09093          	slli	ra,ra,0xc
    800001cc:	c3308093          	addi	ra,ra,-973
    800001d0:	6870d713          	brev8	a4,ra
    800001d4:	00070313          	mv	t1,a4
    800001d8:	00120213          	addi	tp,tp,1 # 1 <_start-0x7fffffff>
    800001dc:	00200293          	li	t0,2
    800001e0:	fc5218e3          	bne	tp,t0,800001b0 <test_7+0x8>
    800001e4:	024163b7          	lui	t2,0x2416
    800001e8:	3513839b          	addiw	t2,t2,849 # 2416351 <_start-0x7dbe9caf>
    800001ec:	00c39393          	slli	t2,t2,0xc
    800001f0:	f2b38393          	addi	t2,t2,-213
    800001f4:	00d39393          	slli	t2,t2,0xd
    800001f8:	aa338393          	addi	t2,t2,-1373
    800001fc:	00c39393          	slli	t2,t2,0xc
    80000200:	3cc38393          	addi	t2,t2,972
    80000204:	22731863          	bne	t1,t2,80000434 <fail>

0000000080000208 <test_8>:
    80000208:	00800193          	li	gp,8
    8000020c:	00000213          	li	tp,0
    80000210:	805530b7          	lui	ra,0x80553
    80000214:	a890809b          	addiw	ra,ra,-1399 # ffffffff80552a89 <_end+0xffffffff00550a89>
    80000218:	00d09093          	slli	ra,ra,0xd
    8000021c:	34508093          	addi	ra,ra,837
    80000220:	00c09093          	slli	ra,ra,0xc
    80000224:	67808093          	addi	ra,ra,1656
    80000228:	6870d713          	brev8	a4,ra
    8000022c:	00000013          	nop
    80000230:	00070313          	mv	t1,a4
    80000234:	00120213          	addi	tp,tp,1 # 1 <_start-0x7fffffff>
    80000238:	00200293          	li	t0,2
    8000023c:	fc521ae3          	bne	tp,t0,80000210 <test_8+0x8>
    80000240:	e00ab3b7          	lui	t2,0xe00ab
    80000244:	5493839b          	addiw	t2,t2,1353 # ffffffffe00ab549 <_end+0xffffffff600a9549>
    80000248:	00f39393          	slli	t2,t2,0xf
    8000024c:	2c738393          	addi	t2,t2,711
    80000250:	00c39393          	slli	t2,t2,0xc
    80000254:	a1e38393          	addi	t2,t2,-1506
    80000258:	1c731e63          	bne	t1,t2,80000434 <fail>

000000008000025c <test_9>:
    8000025c:	00900193          	li	gp,9
    80000260:	00000213          	li	tp,0
    80000264:	00f0f0b7          	lui	ra,0xf0f
    80000268:	0f10809b          	addiw	ra,ra,241 # f0f0f1 <_start-0x7f0f0f0f>
    8000026c:	00c09093          	slli	ra,ra,0xc
    80000270:	fff08093          	addi	ra,ra,-1
    80000274:	00c09093          	slli	ra,ra,0xc
    80000278:	00b08093          	addi	ra,ra,11
    8000027c:	00c09093          	slli	ra,ra,0xc
    80000280:	a5508093          	addi	ra,ra,-1451
    80000284:	6870d713          	brev8	a4,ra
    80000288:	00000013          	nop
    8000028c:	00000013          	nop
    80000290:	00070313          	mv	t1,a4
    80000294:	00120213          	addi	tp,tp,1 # 1 <_start-0x7fffffff>
    80000298:	00200293          	li	t0,2
    8000029c:	fc5214e3          	bne	tp,t0,80000264 <test_9+0x8>
    800002a0:	ff0f13b7          	lui	t2,0xff0f1
    800002a4:	f0f3839b          	addiw	t2,t2,-241 # ffffffffff0f0f0f <_end+0xffffffff7f0eef0f>
    800002a8:	00c39393          	slli	t2,t2,0xc
    800002ac:	0ff38393          	addi	t2,t2,255
    800002b0:	00c39393          	slli	t2,t2,0xc
    800002b4:	00538393          	addi	t2,t2,5
    800002b8:	00c39393          	slli	t2,t2,0xc
    800002bc:	5aa38393          	addi	t2,t2,1450
    800002c0:	16731a63          	bne	t1,t2,80000434 <fail>

00000000800002c4 <test_10>:
    800002c4:	00a00193          	li	gp,10
    800002c8:	0ff0009b          	addiw	ra,zero,255
    800002cc:	01e09093          	slli	ra,ra,0x1e
    800002d0:	07f08093          	addi	ra,ra,127
    800002d4:	01109093          	slli	ra,ra,0x11
    800002d8:	10008093          	addi	ra,ra,256
    800002dc:	6870d713          	brev8	a4,ra
    800002e0:	000103b7          	lui	t2,0x10
    800002e4:	e013839b          	addiw	t2,t2,-511 # fe01 <_start-0x7fff01ff>
    800002e8:	01939393          	slli	t2,t2,0x19
    800002ec:	0ff38393          	addi	t2,t2,255
    800002f0:	00f39393          	slli	t2,t2,0xf
    800002f4:	14771063          	bne	a4,t2,80000434 <fail>

00000000800002f8 <test_11>:
    800002f8:	00b00193          	li	gp,11
    800002fc:	1010009b          	addiw	ra,zero,257
    80000300:	01709093          	slli	ra,ra,0x17
    80000304:	00f08093          	addi	ra,ra,15
    80000308:	00c09093          	slli	ra,ra,0xc
    8000030c:	0f108093          	addi	ra,ra,241
    80000310:	00c09093          	slli	ra,ra,0xc
    80000314:	f0f08093          	addi	ra,ra,-241
    80000318:	6870d713          	brev8	a4,ra
    8000031c:	010103b7          	lui	t2,0x1010
    80000320:	0f13839b          	addiw	t2,t2,241 # 10100f1 <_start-0x7efeff0f>
    80000324:	00c39393          	slli	t2,t2,0xc
    80000328:	f0f38393          	addi	t2,t2,-241
    8000032c:	00c39393          	slli	t2,t2,0xc
    80000330:	0f038393          	addi	t2,t2,240
    80000334:	10771063          	bne	a4,t2,80000434 <fail>

0000000080000338 <test_12>:
    80000338:	00c00193          	li	gp,12
    8000033c:	3010009b          	addiw	ra,zero,769
    80000340:	01709093          	slli	ra,ra,0x17
    80000344:	0ff08093          	addi	ra,ra,255
    80000348:	00c09093          	slli	ra,ra,0xc
    8000034c:	00b08093          	addi	ra,ra,11
    80000350:	00c09093          	slli	ra,ra,0xc
    80000354:	a5508093          	addi	ra,ra,-1451
    80000358:	6870d713          	brev8	a4,ra
    8000035c:	ff8003b7          	lui	t2,0xff800
    80000360:	1013839b          	addiw	t2,t2,257 # ffffffffff800101 <_end+0xffffffff7f7fe101>
    80000364:	01039393          	slli	t2,t2,0x10
    80000368:	0ff38393          	addi	t2,t2,255
    8000036c:	00c39393          	slli	t2,t2,0xc
    80000370:	00538393          	addi	t2,t2,5
    80000374:	00c39393          	slli	t2,t2,0xc
    80000378:	5aa38393          	addi	t2,t2,1450
    8000037c:	0a771c63          	bne	a4,t2,80000434 <fail>

0000000080000380 <test_13>:
    80000380:	00d00193          	li	gp,13
    80000384:	000080b7          	lui	ra,0x8
    80000388:	fff0809b          	addiw	ra,ra,-1 # 7fff <_start-0x7fff8001>
    8000038c:	01109093          	slli	ra,ra,0x11
    80000390:	10108093          	addi	ra,ra,257
    80000394:	00f09093          	slli	ra,ra,0xf
    80000398:	6870d713          	brev8	a4,ra
    8000039c:	000103b7          	lui	t2,0x10
    800003a0:	eff3839b          	addiw	t2,t2,-257 # feff <_start-0x7fff0101>
    800003a4:	01039393          	slli	t2,t2,0x10
    800003a8:	00138393          	addi	t2,t2,1
    800003ac:	01039393          	slli	t2,t2,0x10
    800003b0:	10038393          	addi	t2,t2,256
    800003b4:	08771063          	bne	a4,t2,80000434 <fail>

00000000800003b8 <test_14>:
    800003b8:	00e00193          	li	gp,14
    800003bc:	800000b7          	lui	ra,0x80000
    800003c0:	fff0809b          	addiw	ra,ra,-1 # 7fffffff <_start-0x1>
    800003c4:	01109093          	slli	ra,ra,0x11
    800003c8:	00108093          	addi	ra,ra,1
    800003cc:	00f09093          	slli	ra,ra,0xf
    800003d0:	fff08093          	addi	ra,ra,-1
    800003d4:	6870d713          	brev8	a4,ra
    800003d8:	ff0003b7          	lui	t2,0xff000
    800003dc:	fff3839b          	addiw	t2,t2,-1 # fffffffffeffffff <_end+0xffffffff7effdfff>
    800003e0:	01039393          	slli	t2,t2,0x10
    800003e4:	00138393          	addi	t2,t2,1
    800003e8:	01039393          	slli	t2,t2,0x10
    800003ec:	eff38393          	addi	t2,t2,-257
    800003f0:	04771263          	bne	a4,t2,80000434 <fail>

00000000800003f4 <test_15>:
    800003f4:	00f00193          	li	gp,15
    800003f8:	040000b7          	lui	ra,0x4000
    800003fc:	f890809b          	addiw	ra,ra,-119 # 3ffff89 <_start-0x7c000077>
    80000400:	00d09093          	slli	ra,ra,0xd
    80000404:	34508093          	addi	ra,ra,837
    80000408:	00c09093          	slli	ra,ra,0xc
    8000040c:	67808093          	addi	ra,ra,1656
    80000410:	6870d713          	brev8	a4,ra
    80000414:	1c2003b7          	lui	t2,0x1c200
    80000418:	fe93839b          	addiw	t2,t2,-23 # 1c1fffe9 <_start-0x63e00017>
    8000041c:	00f39393          	slli	t2,t2,0xf
    80000420:	2c738393          	addi	t2,t2,711
    80000424:	00c39393          	slli	t2,t2,0xc
    80000428:	a1e38393          	addi	t2,t2,-1506
    8000042c:	00771463          	bne	a4,t2,80000434 <fail>
    80000430:	00301663          	bne	zero,gp,8000043c <pass>

0000000080000434 <fail>:
    80000434:	00100513          	li	a0,1
    80000438:	00c0006f          	j	80000444 <halt>

000000008000043c <pass>:
    8000043c:	00000513          	li	a0,0
    80000440:	0040006f          	j	80000444 <halt>

0000000080000444 <halt>:
    80000444:	0000006f          	j	80000444 <halt>
    80000448:	0000                	.insn	2, 0x
    8000044a:	0000                	.insn	2, 0x
    8000044c:	0000                	.insn	2, 0x
    8000044e:	0000                	.insn	2, 0x
    80000450:	0000                	.insn	2, 0x
    80000452:	0000                	.insn	2, 0x
    80000454:	0000                	.insn	2, 0x
    80000456:	0000                	.insn	2, 0x
    80000458:	0000                	.insn	2, 0x
    8000045a:	0000                	.insn	2, 0x
    8000045c:	0000                	.insn	2, 0x
    8000045e:	0000                	.insn	2, 0x
    80000460:	0000                	.insn	2, 0x
    80000462:	0000                	.insn	2, 0x
    80000464:	0000                	.insn	2, 0x
    80000466:	0000                	.insn	2, 0x
    80000468:	0000                	.insn	2, 0x
    8000046a:	0000                	.insn	2, 0x
    8000046c:	0000                	.insn	2, 0x
    8000046e:	0000                	.insn	2, 0x
    80000470:	0000                	.insn	2, 0x
    80000472:	0000                	.insn	2, 0x
    80000474:	0000                	.insn	2, 0x
    80000476:	0000                	.insn	2, 0x
    80000478:	0000                	.insn	2, 0x
    8000047a:	0000                	.insn	2, 0x
    8000047c:	0000                	.insn	2, 0x
    8000047e:	0000                	.insn	2, 0x
    80000480:	0000                	.insn	2, 0x
    80000482:	0000                	.insn	2, 0x
