
rv64uzbkb-p-pack:     file format elf64-littleriscv


Disassembly of section .text.init:

0000000080000000 <_start>:
    80000000:	00100193          	li	gp,1
    80000004:	800005b7          	lui	a1,0x80000
    80000008:	fff5859b          	addiw	a1,a1,-1 # 7fffffff <_start-0x1>
    8000000c:	80000637          	lui	a2,0x80000
    80000010:	fff6061b          	addiw	a2,a2,-1 # 7fffffff <_start-0x1>
    80000014:	08c5c733          	pack	a4,a1,a2
    80000018:	0010039b          	addiw	t2,zero,1
    8000001c:	02039393          	slli	t2,t2,0x20
    80000020:	fff38393          	addi	t2,t2,-1
    80000024:	01f39393          	slli	t2,t2,0x1f
    80000028:	fff38393          	addi	t2,t2,-1
    8000002c:	6a771263          	bne	a4,t2,800006d0 <fail>

0000000080000030 <test_2>:
    80000030:	00200193          	li	gp,2
    80000034:	800005b7          	lui	a1,0x80000
    80000038:	00000613          	li	a2,0
    8000003c:	08c5c733          	pack	a4,a1,a2
    80000040:	0010039b          	addiw	t2,zero,1
    80000044:	01f39393          	slli	t2,t2,0x1f
    80000048:	68771463          	bne	a4,t2,800006d0 <fail>

000000008000004c <test_3>:
    8000004c:	00300193          	li	gp,3
    80000050:	0010059b          	addiw	a1,zero,1
    80000054:	02059593          	slli	a1,a1,0x20
    80000058:	fff58593          	addi	a1,a1,-1 # ffffffff7fffffff <_end+0xfffffffeffffdfff>
    8000005c:	0010061b          	addiw	a2,zero,1
    80000060:	02061613          	slli	a2,a2,0x20
    80000064:	fff60613          	addi	a2,a2,-1
    80000068:	08c5c733          	pack	a4,a1,a2
    8000006c:	fff00393          	li	t2,-1
    80000070:	66771063          	bne	a4,t2,800006d0 <fail>

0000000080000074 <test_4>:
    80000074:	00400193          	li	gp,4
    80000078:	fff00593          	li	a1,-1
    8000007c:	00000613          	li	a2,0
    80000080:	08c5c733          	pack	a4,a1,a2
    80000084:	0010039b          	addiw	t2,zero,1
    80000088:	02039393          	slli	t2,t2,0x20
    8000008c:	fff38393          	addi	t2,t2,-1
    80000090:	64771063          	bne	a4,t2,800006d0 <fail>

0000000080000094 <test_5>:
    80000094:	00500193          	li	gp,5
    80000098:	123455b7          	lui	a1,0x12345
    8000009c:	6785859b          	addiw	a1,a1,1656 # 12345678 <_start-0x6dcba988>
    800000a0:	12345637          	lui	a2,0x12345
    800000a4:	6786061b          	addiw	a2,a2,1656 # 12345678 <_start-0x6dcba988>
    800000a8:	08c5c733          	pack	a4,a1,a2
    800000ac:	002473b7          	lui	t2,0x247
    800000b0:	8ad3839b          	addiw	t2,t2,-1875 # 2468ad <_start-0x7fdb9753>
    800000b4:	00e39393          	slli	t2,t2,0xe
    800000b8:	c0938393          	addi	t2,t2,-1015
    800000bc:	00d39393          	slli	t2,t2,0xd
    800000c0:	34538393          	addi	t2,t2,837
    800000c4:	00c39393          	slli	t2,t2,0xc
    800000c8:	67838393          	addi	t2,t2,1656
    800000cc:	60771263          	bne	a4,t2,800006d0 <fail>

00000000800000d0 <test_6>:
    800000d0:	00600193          	li	gp,6
    800000d4:	800005b7          	lui	a1,0x80000
    800000d8:	00000613          	li	a2,0
    800000dc:	08c5c733          	pack	a4,a1,a2
    800000e0:	0010039b          	addiw	t2,zero,1
    800000e4:	01f39393          	slli	t2,t2,0x1f
    800000e8:	5e771463          	bne	a4,t2,800006d0 <fail>

00000000800000ec <test_7>:
    800000ec:	00700193          	li	gp,7
    800000f0:	000015b7          	lui	a1,0x1
    800000f4:	2345859b          	addiw	a1,a1,564 # 1234 <_start-0x7fffedcc>
    800000f8:	00004637          	lui	a2,0x4
    800000fc:	5676061b          	addiw	a2,a2,1383 # 4567 <_start-0x7fffba99>
    80000100:	08c5c733          	pack	a4,a1,a2
    80000104:	000043b7          	lui	t2,0x4
    80000108:	5673839b          	addiw	t2,t2,1383 # 4567 <_start-0x7fffba99>
    8000010c:	01439393          	slli	t2,t2,0x14
    80000110:	00138393          	addi	t2,t2,1
    80000114:	00c39393          	slli	t2,t2,0xc
    80000118:	23438393          	addi	t2,t2,564
    8000011c:	5a771a63          	bne	a4,t2,800006d0 <fail>

0000000080000120 <test_8>:
    80000120:	00800193          	li	gp,8
    80000124:	fff00593          	li	a1,-1
    80000128:	fff00613          	li	a2,-1
    8000012c:	08c5c733          	pack	a4,a1,a2
    80000130:	fff00393          	li	t2,-1
    80000134:	58771e63          	bne	a4,t2,800006d0 <fail>

0000000080000138 <test_9>:
    80000138:	00900193          	li	gp,9
    8000013c:	7fff45b7          	lui	a1,0x7fff4
    80000140:	5ff5859b          	addiw	a1,a1,1535 # 7fff45ff <_start-0xba01>
    80000144:	7fff3637          	lui	a2,0x7fff3
    80000148:	2ff6061b          	addiw	a2,a2,767 # 7fff32ff <_start-0xcd01>
    8000014c:	08c5c5b3          	pack	a1,a1,a2
    80000150:	000803b7          	lui	t2,0x80
    80000154:	ff33839b          	addiw	t2,t2,-13 # 7fff3 <_start-0x7ff8000d>
    80000158:	00d39393          	slli	t2,t2,0xd
    8000015c:	5ff38393          	addi	t2,t2,1535
    80000160:	01139393          	slli	t2,t2,0x11
    80000164:	ffd38393          	addi	t2,t2,-3
    80000168:	00e39393          	slli	t2,t2,0xe
    8000016c:	5ff38393          	addi	t2,t2,1535
    80000170:	56759063          	bne	a1,t2,800006d0 <fail>

0000000080000174 <test_10>:
    80000174:	00a00193          	li	gp,10
    80000178:	800085b7          	lui	a1,0x80008
    8000017c:	0015859b          	addiw	a1,a1,1 # ffffffff80008001 <_end+0xffffffff00006001>
    80000180:	00007637          	lui	a2,0x7
    80000184:	7556061b          	addiw	a2,a2,1877 # 7755 <_start-0x7fff88ab>
    80000188:	08c5c633          	pack	a2,a1,a2
    8000018c:	0000f3b7          	lui	t2,0xf
    80000190:	eab3839b          	addiw	t2,t2,-341 # eeab <_start-0x7fff1155>
    80000194:	01039393          	slli	t2,t2,0x10
    80000198:	00138393          	addi	t2,t2,1
    8000019c:	00f39393          	slli	t2,t2,0xf
    800001a0:	00138393          	addi	t2,t2,1
    800001a4:	52761663          	bne	a2,t2,800006d0 <fail>

00000000800001a8 <test_11>:
    800001a8:	00b00193          	li	gp,11
    800001ac:	001005b7          	lui	a1,0x100
    800001b0:	ffb5859b          	addiw	a1,a1,-5 # ffffb <_start-0x7ff00005>
    800001b4:	00c59593          	slli	a1,a1,0xc
    800001b8:	bcd58593          	addi	a1,a1,-1075
    800001bc:	08b5c5b3          	pack	a1,a1,a1
    800001c0:	ffffd3b7          	lui	t2,0xffffd
    800001c4:	5e73839b          	addiw	t2,t2,1511 # ffffffffffffd5e7 <_end+0xffffffff7fffb5e7>
    800001c8:	01539393          	slli	t2,t2,0x15
    800001cc:	ffb38393          	addi	t2,t2,-5
    800001d0:	00c39393          	slli	t2,t2,0xc
    800001d4:	bcd38393          	addi	t2,t2,-1075
    800001d8:	4e759c63          	bne	a1,t2,800006d0 <fail>

00000000800001dc <test_12>:
    800001dc:	00c00193          	li	gp,12
    800001e0:	00000213          	li	tp,0
    800001e4:	7fff50b7          	lui	ra,0x7fff5
    800001e8:	5660809b          	addiw	ra,ra,1382 # 7fff5566 <_start-0xaa9a>
    800001ec:	7fff3137          	lui	sp,0x7fff3
    800001f0:	3551011b          	addiw	sp,sp,853 # 7fff3355 <_start-0xccab>
    800001f4:	0820c733          	pack	a4,ra,sp
    800001f8:	00070313          	mv	t1,a4
    800001fc:	00120213          	addi	tp,tp,1 # 1 <_start-0x7fffffff>
    80000200:	00200293          	li	t0,2
    80000204:	fe5210e3          	bne	tp,t0,800001e4 <test_12+0x8>
    80000208:	000803b7          	lui	t2,0x80
    8000020c:	ff33839b          	addiw	t2,t2,-13 # 7fff3 <_start-0x7ff8000d>
    80000210:	00d39393          	slli	t2,t2,0xd
    80000214:	6ab38393          	addi	t2,t2,1707
    80000218:	01339393          	slli	t2,t2,0x13
    8000021c:	ff538393          	addi	t2,t2,-11
    80000220:	00c39393          	slli	t2,t2,0xc
    80000224:	56638393          	addi	t2,t2,1382
    80000228:	4a731463          	bne	t1,t2,800006d0 <fail>

000000008000022c <test_13>:
    8000022c:	00d00193          	li	gp,13
    80000230:	00000213          	li	tp,0
    80000234:	800060b7          	lui	ra,0x80006
    80000238:	4570809b          	addiw	ra,ra,1111 # ffffffff80006457 <_end+0xffffffff00004457>
    8000023c:	00008137          	lui	sp,0x8
    80000240:	5201011b          	addiw	sp,sp,1312 # 8520 <_start-0x7fff7ae0>
    80000244:	0820c733          	pack	a4,ra,sp
    80000248:	00000013          	nop
    8000024c:	00070313          	mv	t1,a4
    80000250:	00120213          	addi	tp,tp,1 # 1 <_start-0x7fffffff>
    80000254:	00200293          	li	t0,2
    80000258:	fc521ee3          	bne	tp,t0,80000234 <test_13+0x8>
    8000025c:	000113b7          	lui	t2,0x11
    80000260:	a413839b          	addiw	t2,t2,-1471 # 10a41 <_start-0x7ffef5bf>
    80000264:	01239393          	slli	t2,t2,0x12
    80000268:	00338393          	addi	t2,t2,3
    8000026c:	00d39393          	slli	t2,t2,0xd
    80000270:	45738393          	addi	t2,t2,1111
    80000274:	44731e63          	bne	t1,t2,800006d0 <fail>

0000000080000278 <test_14>:
    80000278:	00e00193          	li	gp,14
    8000027c:	00000213          	li	tp,0
    80000280:	0010009b          	addiw	ra,zero,1
    80000284:	02009093          	slli	ra,ra,0x20
    80000288:	fff08093          	addi	ra,ra,-1
    8000028c:	0010011b          	addiw	sp,zero,1
    80000290:	02011113          	slli	sp,sp,0x20
    80000294:	fff10113          	addi	sp,sp,-1
    80000298:	0820c733          	pack	a4,ra,sp
    8000029c:	00000013          	nop
    800002a0:	00000013          	nop
    800002a4:	00070313          	mv	t1,a4
    800002a8:	00120213          	addi	tp,tp,1 # 1 <_start-0x7fffffff>
    800002ac:	00200293          	li	t0,2
    800002b0:	fc5218e3          	bne	tp,t0,80000280 <test_14+0x8>
    800002b4:	fff00393          	li	t2,-1
    800002b8:	40731c63          	bne	t1,t2,800006d0 <fail>

00000000800002bc <test_15>:
    800002bc:	00f00193          	li	gp,15
    800002c0:	00000213          	li	tp,0
    800002c4:	009920b7          	lui	ra,0x992
    800002c8:	3290809b          	addiw	ra,ra,809 # 992329 <_start-0x7f66dcd7>
    800002cc:	00c09093          	slli	ra,ra,0xc
    800002d0:	92308093          	addi	ra,ra,-1757
    800002d4:	00d09093          	slli	ra,ra,0xd
    800002d8:	51308093          	addi	ra,ra,1299
    800002dc:	00c09093          	slli	ra,ra,0xc
    800002e0:	25f08093          	addi	ra,ra,607
    800002e4:	00453137          	lui	sp,0x453
    800002e8:	4531011b          	addiw	sp,sp,1107 # 453453 <_start-0x7fbacbad>
    800002ec:	00c11113          	slli	sp,sp,0xc
    800002f0:	24510113          	addi	sp,sp,581
    800002f4:	00c11113          	slli	sp,sp,0xc
    800002f8:	28710113          	addi	sp,sp,647
    800002fc:	00c11113          	slli	sp,sp,0xc
    80000300:	56510113          	addi	sp,sp,1381
    80000304:	0820c733          	pack	a4,ra,sp
    80000308:	00120213          	addi	tp,tp,1 # 1 <_start-0x7fffffff>
    8000030c:	00200293          	li	t0,2
    80000310:	fa521ae3          	bne	tp,t0,800002c4 <test_15+0x8>
    80000314:	022943b7          	lui	t2,0x2294
    80000318:	3ab3839b          	addiw	t2,t2,939 # 22943ab <_start-0x7dd6bc55>
    8000031c:	00c39393          	slli	t2,t2,0xc
    80000320:	2a338393          	addi	t2,t2,675
    80000324:	00d39393          	slli	t2,t2,0xd
    80000328:	51338393          	addi	t2,t2,1299
    8000032c:	00c39393          	slli	t2,t2,0xc
    80000330:	25f38393          	addi	t2,t2,607
    80000334:	38771e63          	bne	a4,t2,800006d0 <fail>

0000000080000338 <test_16>:
    80000338:	01000193          	li	gp,16
    8000033c:	00000213          	li	tp,0
    80000340:	8000e0b7          	lui	ra,0x8000e
    80000344:	eff0809b          	addiw	ra,ra,-257 # ffffffff8000deff <_end+0xffffffff0000beff>
    80000348:	0000b137          	lui	sp,0xb
    8000034c:	bcd1011b          	addiw	sp,sp,-1075 # abcd <_start-0x7fff5433>
    80000350:	00000013          	nop
    80000354:	0820c733          	pack	a4,ra,sp
    80000358:	00120213          	addi	tp,tp,1 # 1 <_start-0x7fffffff>
    8000035c:	00200293          	li	t0,2
    80000360:	fe5210e3          	bne	tp,t0,80000340 <test_16+0x8>
    80000364:	000153b7          	lui	t2,0x15
    80000368:	79b3839b          	addiw	t2,t2,1947 # 1579b <_start-0x7ffea865>
    8000036c:	01239393          	slli	t2,t2,0x12
    80000370:	00738393          	addi	t2,t2,7
    80000374:	00d39393          	slli	t2,t2,0xd
    80000378:	eff38393          	addi	t2,t2,-257
    8000037c:	34771a63          	bne	a4,t2,800006d0 <fail>

0000000080000380 <test_17>:
    80000380:	01100193          	li	gp,17
    80000384:	00000213          	li	tp,0
    80000388:	0010009b          	addiw	ra,zero,1
    8000038c:	02009093          	slli	ra,ra,0x20
    80000390:	fff08093          	addi	ra,ra,-1
    80000394:	00100137          	lui	sp,0x100
    80000398:	ff31011b          	addiw	sp,sp,-13 # ffff3 <_start-0x7ff0000d>
    8000039c:	00c11113          	slli	sp,sp,0xc
    800003a0:	34410113          	addi	sp,sp,836
    800003a4:	00000013          	nop
    800003a8:	00000013          	nop
    800003ac:	0820c733          	pack	a4,ra,sp
    800003b0:	00120213          	addi	tp,tp,1 # 1 <_start-0x7fffffff>
    800003b4:	00200293          	li	t0,2
    800003b8:	fc5218e3          	bne	tp,t0,80000388 <test_17+0x8>
    800003bc:	ffff33b7          	lui	t2,0xffff3
    800003c0:	3453839b          	addiw	t2,t2,837 # ffffffffffff3345 <_end+0xffffffff7fff1345>
    800003c4:	02039393          	slli	t2,t2,0x20
    800003c8:	fff38393          	addi	t2,t2,-1
    800003cc:	30771263          	bne	a4,t2,800006d0 <fail>

00000000800003d0 <test_18>:
    800003d0:	01200193          	li	gp,18
    800003d4:	00000213          	li	tp,0
    800003d8:	7fff50b7          	lui	ra,0x7fff5
    800003dc:	5440809b          	addiw	ra,ra,1348 # 7fff5544 <_start-0xaabc>
    800003e0:	00000013          	nop
    800003e4:	80000137          	lui	sp,0x80000
    800003e8:	fff1011b          	addiw	sp,sp,-1 # 7fffffff <_start-0x1>
    800003ec:	0820c733          	pack	a4,ra,sp
    800003f0:	00120213          	addi	tp,tp,1 # 1 <_start-0x7fffffff>
    800003f4:	00200293          	li	t0,2
    800003f8:	fe5210e3          	bne	tp,t0,800003d8 <test_18+0x8>
    800003fc:	0010039b          	addiw	t2,zero,1
    80000400:	02039393          	slli	t2,t2,0x20
    80000404:	fff38393          	addi	t2,t2,-1
    80000408:	01339393          	slli	t2,t2,0x13
    8000040c:	ff538393          	addi	t2,t2,-11
    80000410:	00c39393          	slli	t2,t2,0xc
    80000414:	54438393          	addi	t2,t2,1348
    80000418:	2a771c63          	bne	a4,t2,800006d0 <fail>

000000008000041c <test_19>:
    8000041c:	01300193          	li	gp,19
    80000420:	00000213          	li	tp,0
    80000424:	800000b7          	lui	ra,0x80000
    80000428:	00000013          	nop
    8000042c:	0000b137          	lui	sp,0xb
    80000430:	abb1011b          	addiw	sp,sp,-1349 # aabb <_start-0x7fff5545>
    80000434:	00000013          	nop
    80000438:	0820c733          	pack	a4,ra,sp
    8000043c:	00120213          	addi	tp,tp,1 # 1 <_start-0x7fffffff>
    80000440:	00200293          	li	t0,2
    80000444:	fe5210e3          	bne	tp,t0,80000424 <test_19+0x8>
    80000448:	000153b7          	lui	t2,0x15
    8000044c:	5773839b          	addiw	t2,t2,1399 # 15577 <_start-0x7ffeaa89>
    80000450:	01f39393          	slli	t2,t2,0x1f
    80000454:	26771e63          	bne	a4,t2,800006d0 <fail>

0000000080000458 <test_20>:
    80000458:	01400193          	li	gp,20
    8000045c:	00000213          	li	tp,0
    80000460:	0010009b          	addiw	ra,zero,1
    80000464:	02009093          	slli	ra,ra,0x20
    80000468:	fff08093          	addi	ra,ra,-1 # ffffffff7fffffff <_end+0xfffffffeffffdfff>
    8000046c:	00000013          	nop
    80000470:	00000013          	nop
    80000474:	0010011b          	addiw	sp,zero,1
    80000478:	02011113          	slli	sp,sp,0x20
    8000047c:	fff10113          	addi	sp,sp,-1
    80000480:	0820c733          	pack	a4,ra,sp
    80000484:	00120213          	addi	tp,tp,1 # 1 <_start-0x7fffffff>
    80000488:	00200293          	li	t0,2
    8000048c:	fc521ae3          	bne	tp,t0,80000460 <test_20+0x8>
    80000490:	fff00393          	li	t2,-1
    80000494:	22771e63          	bne	a4,t2,800006d0 <fail>

0000000080000498 <test_21>:
    80000498:	01500193          	li	gp,21
    8000049c:	00000213          	li	tp,0
    800004a0:	7fff6137          	lui	sp,0x7fff6
    800004a4:	6771011b          	addiw	sp,sp,1655 # 7fff6677 <_start-0x9989>
    800004a8:	800000b7          	lui	ra,0x80000
    800004ac:	fff0809b          	addiw	ra,ra,-1 # 7fffffff <_start-0x1>
    800004b0:	0820c733          	pack	a4,ra,sp
    800004b4:	00120213          	addi	tp,tp,1 # 1 <_start-0x7fffffff>
    800004b8:	00200293          	li	t0,2
    800004bc:	fe5212e3          	bne	tp,t0,800004a0 <test_21+0x8>
    800004c0:	001003b7          	lui	t2,0x100
    800004c4:	fed3839b          	addiw	t2,t2,-19 # fffed <_start-0x7ff00013>
    800004c8:	00c39393          	slli	t2,t2,0xc
    800004cc:	cef38393          	addi	t2,t2,-785
    800004d0:	01f39393          	slli	t2,t2,0x1f
    800004d4:	fff38393          	addi	t2,t2,-1
    800004d8:	1e771c63          	bne	a4,t2,800006d0 <fail>

00000000800004dc <test_22>:
    800004dc:	01600193          	li	gp,22
    800004e0:	00000213          	li	tp,0
    800004e4:	00003137          	lui	sp,0x3
    800004e8:	2141011b          	addiw	sp,sp,532 # 3214 <_start-0x7fffcdec>
    800004ec:	800060b7          	lui	ra,0x80006
    800004f0:	8740809b          	addiw	ra,ra,-1932 # ffffffff80005874 <_end+0xffffffff00003874>
    800004f4:	00000013          	nop
    800004f8:	0820c733          	pack	a4,ra,sp
    800004fc:	00120213          	addi	tp,tp,1 # 1 <_start-0x7fffffff>
    80000500:	00200293          	li	t0,2
    80000504:	fe5210e3          	bne	tp,t0,800004e4 <test_22+0x8>
    80000508:	000063b7          	lui	t2,0x6
    8000050c:	4293839b          	addiw	t2,t2,1065 # 6429 <_start-0x7fff9bd7>
    80000510:	01239393          	slli	t2,t2,0x12
    80000514:	00338393          	addi	t2,t2,3
    80000518:	00d39393          	slli	t2,t2,0xd
    8000051c:	87438393          	addi	t2,t2,-1932
    80000520:	1a771863          	bne	a4,t2,800006d0 <fail>

0000000080000524 <test_23>:
    80000524:	01700193          	li	gp,23
    80000528:	00000213          	li	tp,0
    8000052c:	0010011b          	addiw	sp,zero,1
    80000530:	02011113          	slli	sp,sp,0x20
    80000534:	fff10113          	addi	sp,sp,-1
    80000538:	0010009b          	addiw	ra,zero,1
    8000053c:	02009093          	slli	ra,ra,0x20
    80000540:	fff08093          	addi	ra,ra,-1
    80000544:	00000013          	nop
    80000548:	00000013          	nop
    8000054c:	0820c733          	pack	a4,ra,sp
    80000550:	00120213          	addi	tp,tp,1 # 1 <_start-0x7fffffff>
    80000554:	00200293          	li	t0,2
    80000558:	fc521ae3          	bne	tp,t0,8000052c <test_23+0x8>
    8000055c:	fff00393          	li	t2,-1
    80000560:	16771863          	bne	a4,t2,800006d0 <fail>

0000000080000564 <test_24>:
    80000564:	01800193          	li	gp,24
    80000568:	00000213          	li	tp,0
    8000056c:	7fff8137          	lui	sp,0x7fff8
    80000570:	7511011b          	addiw	sp,sp,1873 # 7fff8751 <_start-0x78af>
    80000574:	00000013          	nop
    80000578:	800000b7          	lui	ra,0x80000
    8000057c:	fff0809b          	addiw	ra,ra,-1 # 7fffffff <_start-0x1>
    80000580:	0820c733          	pack	a4,ra,sp
    80000584:	00120213          	addi	tp,tp,1 # 1 <_start-0x7fffffff>
    80000588:	00200293          	li	t0,2
    8000058c:	fe5210e3          	bne	tp,t0,8000056c <test_24+0x8>
    80000590:	001003b7          	lui	t2,0x100
    80000594:	ff13839b          	addiw	t2,t2,-15 # ffff1 <_start-0x7ff0000f>
    80000598:	00c39393          	slli	t2,t2,0xc
    8000059c:	ea338393          	addi	t2,t2,-349
    800005a0:	01f39393          	slli	t2,t2,0x1f
    800005a4:	fff38393          	addi	t2,t2,-1
    800005a8:	12771463          	bne	a4,t2,800006d0 <fail>

00000000800005ac <test_25>:
    800005ac:	01900193          	li	gp,25
    800005b0:	00000213          	li	tp,0
    800005b4:	00000113          	li	sp,0
    800005b8:	00000013          	nop
    800005bc:	800000b7          	lui	ra,0x80000
    800005c0:	00000013          	nop
    800005c4:	0820c733          	pack	a4,ra,sp
    800005c8:	00120213          	addi	tp,tp,1 # 1 <_start-0x7fffffff>
    800005cc:	00200293          	li	t0,2
    800005d0:	fe5212e3          	bne	tp,t0,800005b4 <test_25+0x8>
    800005d4:	0010039b          	addiw	t2,zero,1
    800005d8:	01f39393          	slli	t2,t2,0x1f
    800005dc:	0e771a63          	bne	a4,t2,800006d0 <fail>

00000000800005e0 <test_26>:
    800005e0:	01a00193          	li	gp,26
    800005e4:	00000213          	li	tp,0
    800005e8:	00100137          	lui	sp,0x100
    800005ec:	ffd1011b          	addiw	sp,sp,-3 # ffffd <_start-0x7ff00003>
    800005f0:	00c11113          	slli	sp,sp,0xc
    800005f4:	cdd10113          	addi	sp,sp,-803
    800005f8:	00000013          	nop
    800005fc:	00000013          	nop
    80000600:	0010009b          	addiw	ra,zero,1
    80000604:	02009093          	slli	ra,ra,0x20
    80000608:	fff08093          	addi	ra,ra,-1 # ffffffff7fffffff <_end+0xfffffffeffffdfff>
    8000060c:	0820c733          	pack	a4,ra,sp
    80000610:	00120213          	addi	tp,tp,1 # 1 <_start-0x7fffffff>
    80000614:	00200293          	li	t0,2
    80000618:	fc5218e3          	bne	tp,t0,800005e8 <test_26+0x8>
    8000061c:	ffffe3b7          	lui	t2,0xffffe
    80000620:	66f3839b          	addiw	t2,t2,1647 # ffffffffffffe66f <_end+0xffffffff7fffc66f>
    80000624:	02139393          	slli	t2,t2,0x21
    80000628:	fff38393          	addi	t2,t2,-1
    8000062c:	0a771263          	bne	a4,t2,800006d0 <fail>

0000000080000630 <test_27>:
    80000630:	01b00193          	li	gp,27
    80000634:	ffff00b7          	lui	ra,0xffff0
    80000638:	0330809b          	addiw	ra,ra,51 # ffffffffffff0033 <_end+0xffffffff7ffee033>
    8000063c:	08104133          	pack	sp,zero,ra
    80000640:	ffff03b7          	lui	t2,0xffff0
    80000644:	0333839b          	addiw	t2,t2,51 # ffffffffffff0033 <_end+0xffffffff7ffee033>
    80000648:	02039393          	slli	t2,t2,0x20
    8000064c:	08711263          	bne	sp,t2,800006d0 <fail>

0000000080000650 <test_28>:
    80000650:	01c00193          	li	gp,28
    80000654:	000100b7          	lui	ra,0x10
    80000658:	fff0809b          	addiw	ra,ra,-1 # ffff <_start-0x7fff0001>
    8000065c:	0800c133          	pack	sp,ra,zero
    80000660:	000103b7          	lui	t2,0x10
    80000664:	fff3839b          	addiw	t2,t2,-1 # ffff <_start-0x7fff0001>
    80000668:	06711463          	bne	sp,t2,800006d0 <fail>

000000008000066c <test_29>:
    8000066c:	01d00193          	li	gp,29
    80000670:	080040b3          	pack	ra,zero,zero
    80000674:	00000393          	li	t2,0
    80000678:	04709c63          	bne	ra,t2,800006d0 <fail>

000000008000067c <test_30>:
    8000067c:	01e00193          	li	gp,30
    80000680:	002470b7          	lui	ra,0x247
    80000684:	8ad0809b          	addiw	ra,ra,-1875 # 2468ad <_start-0x7fdb9753>
    80000688:	00e09093          	slli	ra,ra,0xe
    8000068c:	c0908093          	addi	ra,ra,-1015
    80000690:	00d09093          	slli	ra,ra,0xd
    80000694:	34508093          	addi	ra,ra,837
    80000698:	00c09093          	slli	ra,ra,0xc
    8000069c:	67808093          	addi	ra,ra,1656
    800006a0:	ff9ac137          	lui	sp,0xff9ac
    800006a4:	cdf1011b          	addiw	sp,sp,-801 # ffffffffff9abcdf <_end+0xffffffff7f9a9cdf>
    800006a8:	00f11113          	slli	sp,sp,0xf
    800006ac:	80910113          	addi	sp,sp,-2039
    800006b0:	00d11113          	slli	sp,sp,0xd
    800006b4:	34510113          	addi	sp,sp,837
    800006b8:	00c11113          	slli	sp,sp,0xc
    800006bc:	67810113          	addi	sp,sp,1656
    800006c0:	0820c033          	pack	zero,ra,sp
    800006c4:	00000393          	li	t2,0
    800006c8:	00701463          	bne	zero,t2,800006d0 <fail>
    800006cc:	00301663          	bne	zero,gp,800006d8 <pass>

00000000800006d0 <fail>:
    800006d0:	00100513          	li	a0,1
    800006d4:	00c0006f          	j	800006e0 <halt>

00000000800006d8 <pass>:
    800006d8:	00000513          	li	a0,0
    800006dc:	0040006f          	j	800006e0 <halt>

00000000800006e0 <halt>:
    800006e0:	0000006f          	j	800006e0 <halt>
    800006e4:	0000                	.insn	2, 0x
    800006e6:	0000                	.insn	2, 0x
    800006e8:	0000                	.insn	2, 0x
    800006ea:	0000                	.insn	2, 0x
    800006ec:	0000                	.insn	2, 0x
    800006ee:	0000                	.insn	2, 0x
    800006f0:	0000                	.insn	2, 0x
    800006f2:	0000                	.insn	2, 0x
    800006f4:	0000                	.insn	2, 0x
    800006f6:	0000                	.insn	2, 0x
    800006f8:	0000                	.insn	2, 0x
    800006fa:	0000                	.insn	2, 0x
    800006fc:	0000                	.insn	2, 0x
    800006fe:	0000                	.insn	2, 0x
    80000700:	0000                	.insn	2, 0x
    80000702:	0000                	.insn	2, 0x
