
rv32mi-p-ma_addr:     file format elf32-littleriscv


Disassembly of section .text.init:

80000000 <_start>:
80000000:	00002417          	auipc	s0,0x2
80000004:	00040413          	mv	s0,s0
80000008:	00400493          	li	s1,4
8000000c:	00200193          	li	gp,2
80000010:	00000397          	auipc	t2,0x0
80000014:	01c38393          	addi	t2,t2,28 # 8000002c <_start+0x2c>
80000018:	00140313          	addi	t1,s0,1 # 80002001 <begin_signature+0x1>
8000001c:	00141303          	lh	t1,1(s0)
80000020:	ffffc3b7          	lui	t2,0xffffc
80000024:	bcc38393          	addi	t2,t2,-1076 # ffffbbcc <_end+0x7fff9abc>
80000028:	14731e63          	bne	t1,t2,80000184 <fail>
8000002c:	00300193          	li	gp,3
80000030:	00000397          	auipc	t2,0x0
80000034:	01c38393          	addi	t2,t2,28 # 8000004c <_start+0x4c>
80000038:	00140313          	addi	t1,s0,1
8000003c:	00145303          	lhu	t1,1(s0)
80000040:	0000c3b7          	lui	t2,0xc
80000044:	bcc38393          	addi	t2,t2,-1076 # bbcc <_start-0x7fff4434>
80000048:	12731e63          	bne	t1,t2,80000184 <fail>
8000004c:	00400193          	li	gp,4
80000050:	00000397          	auipc	t2,0x0
80000054:	01c38393          	addi	t2,t2,28 # 8000006c <_start+0x6c>
80000058:	00140313          	addi	t1,s0,1
8000005c:	00142303          	lw	t1,1(s0)
80000060:	99aac3b7          	lui	t2,0x99aac
80000064:	bcc38393          	addi	t2,t2,-1076 # 99aabbcc <_end+0x19aa9abc>
80000068:	10731e63          	bne	t1,t2,80000184 <fail>
8000006c:	00500193          	li	gp,5
80000070:	00000397          	auipc	t2,0x0
80000074:	01c38393          	addi	t2,t2,28 # 8000008c <_start+0x8c>
80000078:	00240313          	addi	t1,s0,2
8000007c:	00242303          	lw	t1,2(s0)
80000080:	8899b3b7          	lui	t2,0x8899b
80000084:	abb38393          	addi	t2,t2,-1349 # 8899aabb <_end+0x89989ab>
80000088:	0e731e63          	bne	t1,t2,80000184 <fail>
8000008c:	00600193          	li	gp,6
80000090:	00000397          	auipc	t2,0x0
80000094:	01c38393          	addi	t2,t2,28 # 800000ac <_start+0xac>
80000098:	00340313          	addi	t1,s0,3
8000009c:	00342303          	lw	t1,3(s0)
800000a0:	7788a3b7          	lui	t2,0x7788a
800000a4:	9aa38393          	addi	t2,t2,-1622 # 778899aa <_start-0x8776656>
800000a8:	0c731e63          	bne	t1,t2,80000184 <fail>
800000ac:	00600493          	li	s1,6
800000b0:	01600193          	li	gp,22
800000b4:	00000397          	auipc	t2,0x0
800000b8:	03038393          	addi	t2,t2,48 # 800000e4 <_start+0xe4>
800000bc:	00140313          	addi	t1,s0,1
800000c0:	000410a3          	sh	zero,1(s0)
800000c4:	00040303          	lb	t1,0(s0)
800000c8:	0a030e63          	beqz	t1,80000184 <fail>
800000cc:	00340303          	lb	t1,3(s0)
800000d0:	0a030a63          	beqz	t1,80000184 <fail>
800000d4:	00140303          	lb	t1,1(s0)
800000d8:	0a031663          	bnez	t1,80000184 <fail>
800000dc:	00240303          	lb	t1,2(s0)
800000e0:	0a031263          	bnez	t1,80000184 <fail>
800000e4:	01700193          	li	gp,23
800000e8:	00000397          	auipc	t2,0x0
800000ec:	03038393          	addi	t2,t2,48 # 80000118 <_start+0x118>
800000f0:	00540313          	addi	t1,s0,5
800000f4:	000422a3          	sw	zero,5(s0)
800000f8:	00440303          	lb	t1,4(s0)
800000fc:	08030463          	beqz	t1,80000184 <fail>
80000100:	00940303          	lb	t1,9(s0)
80000104:	08030063          	beqz	t1,80000184 <fail>
80000108:	00540303          	lb	t1,5(s0)
8000010c:	06031c63          	bnez	t1,80000184 <fail>
80000110:	00840303          	lb	t1,8(s0)
80000114:	06031863          	bnez	t1,80000184 <fail>
80000118:	01800193          	li	gp,24
8000011c:	00000397          	auipc	t2,0x0
80000120:	03038393          	addi	t2,t2,48 # 8000014c <_start+0x14c>
80000124:	00a40313          	addi	t1,s0,10
80000128:	00042523          	sw	zero,10(s0)
8000012c:	00940303          	lb	t1,9(s0)
80000130:	04030a63          	beqz	t1,80000184 <fail>
80000134:	00e40303          	lb	t1,14(s0)
80000138:	04030663          	beqz	t1,80000184 <fail>
8000013c:	00a40303          	lb	t1,10(s0)
80000140:	04031263          	bnez	t1,80000184 <fail>
80000144:	00d40303          	lb	t1,13(s0)
80000148:	02031e63          	bnez	t1,80000184 <fail>
8000014c:	01900193          	li	gp,25
80000150:	00000397          	auipc	t2,0x0
80000154:	03038393          	addi	t2,t2,48 # 80000180 <_start+0x180>
80000158:	00f40313          	addi	t1,s0,15
8000015c:	000427a3          	sw	zero,15(s0)
80000160:	00e40303          	lb	t1,14(s0)
80000164:	02030063          	beqz	t1,80000184 <fail>
80000168:	01340303          	lb	t1,19(s0)
8000016c:	00030c63          	beqz	t1,80000184 <fail>
80000170:	00f40303          	lb	t1,15(s0)
80000174:	00031863          	bnez	t1,80000184 <fail>
80000178:	01240303          	lb	t1,18(s0)
8000017c:	00031463          	bnez	t1,80000184 <fail>
80000180:	00301663          	bne	zero,gp,8000018c <pass>

80000184 <fail>:
80000184:	00100513          	li	a0,1
80000188:	0300006f          	j	800001b8 <halt>

8000018c <pass>:
8000018c:	00000513          	li	a0,0
80000190:	0280006f          	j	800001b8 <halt>
80000194:	00000013          	nop

80000198 <mtvec_handler>:
80000198:	342022f3          	csrr	t0,mcause
8000019c:	fe9294e3          	bne	t0,s1,80000184 <fail>
800001a0:	343022f3          	csrr	t0,mtval
800001a4:	fe6290e3          	bne	t0,t1,80000184 <fail>
800001a8:	00028283          	lb	t0,0(t0)
800001ac:	fc028ce3          	beqz	t0,80000184 <fail>
800001b0:	34139073          	csrw	mepc,t2
800001b4:	30200073          	mret

800001b8 <halt>:
800001b8:	0000006f          	j	800001b8 <halt>
800001bc:	0000                	unimp
800001be:	0000                	unimp
800001c0:	0000                	unimp
800001c2:	0000                	unimp

Disassembly of section .data:

80002000 <begin_signature>:
80002000:	ccdd                	beqz	s1,800020be <begin_signature+0xbe>
80002002:	8899aabb          	0x8899aabb
80002006:	44556677          	0x44556677
8000200a:	ee112233          	0xee112233
8000200e:	eeff                	0xeeff
80002010:	5050                	lw	a2,36(s0)
80002012:	5050                	lw	a2,36(s0)
80002014:	5050                	lw	a2,36(s0)
80002016:	5050                	lw	a2,36(s0)
80002018:	5050                	lw	a2,36(s0)
8000201a:	5050                	lw	a2,36(s0)
8000201c:	5050                	lw	a2,36(s0)
8000201e:	5050                	lw	a2,36(s0)
80002020:	5050                	lw	a2,36(s0)
80002022:	5050                	lw	a2,36(s0)
80002024:	5050                	lw	a2,36(s0)
80002026:	5050                	lw	a2,36(s0)
80002028:	5050                	lw	a2,36(s0)
8000202a:	5050                	lw	a2,36(s0)
8000202c:	5050                	lw	a2,36(s0)
8000202e:	5050                	lw	a2,36(s0)
80002030:	5050                	lw	a2,36(s0)
80002032:	5050                	lw	a2,36(s0)
80002034:	5050                	lw	a2,36(s0)
80002036:	5050                	lw	a2,36(s0)
80002038:	5050                	lw	a2,36(s0)
8000203a:	5050                	lw	a2,36(s0)
8000203c:	5050                	lw	a2,36(s0)
8000203e:	5050                	lw	a2,36(s0)
80002040:	5050                	lw	a2,36(s0)
80002042:	5050                	lw	a2,36(s0)
80002044:	5050                	lw	a2,36(s0)
80002046:	5050                	lw	a2,36(s0)
80002048:	5050                	lw	a2,36(s0)
8000204a:	5050                	lw	a2,36(s0)
8000204c:	5050                	lw	a2,36(s0)
8000204e:	5050                	lw	a2,36(s0)
80002050:	5050                	lw	a2,36(s0)
80002052:	5050                	lw	a2,36(s0)
80002054:	5050                	lw	a2,36(s0)
80002056:	5050                	lw	a2,36(s0)
80002058:	5050                	lw	a2,36(s0)
8000205a:	5050                	lw	a2,36(s0)
8000205c:	5050                	lw	a2,36(s0)
8000205e:	5050                	lw	a2,36(s0)
80002060:	5050                	lw	a2,36(s0)
80002062:	5050                	lw	a2,36(s0)
80002064:	5050                	lw	a2,36(s0)
80002066:	5050                	lw	a2,36(s0)
80002068:	5050                	lw	a2,36(s0)
8000206a:	5050                	lw	a2,36(s0)
8000206c:	5050                	lw	a2,36(s0)
8000206e:	5050                	lw	a2,36(s0)
80002070:	5050                	lw	a2,36(s0)
80002072:	5050                	lw	a2,36(s0)
80002074:	5050                	lw	a2,36(s0)
80002076:	5050                	lw	a2,36(s0)
80002078:	5050                	lw	a2,36(s0)
8000207a:	5050                	lw	a2,36(s0)
8000207c:	5050                	lw	a2,36(s0)
8000207e:	5050                	lw	a2,36(s0)
80002080:	5050                	lw	a2,36(s0)
80002082:	5050                	lw	a2,36(s0)
80002084:	5050                	lw	a2,36(s0)
80002086:	5050                	lw	a2,36(s0)
80002088:	5050                	lw	a2,36(s0)
8000208a:	5050                	lw	a2,36(s0)
8000208c:	5050                	lw	a2,36(s0)
8000208e:	5050                	lw	a2,36(s0)
80002090:	5050                	lw	a2,36(s0)
80002092:	5050                	lw	a2,36(s0)
80002094:	5050                	lw	a2,36(s0)
80002096:	5050                	lw	a2,36(s0)
80002098:	5050                	lw	a2,36(s0)
8000209a:	5050                	lw	a2,36(s0)
8000209c:	5050                	lw	a2,36(s0)
8000209e:	5050                	lw	a2,36(s0)
800020a0:	5050                	lw	a2,36(s0)
800020a2:	5050                	lw	a2,36(s0)
800020a4:	5050                	lw	a2,36(s0)
800020a6:	5050                	lw	a2,36(s0)
800020a8:	5050                	lw	a2,36(s0)
800020aa:	5050                	lw	a2,36(s0)
800020ac:	5050                	lw	a2,36(s0)
800020ae:	5050                	lw	a2,36(s0)
800020b0:	5050                	lw	a2,36(s0)
800020b2:	5050                	lw	a2,36(s0)
800020b4:	5050                	lw	a2,36(s0)
800020b6:	5050                	lw	a2,36(s0)
800020b8:	5050                	lw	a2,36(s0)
800020ba:	5050                	lw	a2,36(s0)
800020bc:	5050                	lw	a2,36(s0)
800020be:	5050                	lw	a2,36(s0)
800020c0:	5050                	lw	a2,36(s0)
800020c2:	5050                	lw	a2,36(s0)
800020c4:	5050                	lw	a2,36(s0)
800020c6:	5050                	lw	a2,36(s0)
800020c8:	5050                	lw	a2,36(s0)
800020ca:	5050                	lw	a2,36(s0)
800020cc:	5050                	lw	a2,36(s0)
800020ce:	5050                	lw	a2,36(s0)
800020d0:	5050                	lw	a2,36(s0)
800020d2:	5050                	lw	a2,36(s0)
800020d4:	5050                	lw	a2,36(s0)
800020d6:	5050                	lw	a2,36(s0)
800020d8:	5050                	lw	a2,36(s0)
800020da:	5050                	lw	a2,36(s0)
800020dc:	5050                	lw	a2,36(s0)
800020de:	5050                	lw	a2,36(s0)
800020e0:	5050                	lw	a2,36(s0)
800020e2:	5050                	lw	a2,36(s0)
800020e4:	5050                	lw	a2,36(s0)
800020e6:	5050                	lw	a2,36(s0)
800020e8:	5050                	lw	a2,36(s0)
800020ea:	5050                	lw	a2,36(s0)
800020ec:	5050                	lw	a2,36(s0)
800020ee:	5050                	lw	a2,36(s0)
800020f0:	5050                	lw	a2,36(s0)
800020f2:	5050                	lw	a2,36(s0)
800020f4:	5050                	lw	a2,36(s0)
800020f6:	5050                	lw	a2,36(s0)
800020f8:	5050                	lw	a2,36(s0)
800020fa:	5050                	lw	a2,36(s0)
800020fc:	5050                	lw	a2,36(s0)
800020fe:	5050                	lw	a2,36(s0)
80002100:	5050                	lw	a2,36(s0)
80002102:	5050                	lw	a2,36(s0)
80002104:	5050                	lw	a2,36(s0)
80002106:	5050                	lw	a2,36(s0)
80002108:	5050                	lw	a2,36(s0)
8000210a:	5050                	lw	a2,36(s0)
8000210c:	5050                	lw	a2,36(s0)
8000210e:	0050                	addi	a2,sp,4
