
rv64uzbs-p-bseti:     file format elf64-littleriscv


Disassembly of section .text.init:

0000000080000000 <_start>:
    80000000:	00200193          	li	gp,2
    80000004:	000106b7          	lui	a3,0x10
    80000008:	f016869b          	addiw	a3,a3,-255
    8000000c:	01069693          	slli	a3,a3,0x10
    80000010:	f0068693          	addi	a3,a3,-256 # ff00 <_start-0x7fff0100>
    80000014:	28069713          	0x28069713
    80000018:	000103b7          	lui	t2,0x10
    8000001c:	f013839b          	addiw	t2,t2,-255
    80000020:	01039393          	slli	t2,t2,0x10
    80000024:	f0138393          	addi	t2,t2,-255 # ff01 <_start-0x7fff00ff>
    80000028:	36771a63          	bne	a4,t2,8000039c <fail>

000000008000002c <test_3>:
    8000002c:	00300193          	li	gp,3
    80000030:	00ff06b7          	lui	a3,0xff0
    80000034:	0ff6869b          	addiw	a3,a3,255
    80000038:	28169713          	0x28169713
    8000003c:	00ff03b7          	lui	t2,0xff0
    80000040:	0ff3839b          	addiw	t2,t2,255
    80000044:	34771c63          	bne	a4,t2,8000039c <fail>

0000000080000048 <test_4>:
    80000048:	00400193          	li	gp,4
    8000004c:	000106b7          	lui	a3,0x10
    80000050:	f016869b          	addiw	a3,a3,-255
    80000054:	01069693          	slli	a3,a3,0x10
    80000058:	f0068693          	addi	a3,a3,-256 # ff00 <_start-0x7fff0100>
    8000005c:	28869713          	0x28869713
    80000060:	000103b7          	lui	t2,0x10
    80000064:	f013839b          	addiw	t2,t2,-255
    80000068:	01039393          	slli	t2,t2,0x10
    8000006c:	f0038393          	addi	t2,t2,-256 # ff00 <_start-0x7fff0100>
    80000070:	32771663          	bne	a4,t2,8000039c <fail>

0000000080000074 <test_5>:
    80000074:	00500193          	li	gp,5
    80000078:	0ff016b7          	lui	a3,0xff01
    8000007c:	ff06869b          	addiw	a3,a3,-16
    80000080:	28e69713          	0x28e69713
    80000084:	0ff053b7          	lui	t2,0xff05
    80000088:	ff03839b          	addiw	t2,t2,-16
    8000008c:	30771863          	bne	a4,t2,8000039c <fail>

0000000080000090 <test_6>:
    80000090:	00600193          	li	gp,6
    80000094:	0ff016b7          	lui	a3,0xff01
    80000098:	ff06869b          	addiw	a3,a3,-16
    8000009c:	29b69713          	0x29b69713
    800000a0:	0ff013b7          	lui	t2,0xff01
    800000a4:	ff03839b          	addiw	t2,t2,-16
    800000a8:	2e771a63          	bne	a4,t2,8000039c <fail>

00000000800000ac <test_7>:
    800000ac:	00700193          	li	gp,7
    800000b0:	00100693          	li	a3,1
    800000b4:	28069713          	0x28069713
    800000b8:	00100393          	li	t2,1
    800000bc:	2e771063          	bne	a4,t2,8000039c <fail>

00000000800000c0 <test_8>:
    800000c0:	00800193          	li	gp,8
    800000c4:	00100693          	li	a3,1
    800000c8:	28169713          	0x28169713
    800000cc:	00300393          	li	t2,3
    800000d0:	2c771663          	bne	a4,t2,8000039c <fail>

00000000800000d4 <test_9>:
    800000d4:	00900193          	li	gp,9
    800000d8:	00100693          	li	a3,1
    800000dc:	28769713          	0x28769713
    800000e0:	08100393          	li	t2,129
    800000e4:	2a771c63          	bne	a4,t2,8000039c <fail>

00000000800000e8 <test_10>:
    800000e8:	00a00193          	li	gp,10
    800000ec:	00100693          	li	a3,1
    800000f0:	28e69713          	0x28e69713
    800000f4:	000043b7          	lui	t2,0x4
    800000f8:	0013839b          	addiw	t2,t2,1
    800000fc:	2a771063          	bne	a4,t2,8000039c <fail>

0000000080000100 <test_11>:
    80000100:	00b00193          	li	gp,11
    80000104:	00100693          	li	a3,1
    80000108:	29f69713          	0x29f69713
    8000010c:	0010039b          	addiw	t2,zero,1
    80000110:	01f39393          	slli	t2,t2,0x1f
    80000114:	00138393          	addi	t2,t2,1 # 4001 <_start-0x7fffbfff>
    80000118:	28771263          	bne	a4,t2,8000039c <fail>

000000008000011c <test_12>:
    8000011c:	00c00193          	li	gp,12
    80000120:	212126b7          	lui	a3,0x21212
    80000124:	1216869b          	addiw	a3,a3,289
    80000128:	28069713          	0x28069713
    8000012c:	212123b7          	lui	t2,0x21212
    80000130:	1213839b          	addiw	t2,t2,289
    80000134:	26771463          	bne	a4,t2,8000039c <fail>

0000000080000138 <test_13>:
    80000138:	00d00193          	li	gp,13
    8000013c:	212126b7          	lui	a3,0x21212
    80000140:	1216869b          	addiw	a3,a3,289
    80000144:	28169713          	0x28169713
    80000148:	212123b7          	lui	t2,0x21212
    8000014c:	1233839b          	addiw	t2,t2,291
    80000150:	24771663          	bne	a4,t2,8000039c <fail>

0000000080000154 <test_14>:
    80000154:	00e00193          	li	gp,14
    80000158:	212126b7          	lui	a3,0x21212
    8000015c:	1216869b          	addiw	a3,a3,289
    80000160:	28769713          	0x28769713
    80000164:	212123b7          	lui	t2,0x21212
    80000168:	1a13839b          	addiw	t2,t2,417
    8000016c:	22771863          	bne	a4,t2,8000039c <fail>

0000000080000170 <test_15>:
    80000170:	00f00193          	li	gp,15
    80000174:	212126b7          	lui	a3,0x21212
    80000178:	1216869b          	addiw	a3,a3,289
    8000017c:	28d69713          	0x28d69713
    80000180:	212123b7          	lui	t2,0x21212
    80000184:	1213839b          	addiw	t2,t2,289
    80000188:	20771a63          	bne	a4,t2,8000039c <fail>

000000008000018c <test_16>:
    8000018c:	01000193          	li	gp,16
    80000190:	000116b7          	lui	a3,0x11
    80000194:	9096869b          	addiw	a3,a3,-1783
    80000198:	00f69693          	slli	a3,a3,0xf
    8000019c:	48468693          	addi	a3,a3,1156 # 11484 <_start-0x7ffeeb7c>
    800001a0:	29f69713          	0x29f69713
    800001a4:	000113b7          	lui	t2,0x11
    800001a8:	9093839b          	addiw	t2,t2,-1783
    800001ac:	00f39393          	slli	t2,t2,0xf
    800001b0:	48438393          	addi	t2,t2,1156 # 11484 <_start-0x7ffeeb7c>
    800001b4:	1e771463          	bne	a4,t2,8000039c <fail>

00000000800001b8 <test_50>:
    800001b8:	03200193          	li	gp,50
    800001bc:	00100693          	li	a3,1
    800001c0:	2bf69713          	0x2bf69713
    800001c4:	fff0039b          	addiw	t2,zero,-1
    800001c8:	03f39393          	slli	t2,t2,0x3f
    800001cc:	00138393          	addi	t2,t2,1
    800001d0:	1c771663          	bne	a4,t2,8000039c <fail>

00000000800001d4 <test_51>:
    800001d4:	03300193          	li	gp,51
    800001d8:	fff00693          	li	a3,-1
    800001dc:	2a769713          	0x2a769713
    800001e0:	fff00393          	li	t2,-1
    800001e4:	1a771c63          	bne	a4,t2,8000039c <fail>

00000000800001e8 <test_52>:
    800001e8:	03400193          	li	gp,52
    800001ec:	fff0069b          	addiw	a3,zero,-1
    800001f0:	02069693          	slli	a3,a3,0x20
    800001f4:	2ab69713          	0x2ab69713
    800001f8:	fff0039b          	addiw	t2,zero,-1
    800001fc:	02039393          	slli	t2,t2,0x20
    80000200:	18771e63          	bne	a4,t2,8000039c <fail>

0000000080000204 <test_17>:
    80000204:	01100193          	li	gp,17
    80000208:	00100593          	li	a1,1
    8000020c:	28759593          	0x28759593
    80000210:	08100393          	li	t2,129
    80000214:	18759463          	bne	a1,t2,8000039c <fail>

0000000080000218 <test_18>:
    80000218:	01200193          	li	gp,18
    8000021c:	00000213          	li	tp,0
    80000220:	000100b7          	lui	ra,0x10
    80000224:	f010809b          	addiw	ra,ra,-255
    80000228:	01009093          	slli	ra,ra,0x10
    8000022c:	f0008093          	addi	ra,ra,-256 # ff00 <_start-0x7fff0100>
    80000230:	28009713          	0x28009713
    80000234:	00070313          	mv	t1,a4
    80000238:	00120213          	addi	tp,tp,1 # 1 <_start-0x7fffffff>
    8000023c:	00200293          	li	t0,2
    80000240:	fe5210e3          	bne	tp,t0,80000220 <test_18+0x8>
    80000244:	000103b7          	lui	t2,0x10
    80000248:	f013839b          	addiw	t2,t2,-255
    8000024c:	01039393          	slli	t2,t2,0x10
    80000250:	f0138393          	addi	t2,t2,-255 # ff01 <_start-0x7fff00ff>
    80000254:	14731463          	bne	t1,t2,8000039c <fail>

0000000080000258 <test_19>:
    80000258:	01300193          	li	gp,19
    8000025c:	00000213          	li	tp,0
    80000260:	00ff00b7          	lui	ra,0xff0
    80000264:	0ff0809b          	addiw	ra,ra,255
    80000268:	28109713          	0x28109713
    8000026c:	00000013          	nop
    80000270:	00070313          	mv	t1,a4
    80000274:	00120213          	addi	tp,tp,1 # 1 <_start-0x7fffffff>
    80000278:	00200293          	li	t0,2
    8000027c:	fe5212e3          	bne	tp,t0,80000260 <test_19+0x8>
    80000280:	00ff03b7          	lui	t2,0xff0
    80000284:	0ff3839b          	addiw	t2,t2,255
    80000288:	10731a63          	bne	t1,t2,8000039c <fail>

000000008000028c <test_20>:
    8000028c:	01400193          	li	gp,20
    80000290:	00000213          	li	tp,0
    80000294:	000100b7          	lui	ra,0x10
    80000298:	f010809b          	addiw	ra,ra,-255
    8000029c:	01009093          	slli	ra,ra,0x10
    800002a0:	f0008093          	addi	ra,ra,-256 # ff00 <_start-0x7fff0100>
    800002a4:	28809713          	0x28809713
    800002a8:	00000013          	nop
    800002ac:	00000013          	nop
    800002b0:	00070313          	mv	t1,a4
    800002b4:	00120213          	addi	tp,tp,1 # 1 <_start-0x7fffffff>
    800002b8:	00200293          	li	t0,2
    800002bc:	fc521ce3          	bne	tp,t0,80000294 <test_20+0x8>
    800002c0:	000103b7          	lui	t2,0x10
    800002c4:	f013839b          	addiw	t2,t2,-255
    800002c8:	01039393          	slli	t2,t2,0x10
    800002cc:	f0038393          	addi	t2,t2,-256 # ff00 <_start-0x7fff0100>
    800002d0:	0c731663          	bne	t1,t2,8000039c <fail>

00000000800002d4 <test_21>:
    800002d4:	01500193          	li	gp,21
    800002d8:	00000213          	li	tp,0
    800002dc:	000100b7          	lui	ra,0x10
    800002e0:	f010809b          	addiw	ra,ra,-255
    800002e4:	01009093          	slli	ra,ra,0x10
    800002e8:	f0008093          	addi	ra,ra,-256 # ff00 <_start-0x7fff0100>
    800002ec:	28809713          	0x28809713
    800002f0:	00120213          	addi	tp,tp,1 # 1 <_start-0x7fffffff>
    800002f4:	00200293          	li	t0,2
    800002f8:	fe5212e3          	bne	tp,t0,800002dc <test_21+0x8>
    800002fc:	000103b7          	lui	t2,0x10
    80000300:	f013839b          	addiw	t2,t2,-255
    80000304:	01039393          	slli	t2,t2,0x10
    80000308:	f0038393          	addi	t2,t2,-256 # ff00 <_start-0x7fff0100>
    8000030c:	08771863          	bne	a4,t2,8000039c <fail>

0000000080000310 <test_22>:
    80000310:	01600193          	li	gp,22
    80000314:	00000213          	li	tp,0
    80000318:	0ff010b7          	lui	ra,0xff01
    8000031c:	ff00809b          	addiw	ra,ra,-16
    80000320:	00000013          	nop
    80000324:	28e09713          	0x28e09713
    80000328:	00120213          	addi	tp,tp,1 # 1 <_start-0x7fffffff>
    8000032c:	00200293          	li	t0,2
    80000330:	fe5214e3          	bne	tp,t0,80000318 <test_22+0x8>
    80000334:	0ff053b7          	lui	t2,0xff05
    80000338:	ff03839b          	addiw	t2,t2,-16
    8000033c:	06771063          	bne	a4,t2,8000039c <fail>

0000000080000340 <test_23>:
    80000340:	01700193          	li	gp,23
    80000344:	00000213          	li	tp,0
    80000348:	0ff010b7          	lui	ra,0xff01
    8000034c:	ff00809b          	addiw	ra,ra,-16
    80000350:	00000013          	nop
    80000354:	00000013          	nop
    80000358:	29b09713          	0x29b09713
    8000035c:	00120213          	addi	tp,tp,1 # 1 <_start-0x7fffffff>
    80000360:	00200293          	li	t0,2
    80000364:	fe5212e3          	bne	tp,t0,80000348 <test_23+0x8>
    80000368:	0ff013b7          	lui	t2,0xff01
    8000036c:	ff03839b          	addiw	t2,t2,-16
    80000370:	02771663          	bne	a4,t2,8000039c <fail>

0000000080000374 <test_24>:
    80000374:	01800193          	li	gp,24
    80000378:	28f01093          	0x28f01093
    8000037c:	000083b7          	lui	t2,0x8
    80000380:	00709e63          	bne	ra,t2,8000039c <fail>

0000000080000384 <test_25>:
    80000384:	01900193          	li	gp,25
    80000388:	40000093          	li	ra,1024
    8000038c:	28a09013          	0x28a09013
    80000390:	00000393          	li	t2,0
    80000394:	00701463          	bne	zero,t2,8000039c <fail>
    80000398:	00301663          	bne	zero,gp,800003a4 <pass>

000000008000039c <fail>:
    8000039c:	00100513          	li	a0,1
    800003a0:	00c0006f          	j	800003ac <halt>

00000000800003a4 <pass>:
    800003a4:	00000513          	li	a0,0
    800003a8:	0040006f          	j	800003ac <halt>

00000000800003ac <halt>:
    800003ac:	0000006f          	j	800003ac <halt>
    800003b0:	0000                	unimp
    800003b2:	0000                	unimp
    800003b4:	0000                	unimp
    800003b6:	0000                	unimp
    800003b8:	0000                	unimp
    800003ba:	0000                	unimp
    800003bc:	0000                	unimp
    800003be:	0000                	unimp
    800003c0:	0000                	unimp
    800003c2:	0000                	unimp
