
rv64uzbs-p-bclri:     file format elf64-littleriscv


Disassembly of section .text.init:

0000000080000000 <_start>:
    80000000:	00200193          	li	gp,2
    80000004:	000106b7          	lui	a3,0x10
    80000008:	f016869b          	addiw	a3,a3,-255
    8000000c:	01069693          	slli	a3,a3,0x10
    80000010:	f0068693          	addi	a3,a3,-256 # ff00 <_start-0x7fff0100>
    80000014:	48069713          	0x48069713
    80000018:	000103b7          	lui	t2,0x10
    8000001c:	f013839b          	addiw	t2,t2,-255
    80000020:	01039393          	slli	t2,t2,0x10
    80000024:	f0038393          	addi	t2,t2,-256 # ff00 <_start-0x7fff0100>
    80000028:	34771e63          	bne	a4,t2,80000384 <fail>

000000008000002c <test_3>:
    8000002c:	00300193          	li	gp,3
    80000030:	00ff06b7          	lui	a3,0xff0
    80000034:	0ff6869b          	addiw	a3,a3,255
    80000038:	48169713          	0x48169713
    8000003c:	00ff03b7          	lui	t2,0xff0
    80000040:	0fd3839b          	addiw	t2,t2,253
    80000044:	34771063          	bne	a4,t2,80000384 <fail>

0000000080000048 <test_4>:
    80000048:	00400193          	li	gp,4
    8000004c:	000106b7          	lui	a3,0x10
    80000050:	f016869b          	addiw	a3,a3,-255
    80000054:	01069693          	slli	a3,a3,0x10
    80000058:	f0068693          	addi	a3,a3,-256 # ff00 <_start-0x7fff0100>
    8000005c:	48869713          	0x48869713
    80000060:	000103b7          	lui	t2,0x10
    80000064:	f013839b          	addiw	t2,t2,-255
    80000068:	01039393          	slli	t2,t2,0x10
    8000006c:	e0038393          	addi	t2,t2,-512 # fe00 <_start-0x7fff0200>
    80000070:	30771a63          	bne	a4,t2,80000384 <fail>

0000000080000074 <test_5>:
    80000074:	00500193          	li	gp,5
    80000078:	0ff016b7          	lui	a3,0xff01
    8000007c:	ff06869b          	addiw	a3,a3,-16
    80000080:	48e69713          	0x48e69713
    80000084:	0ff013b7          	lui	t2,0xff01
    80000088:	ff03839b          	addiw	t2,t2,-16
    8000008c:	2e771c63          	bne	a4,t2,80000384 <fail>

0000000080000090 <test_6>:
    80000090:	00600193          	li	gp,6
    80000094:	0ff016b7          	lui	a3,0xff01
    80000098:	ff06869b          	addiw	a3,a3,-16
    8000009c:	49b69713          	0x49b69713
    800000a0:	07f013b7          	lui	t2,0x7f01
    800000a4:	ff03839b          	addiw	t2,t2,-16
    800000a8:	2c771e63          	bne	a4,t2,80000384 <fail>

00000000800000ac <test_7>:
    800000ac:	00700193          	li	gp,7
    800000b0:	fff00693          	li	a3,-1
    800000b4:	48069713          	0x48069713
    800000b8:	ffe00393          	li	t2,-2
    800000bc:	2c771463          	bne	a4,t2,80000384 <fail>

00000000800000c0 <test_8>:
    800000c0:	00800193          	li	gp,8
    800000c4:	fff00693          	li	a3,-1
    800000c8:	48169713          	0x48169713
    800000cc:	ffd00393          	li	t2,-3
    800000d0:	2a771a63          	bne	a4,t2,80000384 <fail>

00000000800000d4 <test_9>:
    800000d4:	00900193          	li	gp,9
    800000d8:	fff00693          	li	a3,-1
    800000dc:	48769713          	0x48769713
    800000e0:	f7f00393          	li	t2,-129
    800000e4:	2a771063          	bne	a4,t2,80000384 <fail>

00000000800000e8 <test_10>:
    800000e8:	00a00193          	li	gp,10
    800000ec:	fff00693          	li	a3,-1
    800000f0:	48e69713          	0x48e69713
    800000f4:	ffffc3b7          	lui	t2,0xffffc
    800000f8:	fff3839b          	addiw	t2,t2,-1
    800000fc:	28771463          	bne	a4,t2,80000384 <fail>

0000000080000100 <test_11>:
    80000100:	00b00193          	li	gp,11
    80000104:	fff00693          	li	a3,-1
    80000108:	49b69713          	0x49b69713
    8000010c:	f80003b7          	lui	t2,0xf8000
    80000110:	fff3839b          	addiw	t2,t2,-1
    80000114:	26771863          	bne	a4,t2,80000384 <fail>

0000000080000118 <test_12>:
    80000118:	00c00193          	li	gp,12
    8000011c:	212126b7          	lui	a3,0x21212
    80000120:	1216869b          	addiw	a3,a3,289
    80000124:	48069713          	0x48069713
    80000128:	212123b7          	lui	t2,0x21212
    8000012c:	1203839b          	addiw	t2,t2,288
    80000130:	24771a63          	bne	a4,t2,80000384 <fail>

0000000080000134 <test_13>:
    80000134:	00d00193          	li	gp,13
    80000138:	212126b7          	lui	a3,0x21212
    8000013c:	1216869b          	addiw	a3,a3,289
    80000140:	48169713          	0x48169713
    80000144:	212123b7          	lui	t2,0x21212
    80000148:	1213839b          	addiw	t2,t2,289
    8000014c:	22771c63          	bne	a4,t2,80000384 <fail>

0000000080000150 <test_14>:
    80000150:	00e00193          	li	gp,14
    80000154:	212126b7          	lui	a3,0x21212
    80000158:	1216869b          	addiw	a3,a3,289
    8000015c:	48769713          	0x48769713
    80000160:	212123b7          	lui	t2,0x21212
    80000164:	1213839b          	addiw	t2,t2,289
    80000168:	20771e63          	bne	a4,t2,80000384 <fail>

000000008000016c <test_15>:
    8000016c:	00f00193          	li	gp,15
    80000170:	212126b7          	lui	a3,0x21212
    80000174:	1216869b          	addiw	a3,a3,289
    80000178:	48d69713          	0x48d69713
    8000017c:	212103b7          	lui	t2,0x21210
    80000180:	1213839b          	addiw	t2,t2,289
    80000184:	20771063          	bne	a4,t2,80000384 <fail>

0000000080000188 <test_16>:
    80000188:	01000193          	li	gp,16
    8000018c:	000116b7          	lui	a3,0x11
    80000190:	9096869b          	addiw	a3,a3,-1783
    80000194:	00f69693          	slli	a3,a3,0xf
    80000198:	48468693          	addi	a3,a3,1156 # 11484 <_start-0x7ffeeb7c>
    8000019c:	49f69713          	0x49f69713
    800001a0:	048483b7          	lui	t2,0x4848
    800001a4:	4843839b          	addiw	t2,t2,1156
    800001a8:	1c771e63          	bne	a4,t2,80000384 <fail>

00000000800001ac <test_50>:
    800001ac:	03200193          	li	gp,50
    800001b0:	00100693          	li	a3,1
    800001b4:	4bf69713          	0x4bf69713
    800001b8:	00100393          	li	t2,1
    800001bc:	1c771463          	bne	a4,t2,80000384 <fail>

00000000800001c0 <test_51>:
    800001c0:	03300193          	li	gp,51
    800001c4:	fff00693          	li	a3,-1
    800001c8:	4a769713          	0x4a769713
    800001cc:	fff0039b          	addiw	t2,zero,-1
    800001d0:	02739393          	slli	t2,t2,0x27
    800001d4:	fff38393          	addi	t2,t2,-1 # 4847fff <_start-0x7b7b8001>
    800001d8:	1a771663          	bne	a4,t2,80000384 <fail>

00000000800001dc <test_52>:
    800001dc:	03400193          	li	gp,52
    800001e0:	fff0069b          	addiw	a3,zero,-1
    800001e4:	02069693          	slli	a3,a3,0x20
    800001e8:	4ab69713          	0x4ab69713
    800001ec:	fffff3b7          	lui	t2,0xfffff
    800001f0:	7ff3839b          	addiw	t2,t2,2047
    800001f4:	02039393          	slli	t2,t2,0x20
    800001f8:	18771663          	bne	a4,t2,80000384 <fail>

00000000800001fc <test_17>:
    800001fc:	01100193          	li	gp,17
    80000200:	00100593          	li	a1,1
    80000204:	48759593          	0x48759593
    80000208:	00100393          	li	t2,1
    8000020c:	16759c63          	bne	a1,t2,80000384 <fail>

0000000080000210 <test_18>:
    80000210:	01200193          	li	gp,18
    80000214:	00000213          	li	tp,0
    80000218:	000100b7          	lui	ra,0x10
    8000021c:	f010809b          	addiw	ra,ra,-255
    80000220:	01009093          	slli	ra,ra,0x10
    80000224:	f0008093          	addi	ra,ra,-256 # ff00 <_start-0x7fff0100>
    80000228:	48809713          	0x48809713
    8000022c:	00070313          	mv	t1,a4
    80000230:	00120213          	addi	tp,tp,1 # 1 <_start-0x7fffffff>
    80000234:	00200293          	li	t0,2
    80000238:	fe5210e3          	bne	tp,t0,80000218 <test_18+0x8>
    8000023c:	000103b7          	lui	t2,0x10
    80000240:	f013839b          	addiw	t2,t2,-255
    80000244:	01039393          	slli	t2,t2,0x10
    80000248:	e0038393          	addi	t2,t2,-512 # fe00 <_start-0x7fff0200>
    8000024c:	12731c63          	bne	t1,t2,80000384 <fail>

0000000080000250 <test_19>:
    80000250:	01300193          	li	gp,19
    80000254:	00000213          	li	tp,0
    80000258:	0ff010b7          	lui	ra,0xff01
    8000025c:	ff00809b          	addiw	ra,ra,-16
    80000260:	48e09713          	0x48e09713
    80000264:	00000013          	nop
    80000268:	00070313          	mv	t1,a4
    8000026c:	00120213          	addi	tp,tp,1 # 1 <_start-0x7fffffff>
    80000270:	00200293          	li	t0,2
    80000274:	fe5212e3          	bne	tp,t0,80000258 <test_19+0x8>
    80000278:	0ff013b7          	lui	t2,0xff01
    8000027c:	ff03839b          	addiw	t2,t2,-16
    80000280:	10731263          	bne	t1,t2,80000384 <fail>

0000000080000284 <test_20>:
    80000284:	01400193          	li	gp,20
    80000288:	00000213          	li	tp,0
    8000028c:	0ff010b7          	lui	ra,0xff01
    80000290:	ff00809b          	addiw	ra,ra,-16
    80000294:	49b09713          	0x49b09713
    80000298:	00000013          	nop
    8000029c:	00000013          	nop
    800002a0:	00070313          	mv	t1,a4
    800002a4:	00120213          	addi	tp,tp,1 # 1 <_start-0x7fffffff>
    800002a8:	00200293          	li	t0,2
    800002ac:	fe5210e3          	bne	tp,t0,8000028c <test_20+0x8>
    800002b0:	07f013b7          	lui	t2,0x7f01
    800002b4:	ff03839b          	addiw	t2,t2,-16
    800002b8:	0c731663          	bne	t1,t2,80000384 <fail>

00000000800002bc <test_21>:
    800002bc:	01500193          	li	gp,21
    800002c0:	00000213          	li	tp,0
    800002c4:	000100b7          	lui	ra,0x10
    800002c8:	f010809b          	addiw	ra,ra,-255
    800002cc:	01009093          	slli	ra,ra,0x10
    800002d0:	f0008093          	addi	ra,ra,-256 # ff00 <_start-0x7fff0100>
    800002d4:	48809713          	0x48809713
    800002d8:	00120213          	addi	tp,tp,1 # 1 <_start-0x7fffffff>
    800002dc:	00200293          	li	t0,2
    800002e0:	fe5212e3          	bne	tp,t0,800002c4 <test_21+0x8>
    800002e4:	000103b7          	lui	t2,0x10
    800002e8:	f013839b          	addiw	t2,t2,-255
    800002ec:	01039393          	slli	t2,t2,0x10
    800002f0:	e0038393          	addi	t2,t2,-512 # fe00 <_start-0x7fff0200>
    800002f4:	08771863          	bne	a4,t2,80000384 <fail>

00000000800002f8 <test_22>:
    800002f8:	01600193          	li	gp,22
    800002fc:	00000213          	li	tp,0
    80000300:	0ff010b7          	lui	ra,0xff01
    80000304:	ff00809b          	addiw	ra,ra,-16
    80000308:	00000013          	nop
    8000030c:	48e09713          	0x48e09713
    80000310:	00120213          	addi	tp,tp,1 # 1 <_start-0x7fffffff>
    80000314:	00200293          	li	t0,2
    80000318:	fe5214e3          	bne	tp,t0,80000300 <test_22+0x8>
    8000031c:	0ff013b7          	lui	t2,0xff01
    80000320:	ff03839b          	addiw	t2,t2,-16
    80000324:	06771063          	bne	a4,t2,80000384 <fail>

0000000080000328 <test_23>:
    80000328:	01700193          	li	gp,23
    8000032c:	00000213          	li	tp,0
    80000330:	0ff010b7          	lui	ra,0xff01
    80000334:	ff00809b          	addiw	ra,ra,-16
    80000338:	00000013          	nop
    8000033c:	00000013          	nop
    80000340:	49b09713          	0x49b09713
    80000344:	00120213          	addi	tp,tp,1 # 1 <_start-0x7fffffff>
    80000348:	00200293          	li	t0,2
    8000034c:	fe5212e3          	bne	tp,t0,80000330 <test_23+0x8>
    80000350:	07f013b7          	lui	t2,0x7f01
    80000354:	ff03839b          	addiw	t2,t2,-16
    80000358:	02771663          	bne	a4,t2,80000384 <fail>

000000008000035c <test_24>:
    8000035c:	01800193          	li	gp,24
    80000360:	49f01093          	0x49f01093
    80000364:	00000393          	li	t2,0
    80000368:	00709e63          	bne	ra,t2,80000384 <fail>

000000008000036c <test_25>:
    8000036c:	01900193          	li	gp,25
    80000370:	02100093          	li	ra,33
    80000374:	49409013          	0x49409013
    80000378:	00000393          	li	t2,0
    8000037c:	00701463          	bne	zero,t2,80000384 <fail>
    80000380:	00301663          	bne	zero,gp,8000038c <pass>

0000000080000384 <fail>:
    80000384:	00100513          	li	a0,1
    80000388:	00c0006f          	j	80000394 <halt>

000000008000038c <pass>:
    8000038c:	00000513          	li	a0,0
    80000390:	0040006f          	j	80000394 <halt>

0000000080000394 <halt>:
    80000394:	0000006f          	j	80000394 <halt>
    80000398:	0000                	unimp
    8000039a:	0000                	unimp
    8000039c:	0000                	unimp
    8000039e:	0000                	unimp
    800003a0:	0000                	unimp
    800003a2:	0000                	unimp
    800003a4:	0000                	unimp
    800003a6:	0000                	unimp
    800003a8:	0000                	unimp
    800003aa:	0000                	unimp
    800003ac:	0000                	unimp
    800003ae:	0000                	unimp
    800003b0:	0000                	unimp
    800003b2:	0000                	unimp
    800003b4:	0000                	unimp
    800003b6:	0000                	unimp
    800003b8:	0000                	unimp
    800003ba:	0000                	unimp
    800003bc:	0000                	unimp
    800003be:	0000                	unimp
    800003c0:	0000                	unimp
    800003c2:	0000                	unimp
