
rv64uzbs-p-binvi:     file format elf64-littleriscv


Disassembly of section .text.init:

0000000080000000 <_start>:
    80000000:	00200193          	li	gp,2
    80000004:	00100693          	li	a3,1
    80000008:	68069713          	0x68069713
    8000000c:	00000393          	li	t2,0
    80000010:	30771863          	bne	a4,t2,80000320 <fail>

0000000080000014 <test_3>:
    80000014:	00300193          	li	gp,3
    80000018:	00100693          	li	a3,1
    8000001c:	68169713          	0x68169713
    80000020:	00300393          	li	t2,3
    80000024:	2e771e63          	bne	a4,t2,80000320 <fail>

0000000080000028 <test_4>:
    80000028:	00400193          	li	gp,4
    8000002c:	00100693          	li	a3,1
    80000030:	68769713          	0x68769713
    80000034:	08100393          	li	t2,129
    80000038:	2e771463          	bne	a4,t2,80000320 <fail>

000000008000003c <test_5>:
    8000003c:	00500193          	li	gp,5
    80000040:	00100693          	li	a3,1
    80000044:	68e69713          	0x68e69713
    80000048:	000043b7          	lui	t2,0x4
    8000004c:	0013839b          	addiw	t2,t2,1
    80000050:	2c771863          	bne	a4,t2,80000320 <fail>

0000000080000054 <test_6>:
    80000054:	00600193          	li	gp,6
    80000058:	00100693          	li	a3,1
    8000005c:	69f69713          	0x69f69713
    80000060:	0010039b          	addiw	t2,zero,1
    80000064:	01f39393          	slli	t2,t2,0x1f
    80000068:	00138393          	addi	t2,t2,1 # 4001 <_start-0x7fffbfff>
    8000006c:	2a771a63          	bne	a4,t2,80000320 <fail>

0000000080000070 <test_7>:
    80000070:	00700193          	li	gp,7
    80000074:	fff00693          	li	a3,-1
    80000078:	68069713          	0x68069713
    8000007c:	ffe00393          	li	t2,-2
    80000080:	2a771063          	bne	a4,t2,80000320 <fail>

0000000080000084 <test_8>:
    80000084:	00800193          	li	gp,8
    80000088:	fff00693          	li	a3,-1
    8000008c:	68169713          	0x68169713
    80000090:	ffd00393          	li	t2,-3
    80000094:	28771663          	bne	a4,t2,80000320 <fail>

0000000080000098 <test_9>:
    80000098:	00900193          	li	gp,9
    8000009c:	fff00693          	li	a3,-1
    800000a0:	68769713          	0x68769713
    800000a4:	f7f00393          	li	t2,-129
    800000a8:	26771c63          	bne	a4,t2,80000320 <fail>

00000000800000ac <test_10>:
    800000ac:	00a00193          	li	gp,10
    800000b0:	fff00693          	li	a3,-1
    800000b4:	68e69713          	0x68e69713
    800000b8:	ffffc3b7          	lui	t2,0xffffc
    800000bc:	fff3839b          	addiw	t2,t2,-1
    800000c0:	26771063          	bne	a4,t2,80000320 <fail>

00000000800000c4 <test_11>:
    800000c4:	00b00193          	li	gp,11
    800000c8:	fff00693          	li	a3,-1
    800000cc:	69f69713          	0x69f69713
    800000d0:	fff0039b          	addiw	t2,zero,-1
    800000d4:	01f39393          	slli	t2,t2,0x1f
    800000d8:	fff38393          	addi	t2,t2,-1 # ffffffffffffbfff <_end+0xffffffff7fff9fff>
    800000dc:	24771263          	bne	a4,t2,80000320 <fail>

00000000800000e0 <test_12>:
    800000e0:	00c00193          	li	gp,12
    800000e4:	212126b7          	lui	a3,0x21212
    800000e8:	1216869b          	addiw	a3,a3,289
    800000ec:	68069713          	0x68069713
    800000f0:	212123b7          	lui	t2,0x21212
    800000f4:	1203839b          	addiw	t2,t2,288
    800000f8:	22771463          	bne	a4,t2,80000320 <fail>

00000000800000fc <test_13>:
    800000fc:	00d00193          	li	gp,13
    80000100:	212126b7          	lui	a3,0x21212
    80000104:	1216869b          	addiw	a3,a3,289
    80000108:	68169713          	0x68169713
    8000010c:	212123b7          	lui	t2,0x21212
    80000110:	1233839b          	addiw	t2,t2,291
    80000114:	20771663          	bne	a4,t2,80000320 <fail>

0000000080000118 <test_14>:
    80000118:	00e00193          	li	gp,14
    8000011c:	212126b7          	lui	a3,0x21212
    80000120:	1216869b          	addiw	a3,a3,289
    80000124:	68769713          	0x68769713
    80000128:	212123b7          	lui	t2,0x21212
    8000012c:	1a13839b          	addiw	t2,t2,417
    80000130:	1e771863          	bne	a4,t2,80000320 <fail>

0000000080000134 <test_15>:
    80000134:	00f00193          	li	gp,15
    80000138:	212126b7          	lui	a3,0x21212
    8000013c:	1216869b          	addiw	a3,a3,289
    80000140:	68e69713          	0x68e69713
    80000144:	212163b7          	lui	t2,0x21216
    80000148:	1213839b          	addiw	t2,t2,289
    8000014c:	1c771a63          	bne	a4,t2,80000320 <fail>

0000000080000150 <test_16>:
    80000150:	01000193          	li	gp,16
    80000154:	212126b7          	lui	a3,0x21212
    80000158:	1216869b          	addiw	a3,a3,289
    8000015c:	69f69713          	0x69f69713
    80000160:	000513b7          	lui	t2,0x51
    80000164:	9093839b          	addiw	t2,t2,-1783
    80000168:	00d39393          	slli	t2,t2,0xd
    8000016c:	12138393          	addi	t2,t2,289 # 51121 <_start-0x7ffaeedf>
    80000170:	1a771863          	bne	a4,t2,80000320 <fail>

0000000080000174 <test_50>:
    80000174:	03200193          	li	gp,50
    80000178:	00100693          	li	a3,1
    8000017c:	6bf69713          	0x6bf69713
    80000180:	fff0039b          	addiw	t2,zero,-1
    80000184:	03f39393          	slli	t2,t2,0x3f
    80000188:	00138393          	addi	t2,t2,1
    8000018c:	18771a63          	bne	a4,t2,80000320 <fail>

0000000080000190 <test_51>:
    80000190:	03300193          	li	gp,51
    80000194:	fff00693          	li	a3,-1
    80000198:	6a769713          	0x6a769713
    8000019c:	fff0039b          	addiw	t2,zero,-1
    800001a0:	02739393          	slli	t2,t2,0x27
    800001a4:	fff38393          	addi	t2,t2,-1
    800001a8:	16771c63          	bne	a4,t2,80000320 <fail>

00000000800001ac <test_52>:
    800001ac:	03400193          	li	gp,52
    800001b0:	212126b7          	lui	a3,0x21212
    800001b4:	1216869b          	addiw	a3,a3,289
    800001b8:	6ab69713          	0x6ab69713
    800001bc:	400113b7          	lui	t2,0x40011
    800001c0:	9093839b          	addiw	t2,t2,-1783
    800001c4:	00d39393          	slli	t2,t2,0xd
    800001c8:	12138393          	addi	t2,t2,289 # 40011121 <_start-0x3ffeeedf>
    800001cc:	14771a63          	bne	a4,t2,80000320 <fail>

00000000800001d0 <test_17>:
    800001d0:	01100193          	li	gp,17
    800001d4:	00100593          	li	a1,1
    800001d8:	68759593          	0x68759593
    800001dc:	08100393          	li	t2,129
    800001e0:	14759063          	bne	a1,t2,80000320 <fail>

00000000800001e4 <test_18>:
    800001e4:	01200193          	li	gp,18
    800001e8:	00000213          	li	tp,0
    800001ec:	00100093          	li	ra,1
    800001f0:	68709713          	0x68709713
    800001f4:	00070313          	mv	t1,a4
    800001f8:	00120213          	addi	tp,tp,1 # 1 <_start-0x7fffffff>
    800001fc:	00200293          	li	t0,2
    80000200:	fe5216e3          	bne	tp,t0,800001ec <test_18+0x8>
    80000204:	08100393          	li	t2,129
    80000208:	10731c63          	bne	t1,t2,80000320 <fail>

000000008000020c <test_19>:
    8000020c:	01300193          	li	gp,19
    80000210:	00000213          	li	tp,0
    80000214:	00100093          	li	ra,1
    80000218:	68e09713          	0x68e09713
    8000021c:	00000013          	nop
    80000220:	00070313          	mv	t1,a4
    80000224:	00120213          	addi	tp,tp,1 # 1 <_start-0x7fffffff>
    80000228:	00200293          	li	t0,2
    8000022c:	fe5214e3          	bne	tp,t0,80000214 <test_19+0x8>
    80000230:	000043b7          	lui	t2,0x4
    80000234:	0013839b          	addiw	t2,t2,1
    80000238:	0e731463          	bne	t1,t2,80000320 <fail>

000000008000023c <test_20>:
    8000023c:	01400193          	li	gp,20
    80000240:	00000213          	li	tp,0
    80000244:	00100093          	li	ra,1
    80000248:	69f09713          	0x69f09713
    8000024c:	00000013          	nop
    80000250:	00000013          	nop
    80000254:	00070313          	mv	t1,a4
    80000258:	00120213          	addi	tp,tp,1 # 1 <_start-0x7fffffff>
    8000025c:	00200293          	li	t0,2
    80000260:	fe5212e3          	bne	tp,t0,80000244 <test_20+0x8>
    80000264:	0010039b          	addiw	t2,zero,1
    80000268:	01f39393          	slli	t2,t2,0x1f
    8000026c:	00138393          	addi	t2,t2,1 # 4001 <_start-0x7fffbfff>
    80000270:	0a731863          	bne	t1,t2,80000320 <fail>

0000000080000274 <test_21>:
    80000274:	01500193          	li	gp,21
    80000278:	00000213          	li	tp,0
    8000027c:	00100093          	li	ra,1
    80000280:	68709713          	0x68709713
    80000284:	00120213          	addi	tp,tp,1 # 1 <_start-0x7fffffff>
    80000288:	00200293          	li	t0,2
    8000028c:	fe5218e3          	bne	tp,t0,8000027c <test_21+0x8>
    80000290:	08100393          	li	t2,129
    80000294:	08771663          	bne	a4,t2,80000320 <fail>

0000000080000298 <test_22>:
    80000298:	01600193          	li	gp,22
    8000029c:	00000213          	li	tp,0
    800002a0:	00100093          	li	ra,1
    800002a4:	00000013          	nop
    800002a8:	68e09713          	0x68e09713
    800002ac:	00120213          	addi	tp,tp,1 # 1 <_start-0x7fffffff>
    800002b0:	00200293          	li	t0,2
    800002b4:	fe5216e3          	bne	tp,t0,800002a0 <test_22+0x8>
    800002b8:	000043b7          	lui	t2,0x4
    800002bc:	0013839b          	addiw	t2,t2,1
    800002c0:	06771063          	bne	a4,t2,80000320 <fail>

00000000800002c4 <test_23>:
    800002c4:	01700193          	li	gp,23
    800002c8:	00000213          	li	tp,0
    800002cc:	00100093          	li	ra,1
    800002d0:	00000013          	nop
    800002d4:	00000013          	nop
    800002d8:	69f09713          	0x69f09713
    800002dc:	00120213          	addi	tp,tp,1 # 1 <_start-0x7fffffff>
    800002e0:	00200293          	li	t0,2
    800002e4:	fe5214e3          	bne	tp,t0,800002cc <test_23+0x8>
    800002e8:	0010039b          	addiw	t2,zero,1
    800002ec:	01f39393          	slli	t2,t2,0x1f
    800002f0:	00138393          	addi	t2,t2,1 # 4001 <_start-0x7fffbfff>
    800002f4:	02771663          	bne	a4,t2,80000320 <fail>

00000000800002f8 <test_24>:
    800002f8:	01800193          	li	gp,24
    800002fc:	68f01093          	0x68f01093
    80000300:	000083b7          	lui	t2,0x8
    80000304:	00709e63          	bne	ra,t2,80000320 <fail>

0000000080000308 <test_25>:
    80000308:	01900193          	li	gp,25
    8000030c:	40000093          	li	ra,1024
    80000310:	68a09013          	0x68a09013
    80000314:	00000393          	li	t2,0
    80000318:	00701463          	bne	zero,t2,80000320 <fail>
    8000031c:	00301663          	bne	zero,gp,80000328 <pass>

0000000080000320 <fail>:
    80000320:	00100513          	li	a0,1
    80000324:	00c0006f          	j	80000330 <halt>

0000000080000328 <pass>:
    80000328:	00000513          	li	a0,0
    8000032c:	0040006f          	j	80000330 <halt>

0000000080000330 <halt>:
    80000330:	0000006f          	j	80000330 <halt>
    80000334:	0000                	unimp
    80000336:	0000                	unimp
    80000338:	0000                	unimp
    8000033a:	0000                	unimp
    8000033c:	0000                	unimp
    8000033e:	0000                	unimp
    80000340:	0000                	unimp
    80000342:	0000                	unimp
