
rv64uzbs-p-bset:     file format elf64-littleriscv


Disassembly of section .text.init:

0000000080000000 <_start>:
    80000000:	00200193          	li	gp,2
    80000004:	000105b7          	lui	a1,0x10
    80000008:	f015859b          	addiw	a1,a1,-255
    8000000c:	01059593          	slli	a1,a1,0x10
    80000010:	f0058593          	addi	a1,a1,-256 # ff00 <_start-0x7fff0100>
    80000014:	00000613          	li	a2,0
    80000018:	28c59733          	0x28c59733
    8000001c:	000103b7          	lui	t2,0x10
    80000020:	f013839b          	addiw	t2,t2,-255
    80000024:	01039393          	slli	t2,t2,0x10
    80000028:	f0138393          	addi	t2,t2,-255 # ff01 <_start-0x7fff00ff>
    8000002c:	74771663          	bne	a4,t2,80000778 <fail>

0000000080000030 <test_3>:
    80000030:	00300193          	li	gp,3
    80000034:	00ff05b7          	lui	a1,0xff0
    80000038:	0ff5859b          	addiw	a1,a1,255
    8000003c:	00100613          	li	a2,1
    80000040:	28c59733          	0x28c59733
    80000044:	00ff03b7          	lui	t2,0xff0
    80000048:	0ff3839b          	addiw	t2,t2,255
    8000004c:	72771663          	bne	a4,t2,80000778 <fail>

0000000080000050 <test_4>:
    80000050:	00400193          	li	gp,4
    80000054:	000105b7          	lui	a1,0x10
    80000058:	f015859b          	addiw	a1,a1,-255
    8000005c:	01059593          	slli	a1,a1,0x10
    80000060:	f0058593          	addi	a1,a1,-256 # ff00 <_start-0x7fff0100>
    80000064:	00800613          	li	a2,8
    80000068:	28c59733          	0x28c59733
    8000006c:	000103b7          	lui	t2,0x10
    80000070:	f013839b          	addiw	t2,t2,-255
    80000074:	01039393          	slli	t2,t2,0x10
    80000078:	f0038393          	addi	t2,t2,-256 # ff00 <_start-0x7fff0100>
    8000007c:	6e771e63          	bne	a4,t2,80000778 <fail>

0000000080000080 <test_5>:
    80000080:	00500193          	li	gp,5
    80000084:	0ff015b7          	lui	a1,0xff01
    80000088:	ff05859b          	addiw	a1,a1,-16
    8000008c:	00e00613          	li	a2,14
    80000090:	28c59733          	0x28c59733
    80000094:	0ff053b7          	lui	t2,0xff05
    80000098:	ff03839b          	addiw	t2,t2,-16
    8000009c:	6c771e63          	bne	a4,t2,80000778 <fail>

00000000800000a0 <test_6>:
    800000a0:	00600193          	li	gp,6
    800000a4:	0ff015b7          	lui	a1,0xff01
    800000a8:	ff05859b          	addiw	a1,a1,-16
    800000ac:	01b00613          	li	a2,27
    800000b0:	28c59733          	0x28c59733
    800000b4:	0ff013b7          	lui	t2,0xff01
    800000b8:	ff03839b          	addiw	t2,t2,-16
    800000bc:	6a771e63          	bne	a4,t2,80000778 <fail>

00000000800000c0 <test_7>:
    800000c0:	00700193          	li	gp,7
    800000c4:	00100593          	li	a1,1
    800000c8:	00000613          	li	a2,0
    800000cc:	28c59733          	0x28c59733
    800000d0:	00100393          	li	t2,1
    800000d4:	6a771263          	bne	a4,t2,80000778 <fail>

00000000800000d8 <test_8>:
    800000d8:	00800193          	li	gp,8
    800000dc:	00100593          	li	a1,1
    800000e0:	00100613          	li	a2,1
    800000e4:	28c59733          	0x28c59733
    800000e8:	00300393          	li	t2,3
    800000ec:	68771663          	bne	a4,t2,80000778 <fail>

00000000800000f0 <test_9>:
    800000f0:	00900193          	li	gp,9
    800000f4:	00100593          	li	a1,1
    800000f8:	00700613          	li	a2,7
    800000fc:	28c59733          	0x28c59733
    80000100:	08100393          	li	t2,129
    80000104:	66771a63          	bne	a4,t2,80000778 <fail>

0000000080000108 <test_10>:
    80000108:	00a00193          	li	gp,10
    8000010c:	00100593          	li	a1,1
    80000110:	00e00613          	li	a2,14
    80000114:	28c59733          	0x28c59733
    80000118:	000043b7          	lui	t2,0x4
    8000011c:	0013839b          	addiw	t2,t2,1
    80000120:	64771c63          	bne	a4,t2,80000778 <fail>

0000000080000124 <test_11>:
    80000124:	00b00193          	li	gp,11
    80000128:	00100593          	li	a1,1
    8000012c:	01f00613          	li	a2,31
    80000130:	28c59733          	0x28c59733
    80000134:	0010039b          	addiw	t2,zero,1
    80000138:	01f39393          	slli	t2,t2,0x1f
    8000013c:	00138393          	addi	t2,t2,1 # 4001 <_start-0x7fffbfff>
    80000140:	62771c63          	bne	a4,t2,80000778 <fail>

0000000080000144 <test_12>:
    80000144:	00c00193          	li	gp,12
    80000148:	212125b7          	lui	a1,0x21212
    8000014c:	1215859b          	addiw	a1,a1,289
    80000150:	00000613          	li	a2,0
    80000154:	28c59733          	0x28c59733
    80000158:	212123b7          	lui	t2,0x21212
    8000015c:	1213839b          	addiw	t2,t2,289
    80000160:	60771c63          	bne	a4,t2,80000778 <fail>

0000000080000164 <test_13>:
    80000164:	00d00193          	li	gp,13
    80000168:	212125b7          	lui	a1,0x21212
    8000016c:	1215859b          	addiw	a1,a1,289
    80000170:	00100613          	li	a2,1
    80000174:	28c59733          	0x28c59733
    80000178:	212123b7          	lui	t2,0x21212
    8000017c:	1233839b          	addiw	t2,t2,291
    80000180:	5e771c63          	bne	a4,t2,80000778 <fail>

0000000080000184 <test_14>:
    80000184:	00e00193          	li	gp,14
    80000188:	212125b7          	lui	a1,0x21212
    8000018c:	1215859b          	addiw	a1,a1,289
    80000190:	00700613          	li	a2,7
    80000194:	28c59733          	0x28c59733
    80000198:	212123b7          	lui	t2,0x21212
    8000019c:	1a13839b          	addiw	t2,t2,417
    800001a0:	5c771c63          	bne	a4,t2,80000778 <fail>

00000000800001a4 <test_15>:
    800001a4:	00f00193          	li	gp,15
    800001a8:	212125b7          	lui	a1,0x21212
    800001ac:	1215859b          	addiw	a1,a1,289
    800001b0:	00d00613          	li	a2,13
    800001b4:	28c59733          	0x28c59733
    800001b8:	212123b7          	lui	t2,0x21212
    800001bc:	1213839b          	addiw	t2,t2,289
    800001c0:	5a771c63          	bne	a4,t2,80000778 <fail>

00000000800001c4 <test_16>:
    800001c4:	01000193          	li	gp,16
    800001c8:	000115b7          	lui	a1,0x11
    800001cc:	9095859b          	addiw	a1,a1,-1783
    800001d0:	00f59593          	slli	a1,a1,0xf
    800001d4:	48458593          	addi	a1,a1,1156 # 11484 <_start-0x7ffeeb7c>
    800001d8:	01f00613          	li	a2,31
    800001dc:	28c59733          	0x28c59733
    800001e0:	000113b7          	lui	t2,0x11
    800001e4:	9093839b          	addiw	t2,t2,-1783
    800001e8:	00f39393          	slli	t2,t2,0xf
    800001ec:	48438393          	addi	t2,t2,1156 # 11484 <_start-0x7ffeeb7c>
    800001f0:	58771463          	bne	a4,t2,80000778 <fail>

00000000800001f4 <test_17>:
    800001f4:	01100193          	li	gp,17
    800001f8:	212125b7          	lui	a1,0x21212
    800001fc:	1215859b          	addiw	a1,a1,289
    80000200:	fc000613          	li	a2,-64
    80000204:	28c59733          	0x28c59733
    80000208:	212123b7          	lui	t2,0x21212
    8000020c:	1213839b          	addiw	t2,t2,289
    80000210:	56771463          	bne	a4,t2,80000778 <fail>

0000000080000214 <test_18>:
    80000214:	01200193          	li	gp,18
    80000218:	212125b7          	lui	a1,0x21212
    8000021c:	1215859b          	addiw	a1,a1,289
    80000220:	fc100613          	li	a2,-63
    80000224:	28c59733          	0x28c59733
    80000228:	212123b7          	lui	t2,0x21212
    8000022c:	1233839b          	addiw	t2,t2,291
    80000230:	54771463          	bne	a4,t2,80000778 <fail>

0000000080000234 <test_19>:
    80000234:	01300193          	li	gp,19
    80000238:	212125b7          	lui	a1,0x21212
    8000023c:	1215859b          	addiw	a1,a1,289
    80000240:	fc700613          	li	a2,-57
    80000244:	28c59733          	0x28c59733
    80000248:	212123b7          	lui	t2,0x21212
    8000024c:	1a13839b          	addiw	t2,t2,417
    80000250:	52771463          	bne	a4,t2,80000778 <fail>

0000000080000254 <test_20>:
    80000254:	01400193          	li	gp,20
    80000258:	000115b7          	lui	a1,0x11
    8000025c:	9095859b          	addiw	a1,a1,-1783
    80000260:	00f59593          	slli	a1,a1,0xf
    80000264:	48458593          	addi	a1,a1,1156 # 11484 <_start-0x7ffeeb7c>
    80000268:	fce00613          	li	a2,-50
    8000026c:	28c59733          	0x28c59733
    80000270:	000213b7          	lui	t2,0x21
    80000274:	2133839b          	addiw	t2,t2,531
    80000278:	00e39393          	slli	t2,t2,0xe
    8000027c:	48438393          	addi	t2,t2,1156 # 21484 <_start-0x7ffdeb7c>
    80000280:	4e771c63          	bne	a4,t2,80000778 <fail>

0000000080000284 <test_21>:
    80000284:	01500193          	li	gp,21
    80000288:	ff8915b7          	lui	a1,0xff891
    8000028c:	9095859b          	addiw	a1,a1,-1783
    80000290:	00e59593          	slli	a1,a1,0xe
    80000294:	21158593          	addi	a1,a1,529 # ffffffffff891211 <_end+0xffffffff7f88f211>
    80000298:	00c59593          	slli	a1,a1,0xc
    8000029c:	90958593          	addi	a1,a1,-1783
    800002a0:	00d59593          	slli	a1,a1,0xd
    800002a4:	12158593          	addi	a1,a1,289
    800002a8:	fff00613          	li	a2,-1
    800002ac:	28c59733          	0x28c59733
    800002b0:	ff8913b7          	lui	t2,0xff891
    800002b4:	9093839b          	addiw	t2,t2,-1783
    800002b8:	00e39393          	slli	t2,t2,0xe
    800002bc:	21138393          	addi	t2,t2,529 # ffffffffff891211 <_end+0xffffffff7f88f211>
    800002c0:	00c39393          	slli	t2,t2,0xc
    800002c4:	90938393          	addi	t2,t2,-1783
    800002c8:	00d39393          	slli	t2,t2,0xd
    800002cc:	12138393          	addi	t2,t2,289
    800002d0:	4a771463          	bne	a4,t2,80000778 <fail>

00000000800002d4 <test_50>:
    800002d4:	03200193          	li	gp,50
    800002d8:	00100593          	li	a1,1
    800002dc:	03f00613          	li	a2,63
    800002e0:	28c59733          	0x28c59733
    800002e4:	fff0039b          	addiw	t2,zero,-1
    800002e8:	03f39393          	slli	t2,t2,0x3f
    800002ec:	00138393          	addi	t2,t2,1
    800002f0:	48771463          	bne	a4,t2,80000778 <fail>

00000000800002f4 <test_51>:
    800002f4:	03300193          	li	gp,51
    800002f8:	fff00593          	li	a1,-1
    800002fc:	02700613          	li	a2,39
    80000300:	28c59733          	0x28c59733
    80000304:	fff00393          	li	t2,-1
    80000308:	46771863          	bne	a4,t2,80000778 <fail>

000000008000030c <test_52>:
    8000030c:	03400193          	li	gp,52
    80000310:	fff0059b          	addiw	a1,zero,-1
    80000314:	02059593          	slli	a1,a1,0x20
    80000318:	02b00613          	li	a2,43
    8000031c:	28c59733          	0x28c59733
    80000320:	fff0039b          	addiw	t2,zero,-1
    80000324:	02039393          	slli	t2,t2,0x20
    80000328:	44771863          	bne	a4,t2,80000778 <fail>

000000008000032c <test_22>:
    8000032c:	01600193          	li	gp,22
    80000330:	00100593          	li	a1,1
    80000334:	00700613          	li	a2,7
    80000338:	28c595b3          	0x28c595b3
    8000033c:	08100393          	li	t2,129
    80000340:	42759c63          	bne	a1,t2,80000778 <fail>

0000000080000344 <test_23>:
    80000344:	01700193          	li	gp,23
    80000348:	000055b7          	lui	a1,0x5
    8000034c:	5515859b          	addiw	a1,a1,1361
    80000350:	00e00613          	li	a2,14
    80000354:	28c59633          	0x28c59633
    80000358:	000053b7          	lui	t2,0x5
    8000035c:	5513839b          	addiw	t2,t2,1361
    80000360:	40761c63          	bne	a2,t2,80000778 <fail>

0000000080000364 <test_24>:
    80000364:	01800193          	li	gp,24
    80000368:	00300593          	li	a1,3
    8000036c:	28b595b3          	0x28b595b3
    80000370:	00b00393          	li	t2,11
    80000374:	40759263          	bne	a1,t2,80000778 <fail>

0000000080000378 <test_25>:
    80000378:	01900193          	li	gp,25
    8000037c:	00000213          	li	tp,0
    80000380:	000100b7          	lui	ra,0x10
    80000384:	f010809b          	addiw	ra,ra,-255
    80000388:	01009093          	slli	ra,ra,0x10
    8000038c:	f0008093          	addi	ra,ra,-256 # ff00 <_start-0x7fff0100>
    80000390:	00000113          	li	sp,0
    80000394:	28209733          	0x28209733
    80000398:	00070313          	mv	t1,a4
    8000039c:	00120213          	addi	tp,tp,1 # 1 <_start-0x7fffffff>
    800003a0:	00200293          	li	t0,2
    800003a4:	fc521ee3          	bne	tp,t0,80000380 <test_25+0x8>
    800003a8:	000103b7          	lui	t2,0x10
    800003ac:	f013839b          	addiw	t2,t2,-255
    800003b0:	01039393          	slli	t2,t2,0x10
    800003b4:	f0138393          	addi	t2,t2,-255 # ff01 <_start-0x7fff00ff>
    800003b8:	3c731063          	bne	t1,t2,80000778 <fail>

00000000800003bc <test_26>:
    800003bc:	01a00193          	li	gp,26
    800003c0:	00000213          	li	tp,0
    800003c4:	00ff00b7          	lui	ra,0xff0
    800003c8:	0ff0809b          	addiw	ra,ra,255
    800003cc:	00100113          	li	sp,1
    800003d0:	28209733          	0x28209733
    800003d4:	00000013          	nop
    800003d8:	00070313          	mv	t1,a4
    800003dc:	00120213          	addi	tp,tp,1 # 1 <_start-0x7fffffff>
    800003e0:	00200293          	li	t0,2
    800003e4:	fe5210e3          	bne	tp,t0,800003c4 <test_26+0x8>
    800003e8:	00ff03b7          	lui	t2,0xff0
    800003ec:	0ff3839b          	addiw	t2,t2,255
    800003f0:	38731463          	bne	t1,t2,80000778 <fail>

00000000800003f4 <test_27>:
    800003f4:	01b00193          	li	gp,27
    800003f8:	00000213          	li	tp,0
    800003fc:	000100b7          	lui	ra,0x10
    80000400:	f010809b          	addiw	ra,ra,-255
    80000404:	01009093          	slli	ra,ra,0x10
    80000408:	f0008093          	addi	ra,ra,-256 # ff00 <_start-0x7fff0100>
    8000040c:	00800113          	li	sp,8
    80000410:	28209733          	0x28209733
    80000414:	00000013          	nop
    80000418:	00000013          	nop
    8000041c:	00070313          	mv	t1,a4
    80000420:	00120213          	addi	tp,tp,1 # 1 <_start-0x7fffffff>
    80000424:	00200293          	li	t0,2
    80000428:	fc521ae3          	bne	tp,t0,800003fc <test_27+0x8>
    8000042c:	000103b7          	lui	t2,0x10
    80000430:	f013839b          	addiw	t2,t2,-255
    80000434:	01039393          	slli	t2,t2,0x10
    80000438:	f0038393          	addi	t2,t2,-256 # ff00 <_start-0x7fff0100>
    8000043c:	32731e63          	bne	t1,t2,80000778 <fail>

0000000080000440 <test_28>:
    80000440:	01c00193          	li	gp,28
    80000444:	00000213          	li	tp,0
    80000448:	000100b7          	lui	ra,0x10
    8000044c:	f010809b          	addiw	ra,ra,-255
    80000450:	01009093          	slli	ra,ra,0x10
    80000454:	f0008093          	addi	ra,ra,-256 # ff00 <_start-0x7fff0100>
    80000458:	00000113          	li	sp,0
    8000045c:	28209733          	0x28209733
    80000460:	00120213          	addi	tp,tp,1 # 1 <_start-0x7fffffff>
    80000464:	00200293          	li	t0,2
    80000468:	fe5210e3          	bne	tp,t0,80000448 <test_28+0x8>
    8000046c:	000103b7          	lui	t2,0x10
    80000470:	f013839b          	addiw	t2,t2,-255
    80000474:	01039393          	slli	t2,t2,0x10
    80000478:	f0138393          	addi	t2,t2,-255 # ff01 <_start-0x7fff00ff>
    8000047c:	2e771e63          	bne	a4,t2,80000778 <fail>

0000000080000480 <test_29>:
    80000480:	01d00193          	li	gp,29
    80000484:	00000213          	li	tp,0
    80000488:	00ff00b7          	lui	ra,0xff0
    8000048c:	0ff0809b          	addiw	ra,ra,255
    80000490:	00100113          	li	sp,1
    80000494:	00000013          	nop
    80000498:	28209733          	0x28209733
    8000049c:	00120213          	addi	tp,tp,1 # 1 <_start-0x7fffffff>
    800004a0:	00200293          	li	t0,2
    800004a4:	fe5212e3          	bne	tp,t0,80000488 <test_29+0x8>
    800004a8:	00ff03b7          	lui	t2,0xff0
    800004ac:	0ff3839b          	addiw	t2,t2,255
    800004b0:	2c771463          	bne	a4,t2,80000778 <fail>

00000000800004b4 <test_30>:
    800004b4:	01e00193          	li	gp,30
    800004b8:	00000213          	li	tp,0
    800004bc:	000100b7          	lui	ra,0x10
    800004c0:	f010809b          	addiw	ra,ra,-255
    800004c4:	01009093          	slli	ra,ra,0x10
    800004c8:	f0008093          	addi	ra,ra,-256 # ff00 <_start-0x7fff0100>
    800004cc:	00800113          	li	sp,8
    800004d0:	00000013          	nop
    800004d4:	00000013          	nop
    800004d8:	28209733          	0x28209733
    800004dc:	00120213          	addi	tp,tp,1 # 1 <_start-0x7fffffff>
    800004e0:	00200293          	li	t0,2
    800004e4:	fc521ce3          	bne	tp,t0,800004bc <test_30+0x8>
    800004e8:	000103b7          	lui	t2,0x10
    800004ec:	f013839b          	addiw	t2,t2,-255
    800004f0:	01039393          	slli	t2,t2,0x10
    800004f4:	f0038393          	addi	t2,t2,-256 # ff00 <_start-0x7fff0100>
    800004f8:	28771063          	bne	a4,t2,80000778 <fail>

00000000800004fc <test_31>:
    800004fc:	01f00193          	li	gp,31
    80000500:	00000213          	li	tp,0
    80000504:	000100b7          	lui	ra,0x10
    80000508:	f010809b          	addiw	ra,ra,-255
    8000050c:	01009093          	slli	ra,ra,0x10
    80000510:	f0008093          	addi	ra,ra,-256 # ff00 <_start-0x7fff0100>
    80000514:	00000013          	nop
    80000518:	00000113          	li	sp,0
    8000051c:	28209733          	0x28209733
    80000520:	00120213          	addi	tp,tp,1 # 1 <_start-0x7fffffff>
    80000524:	00200293          	li	t0,2
    80000528:	fc521ee3          	bne	tp,t0,80000504 <test_31+0x8>
    8000052c:	000103b7          	lui	t2,0x10
    80000530:	f013839b          	addiw	t2,t2,-255
    80000534:	01039393          	slli	t2,t2,0x10
    80000538:	f0138393          	addi	t2,t2,-255 # ff01 <_start-0x7fff00ff>
    8000053c:	22771e63          	bne	a4,t2,80000778 <fail>

0000000080000540 <test_32>:
    80000540:	02000193          	li	gp,32
    80000544:	00000213          	li	tp,0
    80000548:	00ff00b7          	lui	ra,0xff0
    8000054c:	0ff0809b          	addiw	ra,ra,255
    80000550:	00000013          	nop
    80000554:	00100113          	li	sp,1
    80000558:	00000013          	nop
    8000055c:	28209733          	0x28209733
    80000560:	00120213          	addi	tp,tp,1 # 1 <_start-0x7fffffff>
    80000564:	00200293          	li	t0,2
    80000568:	fe5210e3          	bne	tp,t0,80000548 <test_32+0x8>
    8000056c:	00ff03b7          	lui	t2,0xff0
    80000570:	0ff3839b          	addiw	t2,t2,255
    80000574:	20771263          	bne	a4,t2,80000778 <fail>

0000000080000578 <test_33>:
    80000578:	02100193          	li	gp,33
    8000057c:	00000213          	li	tp,0
    80000580:	000100b7          	lui	ra,0x10
    80000584:	f010809b          	addiw	ra,ra,-255
    80000588:	01009093          	slli	ra,ra,0x10
    8000058c:	f0008093          	addi	ra,ra,-256 # ff00 <_start-0x7fff0100>
    80000590:	00000013          	nop
    80000594:	00000013          	nop
    80000598:	00800113          	li	sp,8
    8000059c:	28209733          	0x28209733
    800005a0:	00120213          	addi	tp,tp,1 # 1 <_start-0x7fffffff>
    800005a4:	00200293          	li	t0,2
    800005a8:	fc521ce3          	bne	tp,t0,80000580 <test_33+0x8>
    800005ac:	000103b7          	lui	t2,0x10
    800005b0:	f013839b          	addiw	t2,t2,-255
    800005b4:	01039393          	slli	t2,t2,0x10
    800005b8:	f0038393          	addi	t2,t2,-256 # ff00 <_start-0x7fff0100>
    800005bc:	1a771e63          	bne	a4,t2,80000778 <fail>

00000000800005c0 <test_34>:
    800005c0:	02200193          	li	gp,34
    800005c4:	00000213          	li	tp,0
    800005c8:	00800113          	li	sp,8
    800005cc:	000100b7          	lui	ra,0x10
    800005d0:	f010809b          	addiw	ra,ra,-255
    800005d4:	01009093          	slli	ra,ra,0x10
    800005d8:	f0008093          	addi	ra,ra,-256 # ff00 <_start-0x7fff0100>
    800005dc:	28209733          	0x28209733
    800005e0:	00120213          	addi	tp,tp,1 # 1 <_start-0x7fffffff>
    800005e4:	00200293          	li	t0,2
    800005e8:	fe5210e3          	bne	tp,t0,800005c8 <test_34+0x8>
    800005ec:	000103b7          	lui	t2,0x10
    800005f0:	f013839b          	addiw	t2,t2,-255
    800005f4:	01039393          	slli	t2,t2,0x10
    800005f8:	f0038393          	addi	t2,t2,-256 # ff00 <_start-0x7fff0100>
    800005fc:	16771e63          	bne	a4,t2,80000778 <fail>

0000000080000600 <test_35>:
    80000600:	02300193          	li	gp,35
    80000604:	00000213          	li	tp,0
    80000608:	00e00113          	li	sp,14
    8000060c:	0ff010b7          	lui	ra,0xff01
    80000610:	ff00809b          	addiw	ra,ra,-16
    80000614:	00000013          	nop
    80000618:	28209733          	0x28209733
    8000061c:	00120213          	addi	tp,tp,1 # 1 <_start-0x7fffffff>
    80000620:	00200293          	li	t0,2
    80000624:	fe5212e3          	bne	tp,t0,80000608 <test_35+0x8>
    80000628:	0ff053b7          	lui	t2,0xff05
    8000062c:	ff03839b          	addiw	t2,t2,-16
    80000630:	14771463          	bne	a4,t2,80000778 <fail>

0000000080000634 <test_36>:
    80000634:	02400193          	li	gp,36
    80000638:	00000213          	li	tp,0
    8000063c:	01b00113          	li	sp,27
    80000640:	0ff010b7          	lui	ra,0xff01
    80000644:	ff00809b          	addiw	ra,ra,-16
    80000648:	00000013          	nop
    8000064c:	00000013          	nop
    80000650:	28209733          	0x28209733
    80000654:	00120213          	addi	tp,tp,1 # 1 <_start-0x7fffffff>
    80000658:	00200293          	li	t0,2
    8000065c:	fe5210e3          	bne	tp,t0,8000063c <test_36+0x8>
    80000660:	0ff013b7          	lui	t2,0xff01
    80000664:	ff03839b          	addiw	t2,t2,-16
    80000668:	10771863          	bne	a4,t2,80000778 <fail>

000000008000066c <test_37>:
    8000066c:	02500193          	li	gp,37
    80000670:	00000213          	li	tp,0
    80000674:	00800113          	li	sp,8
    80000678:	00000013          	nop
    8000067c:	000100b7          	lui	ra,0x10
    80000680:	f010809b          	addiw	ra,ra,-255
    80000684:	01009093          	slli	ra,ra,0x10
    80000688:	f0008093          	addi	ra,ra,-256 # ff00 <_start-0x7fff0100>
    8000068c:	28209733          	0x28209733
    80000690:	00120213          	addi	tp,tp,1 # 1 <_start-0x7fffffff>
    80000694:	00200293          	li	t0,2
    80000698:	fc521ee3          	bne	tp,t0,80000674 <test_37+0x8>
    8000069c:	000103b7          	lui	t2,0x10
    800006a0:	f013839b          	addiw	t2,t2,-255
    800006a4:	01039393          	slli	t2,t2,0x10
    800006a8:	f0038393          	addi	t2,t2,-256 # ff00 <_start-0x7fff0100>
    800006ac:	0c771663          	bne	a4,t2,80000778 <fail>

00000000800006b0 <test_38>:
    800006b0:	02600193          	li	gp,38
    800006b4:	00000213          	li	tp,0
    800006b8:	00e00113          	li	sp,14
    800006bc:	00000013          	nop
    800006c0:	0ff010b7          	lui	ra,0xff01
    800006c4:	ff00809b          	addiw	ra,ra,-16
    800006c8:	00000013          	nop
    800006cc:	28209733          	0x28209733
    800006d0:	00120213          	addi	tp,tp,1 # 1 <_start-0x7fffffff>
    800006d4:	00200293          	li	t0,2
    800006d8:	fe5210e3          	bne	tp,t0,800006b8 <test_38+0x8>
    800006dc:	0ff053b7          	lui	t2,0xff05
    800006e0:	ff03839b          	addiw	t2,t2,-16
    800006e4:	08771a63          	bne	a4,t2,80000778 <fail>

00000000800006e8 <test_39>:
    800006e8:	02700193          	li	gp,39
    800006ec:	00000213          	li	tp,0
    800006f0:	01b00113          	li	sp,27
    800006f4:	00000013          	nop
    800006f8:	00000013          	nop
    800006fc:	0ff010b7          	lui	ra,0xff01
    80000700:	ff00809b          	addiw	ra,ra,-16
    80000704:	28209733          	0x28209733
    80000708:	00120213          	addi	tp,tp,1 # 1 <_start-0x7fffffff>
    8000070c:	00200293          	li	t0,2
    80000710:	fe5210e3          	bne	tp,t0,800006f0 <test_39+0x8>
    80000714:	0ff013b7          	lui	t2,0xff01
    80000718:	ff03839b          	addiw	t2,t2,-16
    8000071c:	04771e63          	bne	a4,t2,80000778 <fail>

0000000080000720 <test_40>:
    80000720:	02800193          	li	gp,40
    80000724:	00f00093          	li	ra,15
    80000728:	28101133          	0x28101133
    8000072c:	000083b7          	lui	t2,0x8
    80000730:	04711463          	bne	sp,t2,80000778 <fail>

0000000080000734 <test_41>:
    80000734:	02900193          	li	gp,41
    80000738:	02000093          	li	ra,32
    8000073c:	28009133          	0x28009133
    80000740:	02100393          	li	t2,33
    80000744:	02711a63          	bne	sp,t2,80000778 <fail>

0000000080000748 <test_42>:
    80000748:	02a00193          	li	gp,42
    8000074c:	280010b3          	0x280010b3
    80000750:	00100393          	li	t2,1
    80000754:	02709263          	bne	ra,t2,80000778 <fail>

0000000080000758 <test_43>:
    80000758:	02b00193          	li	gp,43
    8000075c:	40000093          	li	ra,1024
    80000760:	00001137          	lui	sp,0x1
    80000764:	8001011b          	addiw	sp,sp,-2048
    80000768:	28209033          	0x28209033
    8000076c:	00000393          	li	t2,0
    80000770:	00701463          	bne	zero,t2,80000778 <fail>
    80000774:	00301663          	bne	zero,gp,80000780 <pass>

0000000080000778 <fail>:
    80000778:	00100513          	li	a0,1
    8000077c:	00c0006f          	j	80000788 <halt>

0000000080000780 <pass>:
    80000780:	00000513          	li	a0,0
    80000784:	0040006f          	j	80000788 <halt>

0000000080000788 <halt>:
    80000788:	0000006f          	j	80000788 <halt>
    8000078c:	0000                	unimp
    8000078e:	0000                	unimp
    80000790:	0000                	unimp
    80000792:	0000                	unimp
    80000794:	0000                	unimp
    80000796:	0000                	unimp
    80000798:	0000                	unimp
    8000079a:	0000                	unimp
    8000079c:	0000                	unimp
    8000079e:	0000                	unimp
    800007a0:	0000                	unimp
    800007a2:	0000                	unimp
    800007a4:	0000                	unimp
    800007a6:	0000                	unimp
    800007a8:	0000                	unimp
    800007aa:	0000                	unimp
    800007ac:	0000                	unimp
    800007ae:	0000                	unimp
    800007b0:	0000                	unimp
    800007b2:	0000                	unimp
    800007b4:	0000                	unimp
    800007b6:	0000                	unimp
    800007b8:	0000                	unimp
    800007ba:	0000                	unimp
    800007bc:	0000                	unimp
    800007be:	0000                	unimp
    800007c0:	0000                	unimp
    800007c2:	0000                	unimp
