
rv64uzfh-p-fcvt_w:     file format elf64-littleriscv


Disassembly of section .text.init:

0000000080000000 <_start>:
    80000000:	0480006f          	j	80000048 <reset_vector>

0000000080000004 <trap_vector>:
    80000004:	34202f73          	csrr	t5,mcause
    80000008:	00800f93          	li	t6,8
    8000000c:	03ff0863          	beq	t5,t6,8000003c <write_tohost>
    80000010:	00900f93          	li	t6,9
    80000014:	03ff0463          	beq	t5,t6,8000003c <write_tohost>
    80000018:	00b00f93          	li	t6,11
    8000001c:	03ff0063          	beq	t5,t6,8000003c <write_tohost>
    80000020:	00000f13          	li	t5,0
    80000024:	000f0463          	beqz	t5,8000002c <trap_vector+0x28>
    80000028:	000f0067          	jr	t5
    8000002c:	34202f73          	csrr	t5,mcause
    80000030:	000f5463          	bgez	t5,80000038 <handle_exception>
    80000034:	0040006f          	j	80000038 <handle_exception>

0000000080000038 <handle_exception>:
    80000038:	5391e193          	ori	gp,gp,1337

000000008000003c <write_tohost>:
    8000003c:	00001f17          	auipc	t5,0x1
    80000040:	fc3f2223          	sw	gp,-60(t5) # 80001000 <tohost>
    80000044:	ff9ff06f          	j	8000003c <write_tohost>

0000000080000048 <reset_vector>:
    80000048:	00000093          	li	ra,0
    8000004c:	00000113          	li	sp,0
    80000050:	00000193          	li	gp,0
    80000054:	00000213          	li	tp,0
    80000058:	00000293          	li	t0,0
    8000005c:	00000313          	li	t1,0
    80000060:	00000393          	li	t2,0
    80000064:	00000413          	li	s0,0
    80000068:	00000493          	li	s1,0
    8000006c:	00000513          	li	a0,0
    80000070:	00000593          	li	a1,0
    80000074:	00000613          	li	a2,0
    80000078:	00000693          	li	a3,0
    8000007c:	00000713          	li	a4,0
    80000080:	00000793          	li	a5,0
    80000084:	00000813          	li	a6,0
    80000088:	00000893          	li	a7,0
    8000008c:	00000913          	li	s2,0
    80000090:	00000993          	li	s3,0
    80000094:	00000a13          	li	s4,0
    80000098:	00000a93          	li	s5,0
    8000009c:	00000b13          	li	s6,0
    800000a0:	00000b93          	li	s7,0
    800000a4:	00000c13          	li	s8,0
    800000a8:	00000c93          	li	s9,0
    800000ac:	00000d13          	li	s10,0
    800000b0:	00000d93          	li	s11,0
    800000b4:	00000e13          	li	t3,0
    800000b8:	00000e93          	li	t4,0
    800000bc:	00000f13          	li	t5,0
    800000c0:	00000f93          	li	t6,0
    800000c4:	f1402573          	csrr	a0,mhartid
    800000c8:	00051063          	bnez	a0,800000c8 <reset_vector+0x80>
    800000cc:	00000297          	auipc	t0,0x0
    800000d0:	01028293          	addi	t0,t0,16 # 800000dc <reset_vector+0x94>
    800000d4:	30529073          	csrw	mtvec,t0
    800000d8:	18005073          	csrwi	satp,0
    800000dc:	00000297          	auipc	t0,0x0
    800000e0:	02428293          	addi	t0,t0,36 # 80000100 <reset_vector+0xb8>
    800000e4:	30529073          	csrw	mtvec,t0
    800000e8:	0010029b          	addiw	t0,zero,1
    800000ec:	03529293          	slli	t0,t0,0x35
    800000f0:	fff28293          	addi	t0,t0,-1
    800000f4:	3b029073          	csrw	pmpaddr0,t0
    800000f8:	01f00293          	li	t0,31
    800000fc:	3a029073          	csrw	pmpcfg0,t0
    80000100:	30405073          	csrwi	mie,0
    80000104:	00000297          	auipc	t0,0x0
    80000108:	01428293          	addi	t0,t0,20 # 80000118 <reset_vector+0xd0>
    8000010c:	30529073          	csrw	mtvec,t0
    80000110:	30205073          	csrwi	medeleg,0
    80000114:	30305073          	csrwi	mideleg,0
    80000118:	00000193          	li	gp,0
    8000011c:	00000297          	auipc	t0,0x0
    80000120:	ee828293          	addi	t0,t0,-280 # 80000004 <trap_vector>
    80000124:	30529073          	csrw	mtvec,t0
    80000128:	00100513          	li	a0,1
    8000012c:	01f51513          	slli	a0,a0,0x1f
    80000130:	00055663          	bgez	a0,8000013c <reset_vector+0xf4>
    80000134:	00000513          	li	a0,0
    80000138:	7ac0006f          	j	800008e4 <halt>
    8000013c:	00000293          	li	t0,0
    80000140:	00028a63          	beqz	t0,80000154 <reset_vector+0x10c>
    80000144:	10529073          	csrw	stvec,t0
    80000148:	0000b2b7          	lui	t0,0xb
    8000014c:	1092829b          	addiw	t0,t0,265 # b109 <_start-0x7fff4ef7>
    80000150:	30229073          	csrw	medeleg,t0
    80000154:	30005073          	csrwi	mstatus,0
    80000158:	00002537          	lui	a0,0x2
    8000015c:	30052073          	csrs	mstatus,a0
    80000160:	00305073          	csrwi	fcsr,0
    80000164:	00000297          	auipc	t0,0x0
    80000168:	01428293          	addi	t0,t0,20 # 80000178 <test_2>
    8000016c:	34129073          	csrw	mepc,t0
    80000170:	f1402573          	csrr	a0,mhartid
    80000174:	30200073          	mret

0000000080000178 <test_2>:
    80000178:	00200193          	li	gp,2
    8000017c:	00002517          	auipc	a0,0x2
    80000180:	e8450513          	addi	a0,a0,-380 # 80002000 <test_2_data>
    80000184:	00051007          	flh	ft0,0(a0)
    80000188:	00251087          	flh	ft1,2(a0)
    8000018c:	00451107          	flh	ft2,4(a0)
    80000190:	00651683          	lh	a3,6(a0)
    80000194:	c4001553          	fcvt.w.h	a0,ft0,rtz
    80000198:	001015f3          	fsflags	a1,zero
    8000019c:	00100613          	li	a2,1
    800001a0:	72d51a63          	bne	a0,a3,800008d4 <fail>
    800001a4:	72c59863          	bne	a1,a2,800008d4 <fail>

00000000800001a8 <test_3>:
    800001a8:	00300193          	li	gp,3
    800001ac:	00002517          	auipc	a0,0x2
    800001b0:	e5e50513          	addi	a0,a0,-418 # 8000200a <test_3_data>
    800001b4:	00051007          	flh	ft0,0(a0)
    800001b8:	00251087          	flh	ft1,2(a0)
    800001bc:	00451107          	flh	ft2,4(a0)
    800001c0:	00651683          	lh	a3,6(a0)
    800001c4:	c4001553          	fcvt.w.h	a0,ft0,rtz
    800001c8:	001015f3          	fsflags	a1,zero
    800001cc:	00000613          	li	a2,0
    800001d0:	70d51263          	bne	a0,a3,800008d4 <fail>
    800001d4:	70c59063          	bne	a1,a2,800008d4 <fail>

00000000800001d8 <test_4>:
    800001d8:	00400193          	li	gp,4
    800001dc:	00002517          	auipc	a0,0x2
    800001e0:	e3850513          	addi	a0,a0,-456 # 80002014 <test_4_data>
    800001e4:	00051007          	flh	ft0,0(a0)
    800001e8:	00251087          	flh	ft1,2(a0)
    800001ec:	00451107          	flh	ft2,4(a0)
    800001f0:	00651683          	lh	a3,6(a0)
    800001f4:	c4001553          	fcvt.w.h	a0,ft0,rtz
    800001f8:	001015f3          	fsflags	a1,zero
    800001fc:	00100613          	li	a2,1
    80000200:	6cd51a63          	bne	a0,a3,800008d4 <fail>
    80000204:	6cc59863          	bne	a1,a2,800008d4 <fail>

0000000080000208 <test_5>:
    80000208:	00500193          	li	gp,5
    8000020c:	00002517          	auipc	a0,0x2
    80000210:	e1250513          	addi	a0,a0,-494 # 8000201e <test_5_data>
    80000214:	00051007          	flh	ft0,0(a0)
    80000218:	00251087          	flh	ft1,2(a0)
    8000021c:	00451107          	flh	ft2,4(a0)
    80000220:	00651683          	lh	a3,6(a0)
    80000224:	c4001553          	fcvt.w.h	a0,ft0,rtz
    80000228:	001015f3          	fsflags	a1,zero
    8000022c:	00100613          	li	a2,1
    80000230:	6ad51263          	bne	a0,a3,800008d4 <fail>
    80000234:	6ac59063          	bne	a1,a2,800008d4 <fail>

0000000080000238 <test_6>:
    80000238:	00600193          	li	gp,6
    8000023c:	00002517          	auipc	a0,0x2
    80000240:	dec50513          	addi	a0,a0,-532 # 80002028 <test_6_data>
    80000244:	00051007          	flh	ft0,0(a0)
    80000248:	00251087          	flh	ft1,2(a0)
    8000024c:	00451107          	flh	ft2,4(a0)
    80000250:	00651683          	lh	a3,6(a0)
    80000254:	c4001553          	fcvt.w.h	a0,ft0,rtz
    80000258:	001015f3          	fsflags	a1,zero
    8000025c:	00000613          	li	a2,0
    80000260:	66d51a63          	bne	a0,a3,800008d4 <fail>
    80000264:	66c59863          	bne	a1,a2,800008d4 <fail>

0000000080000268 <test_7>:
    80000268:	00700193          	li	gp,7
    8000026c:	00002517          	auipc	a0,0x2
    80000270:	dc650513          	addi	a0,a0,-570 # 80002032 <test_7_data>
    80000274:	00051007          	flh	ft0,0(a0)
    80000278:	00251087          	flh	ft1,2(a0)
    8000027c:	00451107          	flh	ft2,4(a0)
    80000280:	00651683          	lh	a3,6(a0)
    80000284:	c4001553          	fcvt.w.h	a0,ft0,rtz
    80000288:	001015f3          	fsflags	a1,zero
    8000028c:	00100613          	li	a2,1
    80000290:	64d51263          	bne	a0,a3,800008d4 <fail>
    80000294:	64c59063          	bne	a1,a2,800008d4 <fail>

0000000080000298 <test_8>:
    80000298:	00800193          	li	gp,8
    8000029c:	00002517          	auipc	a0,0x2
    800002a0:	da050513          	addi	a0,a0,-608 # 8000203c <test_8_data>
    800002a4:	00051007          	flh	ft0,0(a0)
    800002a8:	00251087          	flh	ft1,2(a0)
    800002ac:	00451107          	flh	ft2,4(a0)
    800002b0:	00651683          	lh	a3,6(a0)
    800002b4:	c4001553          	fcvt.w.h	a0,ft0,rtz
    800002b8:	001015f3          	fsflags	a1,zero
    800002bc:	00000613          	li	a2,0
    800002c0:	60d51a63          	bne	a0,a3,800008d4 <fail>
    800002c4:	60c59863          	bne	a1,a2,800008d4 <fail>

00000000800002c8 <test_9>:
    800002c8:	00900193          	li	gp,9
    800002cc:	00002517          	auipc	a0,0x2
    800002d0:	d7a50513          	addi	a0,a0,-646 # 80002046 <test_9_data>
    800002d4:	00051007          	flh	ft0,0(a0)
    800002d8:	00251087          	flh	ft1,2(a0)
    800002dc:	00451107          	flh	ft2,4(a0)
    800002e0:	00651683          	lh	a3,6(a0)
    800002e4:	c4001553          	fcvt.w.h	a0,ft0,rtz
    800002e8:	001015f3          	fsflags	a1,zero
    800002ec:	00000613          	li	a2,0
    800002f0:	5ed51263          	bne	a0,a3,800008d4 <fail>
    800002f4:	5ec59063          	bne	a1,a2,800008d4 <fail>

00000000800002f8 <test_12>:
    800002f8:	00c00193          	li	gp,12
    800002fc:	00002517          	auipc	a0,0x2
    80000300:	d5450513          	addi	a0,a0,-684 # 80002050 <test_12_data>
    80000304:	00051007          	flh	ft0,0(a0)
    80000308:	00251087          	flh	ft1,2(a0)
    8000030c:	00451107          	flh	ft2,4(a0)
    80000310:	00651683          	lh	a3,6(a0)
    80000314:	c4101553          	fcvt.wu.h	a0,ft0,rtz
    80000318:	001015f3          	fsflags	a1,zero
    8000031c:	01000613          	li	a2,16
    80000320:	5ad51a63          	bne	a0,a3,800008d4 <fail>
    80000324:	5ac59863          	bne	a1,a2,800008d4 <fail>

0000000080000328 <test_13>:
    80000328:	00d00193          	li	gp,13
    8000032c:	00002517          	auipc	a0,0x2
    80000330:	d2e50513          	addi	a0,a0,-722 # 8000205a <test_13_data>
    80000334:	00051007          	flh	ft0,0(a0)
    80000338:	00251087          	flh	ft1,2(a0)
    8000033c:	00451107          	flh	ft2,4(a0)
    80000340:	00651683          	lh	a3,6(a0)
    80000344:	c4101553          	fcvt.wu.h	a0,ft0,rtz
    80000348:	001015f3          	fsflags	a1,zero
    8000034c:	01000613          	li	a2,16
    80000350:	58d51263          	bne	a0,a3,800008d4 <fail>
    80000354:	58c59063          	bne	a1,a2,800008d4 <fail>

0000000080000358 <test_14>:
    80000358:	00e00193          	li	gp,14
    8000035c:	00002517          	auipc	a0,0x2
    80000360:	d0850513          	addi	a0,a0,-760 # 80002064 <test_14_data>
    80000364:	00051007          	flh	ft0,0(a0)
    80000368:	00251087          	flh	ft1,2(a0)
    8000036c:	00451107          	flh	ft2,4(a0)
    80000370:	00651683          	lh	a3,6(a0)
    80000374:	c4101553          	fcvt.wu.h	a0,ft0,rtz
    80000378:	001015f3          	fsflags	a1,zero
    8000037c:	00100613          	li	a2,1
    80000380:	54d51a63          	bne	a0,a3,800008d4 <fail>
    80000384:	54c59863          	bne	a1,a2,800008d4 <fail>

0000000080000388 <test_15>:
    80000388:	00f00193          	li	gp,15
    8000038c:	00002517          	auipc	a0,0x2
    80000390:	ce250513          	addi	a0,a0,-798 # 8000206e <test_15_data>
    80000394:	00051007          	flh	ft0,0(a0)
    80000398:	00251087          	flh	ft1,2(a0)
    8000039c:	00451107          	flh	ft2,4(a0)
    800003a0:	00651683          	lh	a3,6(a0)
    800003a4:	c4101553          	fcvt.wu.h	a0,ft0,rtz
    800003a8:	001015f3          	fsflags	a1,zero
    800003ac:	00100613          	li	a2,1
    800003b0:	52d51263          	bne	a0,a3,800008d4 <fail>
    800003b4:	52c59063          	bne	a1,a2,800008d4 <fail>

00000000800003b8 <test_16>:
    800003b8:	01000193          	li	gp,16
    800003bc:	00002517          	auipc	a0,0x2
    800003c0:	cbc50513          	addi	a0,a0,-836 # 80002078 <test_16_data>
    800003c4:	00051007          	flh	ft0,0(a0)
    800003c8:	00251087          	flh	ft1,2(a0)
    800003cc:	00451107          	flh	ft2,4(a0)
    800003d0:	00651683          	lh	a3,6(a0)
    800003d4:	c4101553          	fcvt.wu.h	a0,ft0,rtz
    800003d8:	001015f3          	fsflags	a1,zero
    800003dc:	00000613          	li	a2,0
    800003e0:	4ed51a63          	bne	a0,a3,800008d4 <fail>
    800003e4:	4ec59863          	bne	a1,a2,800008d4 <fail>

00000000800003e8 <test_17>:
    800003e8:	01100193          	li	gp,17
    800003ec:	00002517          	auipc	a0,0x2
    800003f0:	c9650513          	addi	a0,a0,-874 # 80002082 <test_17_data>
    800003f4:	00051007          	flh	ft0,0(a0)
    800003f8:	00251087          	flh	ft1,2(a0)
    800003fc:	00451107          	flh	ft2,4(a0)
    80000400:	00651683          	lh	a3,6(a0)
    80000404:	c4101553          	fcvt.wu.h	a0,ft0,rtz
    80000408:	001015f3          	fsflags	a1,zero
    8000040c:	00100613          	li	a2,1
    80000410:	4cd51263          	bne	a0,a3,800008d4 <fail>
    80000414:	4cc59063          	bne	a1,a2,800008d4 <fail>

0000000080000418 <test_18>:
    80000418:	01200193          	li	gp,18
    8000041c:	00002517          	auipc	a0,0x2
    80000420:	c7050513          	addi	a0,a0,-912 # 8000208c <test_18_data>
    80000424:	00051007          	flh	ft0,0(a0)
    80000428:	00251087          	flh	ft1,2(a0)
    8000042c:	00451107          	flh	ft2,4(a0)
    80000430:	00651683          	lh	a3,6(a0)
    80000434:	c4101553          	fcvt.wu.h	a0,ft0,rtz
    80000438:	001015f3          	fsflags	a1,zero
    8000043c:	01000613          	li	a2,16
    80000440:	48d51a63          	bne	a0,a3,800008d4 <fail>
    80000444:	48c59863          	bne	a1,a2,800008d4 <fail>

0000000080000448 <test_19>:
    80000448:	01300193          	li	gp,19
    8000044c:	00002517          	auipc	a0,0x2
    80000450:	c4a50513          	addi	a0,a0,-950 # 80002096 <test_19_data>
    80000454:	00051007          	flh	ft0,0(a0)
    80000458:	00251087          	flh	ft1,2(a0)
    8000045c:	00451107          	flh	ft2,4(a0)
    80000460:	00651683          	lh	a3,6(a0)
    80000464:	c4101553          	fcvt.wu.h	a0,ft0,rtz
    80000468:	001015f3          	fsflags	a1,zero
    8000046c:	00000613          	li	a2,0
    80000470:	46d51263          	bne	a0,a3,800008d4 <fail>
    80000474:	46c59063          	bne	a1,a2,800008d4 <fail>

0000000080000478 <test_22>:
    80000478:	01600193          	li	gp,22
    8000047c:	00002517          	auipc	a0,0x2
    80000480:	c2450513          	addi	a0,a0,-988 # 800020a0 <test_22_data>
    80000484:	00051007          	flh	ft0,0(a0)
    80000488:	00251087          	flh	ft1,2(a0)
    8000048c:	00451107          	flh	ft2,4(a0)
    80000490:	00651683          	lh	a3,6(a0)
    80000494:	c4201553          	fcvt.l.h	a0,ft0,rtz
    80000498:	001015f3          	fsflags	a1,zero
    8000049c:	00100613          	li	a2,1
    800004a0:	42d51a63          	bne	a0,a3,800008d4 <fail>
    800004a4:	42c59863          	bne	a1,a2,800008d4 <fail>

00000000800004a8 <test_23>:
    800004a8:	01700193          	li	gp,23
    800004ac:	00002517          	auipc	a0,0x2
    800004b0:	bfe50513          	addi	a0,a0,-1026 # 800020aa <test_23_data>
    800004b4:	00051007          	flh	ft0,0(a0)
    800004b8:	00251087          	flh	ft1,2(a0)
    800004bc:	00451107          	flh	ft2,4(a0)
    800004c0:	00651683          	lh	a3,6(a0)
    800004c4:	c4201553          	fcvt.l.h	a0,ft0,rtz
    800004c8:	001015f3          	fsflags	a1,zero
    800004cc:	00000613          	li	a2,0
    800004d0:	40d51263          	bne	a0,a3,800008d4 <fail>
    800004d4:	40c59063          	bne	a1,a2,800008d4 <fail>

00000000800004d8 <test_24>:
    800004d8:	01800193          	li	gp,24
    800004dc:	00002517          	auipc	a0,0x2
    800004e0:	bd850513          	addi	a0,a0,-1064 # 800020b4 <test_24_data>
    800004e4:	00051007          	flh	ft0,0(a0)
    800004e8:	00251087          	flh	ft1,2(a0)
    800004ec:	00451107          	flh	ft2,4(a0)
    800004f0:	00651683          	lh	a3,6(a0)
    800004f4:	c4201553          	fcvt.l.h	a0,ft0,rtz
    800004f8:	001015f3          	fsflags	a1,zero
    800004fc:	00100613          	li	a2,1
    80000500:	3cd51a63          	bne	a0,a3,800008d4 <fail>
    80000504:	3cc59863          	bne	a1,a2,800008d4 <fail>

0000000080000508 <test_25>:
    80000508:	01900193          	li	gp,25
    8000050c:	00002517          	auipc	a0,0x2
    80000510:	bb250513          	addi	a0,a0,-1102 # 800020be <test_25_data>
    80000514:	00051007          	flh	ft0,0(a0)
    80000518:	00251087          	flh	ft1,2(a0)
    8000051c:	00451107          	flh	ft2,4(a0)
    80000520:	00651683          	lh	a3,6(a0)
    80000524:	c4201553          	fcvt.l.h	a0,ft0,rtz
    80000528:	001015f3          	fsflags	a1,zero
    8000052c:	00100613          	li	a2,1
    80000530:	3ad51263          	bne	a0,a3,800008d4 <fail>
    80000534:	3ac59063          	bne	a1,a2,800008d4 <fail>

0000000080000538 <test_26>:
    80000538:	01a00193          	li	gp,26
    8000053c:	00002517          	auipc	a0,0x2
    80000540:	b8c50513          	addi	a0,a0,-1140 # 800020c8 <test_26_data>
    80000544:	00051007          	flh	ft0,0(a0)
    80000548:	00251087          	flh	ft1,2(a0)
    8000054c:	00451107          	flh	ft2,4(a0)
    80000550:	00651683          	lh	a3,6(a0)
    80000554:	c4201553          	fcvt.l.h	a0,ft0,rtz
    80000558:	001015f3          	fsflags	a1,zero
    8000055c:	00000613          	li	a2,0
    80000560:	36d51a63          	bne	a0,a3,800008d4 <fail>
    80000564:	36c59863          	bne	a1,a2,800008d4 <fail>

0000000080000568 <test_27>:
    80000568:	01b00193          	li	gp,27
    8000056c:	00002517          	auipc	a0,0x2
    80000570:	b6650513          	addi	a0,a0,-1178 # 800020d2 <test_27_data>
    80000574:	00051007          	flh	ft0,0(a0)
    80000578:	00251087          	flh	ft1,2(a0)
    8000057c:	00451107          	flh	ft2,4(a0)
    80000580:	00651683          	lh	a3,6(a0)
    80000584:	c4201553          	fcvt.l.h	a0,ft0,rtz
    80000588:	001015f3          	fsflags	a1,zero
    8000058c:	00100613          	li	a2,1
    80000590:	34d51263          	bne	a0,a3,800008d4 <fail>
    80000594:	34c59063          	bne	a1,a2,800008d4 <fail>

0000000080000598 <test_32>:
    80000598:	02000193          	li	gp,32
    8000059c:	00002517          	auipc	a0,0x2
    800005a0:	b4050513          	addi	a0,a0,-1216 # 800020dc <test_32_data>
    800005a4:	00051007          	flh	ft0,0(a0)
    800005a8:	00251087          	flh	ft1,2(a0)
    800005ac:	00451107          	flh	ft2,4(a0)
    800005b0:	00651683          	lh	a3,6(a0)
    800005b4:	c4301553          	fcvt.lu.h	a0,ft0,rtz
    800005b8:	001015f3          	fsflags	a1,zero
    800005bc:	01000613          	li	a2,16
    800005c0:	30d51a63          	bne	a0,a3,800008d4 <fail>
    800005c4:	30c59863          	bne	a1,a2,800008d4 <fail>

00000000800005c8 <test_33>:
    800005c8:	02100193          	li	gp,33
    800005cc:	00002517          	auipc	a0,0x2
    800005d0:	b1a50513          	addi	a0,a0,-1254 # 800020e6 <test_33_data>
    800005d4:	00051007          	flh	ft0,0(a0)
    800005d8:	00251087          	flh	ft1,2(a0)
    800005dc:	00451107          	flh	ft2,4(a0)
    800005e0:	00651683          	lh	a3,6(a0)
    800005e4:	c4301553          	fcvt.lu.h	a0,ft0,rtz
    800005e8:	001015f3          	fsflags	a1,zero
    800005ec:	01000613          	li	a2,16
    800005f0:	2ed51263          	bne	a0,a3,800008d4 <fail>
    800005f4:	2ec59063          	bne	a1,a2,800008d4 <fail>

00000000800005f8 <test_34>:
    800005f8:	02200193          	li	gp,34
    800005fc:	00002517          	auipc	a0,0x2
    80000600:	af450513          	addi	a0,a0,-1292 # 800020f0 <test_34_data>
    80000604:	00051007          	flh	ft0,0(a0)
    80000608:	00251087          	flh	ft1,2(a0)
    8000060c:	00451107          	flh	ft2,4(a0)
    80000610:	00651683          	lh	a3,6(a0)
    80000614:	c4301553          	fcvt.lu.h	a0,ft0,rtz
    80000618:	001015f3          	fsflags	a1,zero
    8000061c:	00100613          	li	a2,1
    80000620:	2ad51a63          	bne	a0,a3,800008d4 <fail>
    80000624:	2ac59863          	bne	a1,a2,800008d4 <fail>

0000000080000628 <test_35>:
    80000628:	02300193          	li	gp,35
    8000062c:	00002517          	auipc	a0,0x2
    80000630:	ace50513          	addi	a0,a0,-1330 # 800020fa <test_35_data>
    80000634:	00051007          	flh	ft0,0(a0)
    80000638:	00251087          	flh	ft1,2(a0)
    8000063c:	00451107          	flh	ft2,4(a0)
    80000640:	00651683          	lh	a3,6(a0)
    80000644:	c4301553          	fcvt.lu.h	a0,ft0,rtz
    80000648:	001015f3          	fsflags	a1,zero
    8000064c:	00100613          	li	a2,1
    80000650:	28d51263          	bne	a0,a3,800008d4 <fail>
    80000654:	28c59063          	bne	a1,a2,800008d4 <fail>

0000000080000658 <test_36>:
    80000658:	02400193          	li	gp,36
    8000065c:	00002517          	auipc	a0,0x2
    80000660:	aa850513          	addi	a0,a0,-1368 # 80002104 <test_36_data>
    80000664:	00051007          	flh	ft0,0(a0)
    80000668:	00251087          	flh	ft1,2(a0)
    8000066c:	00451107          	flh	ft2,4(a0)
    80000670:	00651683          	lh	a3,6(a0)
    80000674:	c4301553          	fcvt.lu.h	a0,ft0,rtz
    80000678:	001015f3          	fsflags	a1,zero
    8000067c:	00000613          	li	a2,0
    80000680:	24d51a63          	bne	a0,a3,800008d4 <fail>
    80000684:	24c59863          	bne	a1,a2,800008d4 <fail>

0000000080000688 <test_37>:
    80000688:	02500193          	li	gp,37
    8000068c:	00002517          	auipc	a0,0x2
    80000690:	a8250513          	addi	a0,a0,-1406 # 8000210e <test_37_data>
    80000694:	00051007          	flh	ft0,0(a0)
    80000698:	00251087          	flh	ft1,2(a0)
    8000069c:	00451107          	flh	ft2,4(a0)
    800006a0:	00651683          	lh	a3,6(a0)
    800006a4:	c4301553          	fcvt.lu.h	a0,ft0,rtz
    800006a8:	001015f3          	fsflags	a1,zero
    800006ac:	00100613          	li	a2,1
    800006b0:	22d51263          	bne	a0,a3,800008d4 <fail>
    800006b4:	22c59063          	bne	a1,a2,800008d4 <fail>

00000000800006b8 <test_38>:
    800006b8:	02600193          	li	gp,38
    800006bc:	00002517          	auipc	a0,0x2
    800006c0:	a5c50513          	addi	a0,a0,-1444 # 80002118 <test_38_data>
    800006c4:	00051007          	flh	ft0,0(a0)
    800006c8:	00251087          	flh	ft1,2(a0)
    800006cc:	00451107          	flh	ft2,4(a0)
    800006d0:	00651683          	lh	a3,6(a0)
    800006d4:	c4301553          	fcvt.lu.h	a0,ft0,rtz
    800006d8:	001015f3          	fsflags	a1,zero
    800006dc:	01000613          	li	a2,16
    800006e0:	1ed51a63          	bne	a0,a3,800008d4 <fail>
    800006e4:	1ec59863          	bne	a1,a2,800008d4 <fail>

00000000800006e8 <test_42>:
    800006e8:	00002097          	auipc	ra,0x2
    800006ec:	a4808093          	addi	ra,ra,-1464 # 80002130 <begin_signature>
    800006f0:	0000a087          	flw	ft1,0(ra)
    800006f4:	c400f0d3          	fcvt.w.h	ra,ft1
    800006f8:	800003b7          	lui	t2,0x80000
    800006fc:	fff3839b          	addiw	t2,t2,-1 # 7fffffff <_start-0x1>
    80000700:	02a00193          	li	gp,42
    80000704:	1c709863          	bne	ra,t2,800008d4 <fail>

0000000080000708 <test_43>:
    80000708:	00002097          	auipc	ra,0x2
    8000070c:	a2808093          	addi	ra,ra,-1496 # 80002130 <begin_signature>
    80000710:	0080a087          	flw	ft1,8(ra)
    80000714:	c400f0d3          	fcvt.w.h	ra,ft1
    80000718:	800003b7          	lui	t2,0x80000
    8000071c:	02b00193          	li	gp,43
    80000720:	1a709a63          	bne	ra,t2,800008d4 <fail>

0000000080000724 <test_44>:
    80000724:	00002097          	auipc	ra,0x2
    80000728:	a0c08093          	addi	ra,ra,-1524 # 80002130 <begin_signature>
    8000072c:	0000a087          	flw	ft1,0(ra)
    80000730:	c420f0d3          	fcvt.l.h	ra,ft1
    80000734:	fff0039b          	addiw	t2,zero,-1
    80000738:	03f39393          	slli	t2,t2,0x3f
    8000073c:	fff38393          	addi	t2,t2,-1 # ffffffff7fffffff <_end+0xfffffffeffffdebf>
    80000740:	02c00193          	li	gp,44
    80000744:	18709863          	bne	ra,t2,800008d4 <fail>

0000000080000748 <test_45>:
    80000748:	00002097          	auipc	ra,0x2
    8000074c:	9e808093          	addi	ra,ra,-1560 # 80002130 <begin_signature>
    80000750:	0080a087          	flw	ft1,8(ra)
    80000754:	c420f0d3          	fcvt.l.h	ra,ft1
    80000758:	fff0039b          	addiw	t2,zero,-1
    8000075c:	03f39393          	slli	t2,t2,0x3f
    80000760:	02d00193          	li	gp,45
    80000764:	16709863          	bne	ra,t2,800008d4 <fail>

0000000080000768 <test_52>:
    80000768:	00002097          	auipc	ra,0x2
    8000076c:	9c808093          	addi	ra,ra,-1592 # 80002130 <begin_signature>
    80000770:	0040a087          	flw	ft1,4(ra)
    80000774:	c400f0d3          	fcvt.w.h	ra,ft1
    80000778:	800003b7          	lui	t2,0x80000
    8000077c:	fff3839b          	addiw	t2,t2,-1 # 7fffffff <_start-0x1>
    80000780:	03400193          	li	gp,52
    80000784:	14709863          	bne	ra,t2,800008d4 <fail>

0000000080000788 <test_53>:
    80000788:	00002097          	auipc	ra,0x2
    8000078c:	9a808093          	addi	ra,ra,-1624 # 80002130 <begin_signature>
    80000790:	00c0a087          	flw	ft1,12(ra)
    80000794:	c400f0d3          	fcvt.w.h	ra,ft1
    80000798:	800003b7          	lui	t2,0x80000
    8000079c:	fff3839b          	addiw	t2,t2,-1 # 7fffffff <_start-0x1>
    800007a0:	03500193          	li	gp,53
    800007a4:	12709863          	bne	ra,t2,800008d4 <fail>

00000000800007a8 <test_54>:
    800007a8:	00002097          	auipc	ra,0x2
    800007ac:	98808093          	addi	ra,ra,-1656 # 80002130 <begin_signature>
    800007b0:	0040a087          	flw	ft1,4(ra)
    800007b4:	c420f0d3          	fcvt.l.h	ra,ft1
    800007b8:	fff0039b          	addiw	t2,zero,-1
    800007bc:	03f39393          	slli	t2,t2,0x3f
    800007c0:	fff38393          	addi	t2,t2,-1
    800007c4:	03600193          	li	gp,54
    800007c8:	10709663          	bne	ra,t2,800008d4 <fail>

00000000800007cc <test_55>:
    800007cc:	00002097          	auipc	ra,0x2
    800007d0:	96408093          	addi	ra,ra,-1692 # 80002130 <begin_signature>
    800007d4:	00c0a087          	flw	ft1,12(ra)
    800007d8:	c420f0d3          	fcvt.l.h	ra,ft1
    800007dc:	fff0039b          	addiw	t2,zero,-1
    800007e0:	03f39393          	slli	t2,t2,0x3f
    800007e4:	fff38393          	addi	t2,t2,-1
    800007e8:	03700193          	li	gp,55
    800007ec:	0e709463          	bne	ra,t2,800008d4 <fail>

00000000800007f0 <test_62>:
    800007f0:	00002097          	auipc	ra,0x2
    800007f4:	94008093          	addi	ra,ra,-1728 # 80002130 <begin_signature>
    800007f8:	0000a087          	flw	ft1,0(ra)
    800007fc:	c410f0d3          	fcvt.wu.h	ra,ft1
    80000800:	fff00393          	li	t2,-1
    80000804:	03e00193          	li	gp,62
    80000808:	0c709663          	bne	ra,t2,800008d4 <fail>

000000008000080c <test_63>:
    8000080c:	00002097          	auipc	ra,0x2
    80000810:	92408093          	addi	ra,ra,-1756 # 80002130 <begin_signature>
    80000814:	0040a087          	flw	ft1,4(ra)
    80000818:	c410f0d3          	fcvt.wu.h	ra,ft1
    8000081c:	fff00393          	li	t2,-1
    80000820:	03f00193          	li	gp,63
    80000824:	0a709863          	bne	ra,t2,800008d4 <fail>

0000000080000828 <test_64>:
    80000828:	00002097          	auipc	ra,0x2
    8000082c:	90808093          	addi	ra,ra,-1784 # 80002130 <begin_signature>
    80000830:	0080a087          	flw	ft1,8(ra)
    80000834:	c410f0d3          	fcvt.wu.h	ra,ft1
    80000838:	00000393          	li	t2,0
    8000083c:	04000193          	li	gp,64
    80000840:	08709a63          	bne	ra,t2,800008d4 <fail>

0000000080000844 <test_65>:
    80000844:	00002097          	auipc	ra,0x2
    80000848:	8ec08093          	addi	ra,ra,-1812 # 80002130 <begin_signature>
    8000084c:	00c0a087          	flw	ft1,12(ra)
    80000850:	c410f0d3          	fcvt.wu.h	ra,ft1
    80000854:	fff00393          	li	t2,-1
    80000858:	04100193          	li	gp,65
    8000085c:	06709c63          	bne	ra,t2,800008d4 <fail>

0000000080000860 <test_66>:
    80000860:	00002097          	auipc	ra,0x2
    80000864:	8d008093          	addi	ra,ra,-1840 # 80002130 <begin_signature>
    80000868:	0000a087          	flw	ft1,0(ra)
    8000086c:	c430f0d3          	fcvt.lu.h	ra,ft1
    80000870:	fff00393          	li	t2,-1
    80000874:	04200193          	li	gp,66
    80000878:	04709e63          	bne	ra,t2,800008d4 <fail>

000000008000087c <test_67>:
    8000087c:	00002097          	auipc	ra,0x2
    80000880:	8b408093          	addi	ra,ra,-1868 # 80002130 <begin_signature>
    80000884:	0040a087          	flw	ft1,4(ra)
    80000888:	c430f0d3          	fcvt.lu.h	ra,ft1
    8000088c:	fff00393          	li	t2,-1
    80000890:	04300193          	li	gp,67
    80000894:	04709063          	bne	ra,t2,800008d4 <fail>

0000000080000898 <test_68>:
    80000898:	00002097          	auipc	ra,0x2
    8000089c:	89808093          	addi	ra,ra,-1896 # 80002130 <begin_signature>
    800008a0:	0080a087          	flw	ft1,8(ra)
    800008a4:	c430f0d3          	fcvt.lu.h	ra,ft1
    800008a8:	00000393          	li	t2,0
    800008ac:	04400193          	li	gp,68
    800008b0:	02709263          	bne	ra,t2,800008d4 <fail>

00000000800008b4 <test_69>:
    800008b4:	00002097          	auipc	ra,0x2
    800008b8:	87c08093          	addi	ra,ra,-1924 # 80002130 <begin_signature>
    800008bc:	00c0a087          	flw	ft1,12(ra)
    800008c0:	c430f0d3          	fcvt.lu.h	ra,ft1
    800008c4:	fff00393          	li	t2,-1
    800008c8:	04500193          	li	gp,69
    800008cc:	00709463          	bne	ra,t2,800008d4 <fail>
    800008d0:	00301663          	bne	zero,gp,800008dc <pass>

00000000800008d4 <fail>:
    800008d4:	00100513          	li	a0,1
    800008d8:	00c0006f          	j	800008e4 <halt>

00000000800008dc <pass>:
    800008dc:	00000513          	li	a0,0
    800008e0:	0040006f          	j	800008e4 <halt>

00000000800008e4 <halt>:
    800008e4:	0000006f          	j	800008e4 <halt>
    800008e8:	0000                	.2byte	0x0
    800008ea:	0000                	.2byte	0x0
    800008ec:	0000                	.2byte	0x0
    800008ee:	0000                	.2byte	0x0
    800008f0:	0000                	.2byte	0x0
    800008f2:	0000                	.2byte	0x0
    800008f4:	0000                	.2byte	0x0
    800008f6:	0000                	.2byte	0x0
    800008f8:	0000                	.2byte	0x0
    800008fa:	0000                	.2byte	0x0
