
rv64ua-p-amoswap_d:     file format elf64-littleriscv


Disassembly of section .text.init:

0000000080000000 <_start>:
    80000000:	80000537          	lui	a0,0x80000
    80000004:	80000593          	li	a1,-2048
    80000008:	00002697          	auipc	a3,0x2
    8000000c:	ff868693          	addi	a3,a3,-8 # 80002000 <begin_signature>
    80000010:	00a6b023          	sd	a0,0(a3)
    80000014:	08b6b72f          	amoswap.d	a4,a1,(a3)
    80000018:	800003b7          	lui	t2,0x80000
    8000001c:	00200193          	li	gp,2
    80000020:	04771263          	bne	a4,t2,80000064 <fail>

0000000080000024 <test_3>:
    80000024:	0006b783          	ld	a5,0(a3)
    80000028:	80000393          	li	t2,-2048
    8000002c:	00300193          	li	gp,3
    80000030:	02779a63          	bne	a5,t2,80000064 <fail>

0000000080000034 <test_4>:
    80000034:	0010059b          	addiw	a1,zero,1
    80000038:	01f59593          	slli	a1,a1,0x1f
    8000003c:	08b6b72f          	amoswap.d	a4,a1,(a3)
    80000040:	80000393          	li	t2,-2048
    80000044:	00400193          	li	gp,4
    80000048:	00771e63          	bne	a4,t2,80000064 <fail>

000000008000004c <test_5>:
    8000004c:	0006b783          	ld	a5,0(a3)
    80000050:	0010039b          	addiw	t2,zero,1
    80000054:	01f39393          	slli	t2,t2,0x1f
    80000058:	00500193          	li	gp,5
    8000005c:	00779463          	bne	a5,t2,80000064 <fail>
    80000060:	00301663          	bne	zero,gp,8000006c <pass>

0000000080000064 <fail>:
    80000064:	00100513          	li	a0,1
    80000068:	00c0006f          	j	80000074 <halt>

000000008000006c <pass>:
    8000006c:	00000513          	li	a0,0
    80000070:	0040006f          	j	80000074 <halt>

0000000080000074 <halt>:
    80000074:	0000006f          	j	80000074 <halt>
    80000078:	0000                	unimp
    8000007a:	0000                	unimp
    8000007c:	0000                	unimp
    8000007e:	0000                	unimp
    80000080:	0000                	unimp
    80000082:	0000                	unimp
