
rv32uzbkx-p-xperm_n:     file format elf32-littleriscv


Disassembly of section .text.init:

80000000 <_start>:
80000000:	00200193          	li	gp,2
80000004:	ffff05b7          	lui	a1,0xffff0
80000008:	01020637          	lui	a2,0x1020
8000000c:	10160613          	addi	a2,a2,257 # 1020101 <_start-0x7efdfeff>
80000010:	28c5a733          	xperm4	a4,a1,a2
80000014:	00000393          	li	t2,0
80000018:	4c771263          	bne	a4,t2,800004dc <fail>

8000001c <test_3>:
8000001c:	00300193          	li	gp,3
80000020:	000105b7          	lui	a1,0x10
80000024:	fff58593          	addi	a1,a1,-1 # ffff <_start-0x7fff0001>
80000028:	11223637          	lui	a2,0x11223
8000002c:	34460613          	addi	a2,a2,836 # 11223344 <_start-0x6eddccbc>
80000030:	28c5a733          	xperm4	a4,a1,a2
80000034:	f0000393          	li	t2,-256
80000038:	4a771263          	bne	a4,t2,800004dc <fail>

8000003c <test_4>:
8000003c:	00400193          	li	gp,4
80000040:	000105b7          	lui	a1,0x10
80000044:	fff58593          	addi	a1,a1,-1 # ffff <_start-0x7fff0001>
80000048:	76543637          	lui	a2,0x76543
8000004c:	21060613          	addi	a2,a2,528 # 76543210 <_start-0x9abcdf0>
80000050:	28c5a733          	xperm4	a4,a1,a2
80000054:	000103b7          	lui	t2,0x10
80000058:	fff38393          	addi	t2,t2,-1 # ffff <_start-0x7fff0001>
8000005c:	48771063          	bne	a4,t2,800004dc <fail>

80000060 <test_5>:
80000060:	00500193          	li	gp,5
80000064:	000105b7          	lui	a1,0x10
80000068:	fff58593          	addi	a1,a1,-1 # ffff <_start-0x7fff0001>
8000006c:	ff221637          	lui	a2,0xff221
80000070:	24560613          	addi	a2,a2,581 # ff221245 <_end+0x7f21f245>
80000074:	28c5a733          	xperm4	a4,a1,a2
80000078:	010003b7          	lui	t2,0x1000
8000007c:	f0038393          	addi	t2,t2,-256 # ffff00 <_start-0x7f000100>
80000080:	44771e63          	bne	a4,t2,800004dc <fail>

80000084 <test_6>:
80000084:	00600193          	li	gp,6
80000088:	deadc5b7          	lui	a1,0xdeadc
8000008c:	eef58593          	addi	a1,a1,-273 # deadbeef <_end+0x5ead9eef>
80000090:	00010637          	lui	a2,0x10
80000094:	20360613          	addi	a2,a2,515 # 10203 <_start-0x7ffefdfd>
80000098:	28c5a733          	xperm4	a4,a1,a2
8000009c:	ffff03b7          	lui	t2,0xffff0
800000a0:	efb38393          	addi	t2,t2,-261 # fffefefb <_end+0x7ffedefb>
800000a4:	42771c63          	bne	a4,t2,800004dc <fail>

800000a8 <test_7>:
800000a8:	00700193          	li	gp,7
800000ac:	aabbd5b7          	lui	a1,0xaabbd
800000b0:	cee58593          	addi	a1,a1,-786 # aabbccee <_end+0x2abbacee>
800000b4:	00030637          	lui	a2,0x30
800000b8:	30160613          	addi	a2,a2,769 # 30301 <_start-0x7ffcfcff>
800000bc:	28c5a733          	xperm4	a4,a1,a2
800000c0:	eeecf3b7          	lui	t2,0xeeecf
800000c4:	cee38393          	addi	t2,t2,-786 # eeececee <_end+0x6eecccee>
800000c8:	40771a63          	bne	a4,t2,800004dc <fail>

800000cc <test_8>:
800000cc:	00800193          	li	gp,8
800000d0:	876545b7          	lui	a1,0x87654
800000d4:	32158593          	addi	a1,a1,801 # 87654321 <_end+0x7652321>
800000d8:	01234637          	lui	a2,0x1234
800000dc:	56760613          	addi	a2,a2,1383 # 1234567 <_start-0x7edcba99>
800000e0:	28c5a5b3          	xperm4	a1,a1,a2
800000e4:	123453b7          	lui	t2,0x12345
800000e8:	67838393          	addi	t2,t2,1656 # 12345678 <_start-0x6dcba988>
800000ec:	3e759863          	bne	a1,t2,800004dc <fail>

800000f0 <test_9>:
800000f0:	00900193          	li	gp,9
800000f4:	ddccc5b7          	lui	a1,0xddccc
800000f8:	baa58593          	addi	a1,a1,-1110 # ddccbbaa <_end+0x5dcc9baa>
800000fc:	ea010637          	lui	a2,0xea010
80000100:	20360613          	addi	a2,a2,515 # ea010203 <_end+0x6a00e203>
80000104:	28c5a633          	xperm4	a2,a1,a2
80000108:	00aab3b7          	lui	t2,0xaab
8000010c:	bab38393          	addi	t2,t2,-1109 # aaabab <_start-0x7f555455>
80000110:	3c761663          	bne	a2,t2,800004dc <fail>

80000114 <test_10>:
80000114:	00a00193          	li	gp,10
80000118:	315185b7          	lui	a1,0x31518
8000011c:	24158593          	addi	a1,a1,577 # 31518241 <_start-0x4eae7dbf>
80000120:	28b5a5b3          	xperm4	a1,a1,a1
80000124:	845403b7          	lui	t2,0x84540
80000128:	21438393          	addi	t2,t2,532 # 84540214 <_end+0x453e214>
8000012c:	3a759863          	bne	a1,t2,800004dc <fail>

80000130 <test_11>:
80000130:	00b00193          	li	gp,11
80000134:	00000213          	li	tp,0
80000138:	112230b7          	lui	ra,0x11223
8000013c:	34408093          	addi	ra,ra,836 # 11223344 <_start-0x6eddccbc>
80000140:	a3f27137          	lui	sp,0xa3f27
80000144:	10610113          	addi	sp,sp,262 # a3f27106 <_end+0x23f25106>
80000148:	2820a733          	xperm4	a4,ra,sp
8000014c:	00070313          	mv	t1,a4
80000150:	00120213          	addi	tp,tp,1 # 1 <_start-0x7fffffff>
80000154:	00200293          	li	t0,2
80000158:	fe5210e3          	bne	tp,t0,80000138 <test_11+0x8>
8000015c:	030313b7          	lui	t2,0x3031
80000160:	44138393          	addi	t2,t2,1089 # 3031441 <_start-0x7cfcebbf>
80000164:	36731c63          	bne	t1,t2,800004dc <fail>

80000168 <test_12>:
80000168:	00c00193          	li	gp,12
8000016c:	00000213          	li	tp,0
80000170:	000100b7          	lui	ra,0x10
80000174:	fff08093          	addi	ra,ra,-1 # ffff <_start-0x7fff0001>
80000178:	00300113          	li	sp,3
8000017c:	2820a733          	xperm4	a4,ra,sp
80000180:	00000013          	nop
80000184:	00070313          	mv	t1,a4
80000188:	00120213          	addi	tp,tp,1 # 1 <_start-0x7fffffff>
8000018c:	00200293          	li	t0,2
80000190:	fe5210e3          	bne	tp,t0,80000170 <test_12+0x8>
80000194:	fff00393          	li	t2,-1
80000198:	34731263          	bne	t1,t2,800004dc <fail>

8000019c <test_13>:
8000019c:	00d00193          	li	gp,13
800001a0:	00000213          	li	tp,0
800001a4:	000100b7          	lui	ra,0x10
800001a8:	fff08093          	addi	ra,ra,-1 # ffff <_start-0x7fff0001>
800001ac:	0f000137          	lui	sp,0xf000
800001b0:	20210113          	addi	sp,sp,514 # f000202 <_start-0x70fffdfe>
800001b4:	2820a733          	xperm4	a4,ra,sp
800001b8:	00000013          	nop
800001bc:	00000013          	nop
800001c0:	00070313          	mv	t1,a4
800001c4:	00120213          	addi	tp,tp,1 # 1 <_start-0x7fffffff>
800001c8:	00200293          	li	t0,2
800001cc:	fc521ce3          	bne	tp,t0,800001a4 <test_13+0x8>
800001d0:	f10003b7          	lui	t2,0xf1000
800001d4:	fff38393          	addi	t2,t2,-1 # f0ffffff <_end+0x70ffdfff>
800001d8:	30731263          	bne	t1,t2,800004dc <fail>

800001dc <test_14>:
800001dc:	00e00193          	li	gp,14
800001e0:	00000213          	li	tp,0
800001e4:	deadc0b7          	lui	ra,0xdeadc
800001e8:	eef08093          	addi	ra,ra,-273 # deadbeef <_end+0x5ead9eef>
800001ec:	ffff0137          	lui	sp,0xffff0
800001f0:	12310113          	addi	sp,sp,291 # ffff0123 <_end+0x7ffee123>
800001f4:	2820a733          	xperm4	a4,ra,sp
800001f8:	00120213          	addi	tp,tp,1 # 1 <_start-0x7fffffff>
800001fc:	00200293          	li	t0,2
80000200:	fe5212e3          	bne	tp,t0,800001e4 <test_14+0x8>
80000204:	000103b7          	lui	t2,0x10
80000208:	eeb38393          	addi	t2,t2,-277 # feeb <_start-0x7fff0115>
8000020c:	2c771863          	bne	a4,t2,800004dc <fail>

80000210 <test_15>:
80000210:	00f00193          	li	gp,15
80000214:	00000213          	li	tp,0
80000218:	aabbd0b7          	lui	ra,0xaabbd
8000021c:	cee08093          	addi	ra,ra,-786 # aabbccee <_end+0x2abbacee>
80000220:	03010137          	lui	sp,0x3010
80000224:	20110113          	addi	sp,sp,513 # 3010201 <_start-0x7cfefdff>
80000228:	00000013          	nop
8000022c:	2820a733          	xperm4	a4,ra,sp
80000230:	00120213          	addi	tp,tp,1 # 1 <_start-0x7fffffff>
80000234:	00200293          	li	t0,2
80000238:	fe5210e3          	bne	tp,t0,80000218 <test_15+0x8>
8000023c:	eceef3b7          	lui	t2,0xeceef
80000240:	cee38393          	addi	t2,t2,-786 # eceeecee <_end+0x6ceeccee>
80000244:	28771c63          	bne	a4,t2,800004dc <fail>

80000248 <test_16>:
80000248:	01000193          	li	gp,16
8000024c:	00000213          	li	tp,0
80000250:	000010b7          	lui	ra,0x1
80000254:	12208093          	addi	ra,ra,290 # 1122 <_start-0x7fffeede>
80000258:	abcd0137          	lui	sp,0xabcd0
8000025c:	30010113          	addi	sp,sp,768 # abcd0300 <_end+0x2bcce300>
80000260:	00000013          	nop
80000264:	00000013          	nop
80000268:	2820a733          	xperm4	a4,ra,sp
8000026c:	00120213          	addi	tp,tp,1 # 1 <_start-0x7fffffff>
80000270:	00200293          	li	t0,2
80000274:	fc521ee3          	bne	tp,t0,80000250 <test_16+0x8>
80000278:	000023b7          	lui	t2,0x2
8000027c:	12238393          	addi	t2,t2,290 # 2122 <_start-0x7fffdede>
80000280:	24771e63          	bne	a4,t2,800004dc <fail>

80000284 <test_17>:
80000284:	01100193          	li	gp,17
80000288:	00000213          	li	tp,0
8000028c:	002280b7          	lui	ra,0x228
80000290:	76508093          	addi	ra,ra,1893 # 228765 <_start-0x7fdd789b>
80000294:	00000013          	nop
80000298:	03019137          	lui	sp,0x3019
8000029c:	9ab10113          	addi	sp,sp,-1621 # 30189ab <_start-0x7cfe7655>
800002a0:	2820a733          	xperm4	a4,ra,sp
800002a4:	00120213          	addi	tp,tp,1 # 1 <_start-0x7fffffff>
800002a8:	00200293          	li	t0,2
800002ac:	fe5210e3          	bne	tp,t0,8000028c <test_17+0x8>
800002b0:	585603b7          	lui	t2,0x58560
800002b4:	22771463          	bne	a4,t2,800004dc <fail>

800002b8 <test_18>:
800002b8:	01200193          	li	gp,18
800002bc:	00000213          	li	tp,0
800002c0:	0000e0b7          	lui	ra,0xe
800002c4:	dcc08093          	addi	ra,ra,-564 # ddcc <_start-0x7fff2234>
800002c8:	00000013          	nop
800002cc:	01020137          	lui	sp,0x1020
800002d0:	00000013          	nop
800002d4:	2820a733          	xperm4	a4,ra,sp
800002d8:	00120213          	addi	tp,tp,1 # 1 <_start-0x7fffffff>
800002dc:	00200293          	li	t0,2
800002e0:	fe5210e3          	bne	tp,t0,800002c0 <test_18+0x8>
800002e4:	cccdd3b7          	lui	t2,0xcccdd
800002e8:	ccc38393          	addi	t2,t2,-820 # cccdcccc <_end+0x4ccdaccc>
800002ec:	1e771863          	bne	a4,t2,800004dc <fail>

800002f0 <test_19>:
800002f0:	01300193          	li	gp,19
800002f4:	00000213          	li	tp,0
800002f8:	000100b7          	lui	ra,0x10
800002fc:	fff08093          	addi	ra,ra,-1 # ffff <_start-0x7fff0001>
80000300:	00000013          	nop
80000304:	00000013          	nop
80000308:	0a032137          	lui	sp,0xa032
8000030c:	23310113          	addi	sp,sp,563 # a032233 <_start-0x75fcddcd>
80000310:	2820a733          	xperm4	a4,ra,sp
80000314:	00120213          	addi	tp,tp,1 # 1 <_start-0x7fffffff>
80000318:	00200293          	li	t0,2
8000031c:	fc521ee3          	bne	tp,t0,800002f8 <test_19+0x8>
80000320:	f10003b7          	lui	t2,0xf1000
80000324:	fff38393          	addi	t2,t2,-1 # f0ffffff <_end+0x70ffdfff>
80000328:	1a771a63          	bne	a4,t2,800004dc <fail>

8000032c <test_20>:
8000032c:	01400193          	li	gp,20
80000330:	00000213          	li	tp,0
80000334:	45670137          	lui	sp,0x45670
80000338:	30110113          	addi	sp,sp,769 # 45670301 <_start-0x3a98fcff>
8000033c:	112210b7          	lui	ra,0x11221
80000340:	12208093          	addi	ra,ra,290 # 11221122 <_start-0x6eddeede>
80000344:	2820a733          	xperm4	a4,ra,sp
80000348:	00120213          	addi	tp,tp,1 # 1 <_start-0x7fffffff>
8000034c:	00200293          	li	t0,2
80000350:	fe5212e3          	bne	tp,t0,80000334 <test_20+0x8>
80000354:	221123b7          	lui	t2,0x22112
80000358:	12238393          	addi	t2,t2,290 # 22112122 <_start-0x5deedede>
8000035c:	18771063          	bne	a4,t2,800004dc <fail>

80000360 <test_21>:
80000360:	01500193          	li	gp,21
80000364:	00000213          	li	tp,0
80000368:	04300113          	li	sp,67
8000036c:	000100b7          	lui	ra,0x10
80000370:	fff08093          	addi	ra,ra,-1 # ffff <_start-0x7fff0001>
80000374:	00000013          	nop
80000378:	2820a733          	xperm4	a4,ra,sp
8000037c:	00120213          	addi	tp,tp,1 # 1 <_start-0x7fffffff>
80000380:	00200293          	li	t0,2
80000384:	fe5212e3          	bne	tp,t0,80000368 <test_21+0x8>
80000388:	f0f00393          	li	t2,-241
8000038c:	14771863          	bne	a4,t2,800004dc <fail>

80000390 <test_22>:
80000390:	01600193          	li	gp,22
80000394:	00000213          	li	tp,0
80000398:	aaaa0137          	lui	sp,0xaaaa0
8000039c:	02210113          	addi	sp,sp,34 # aaaa0022 <_end+0x2aa9e022>
800003a0:	000100b7          	lui	ra,0x10
800003a4:	fff08093          	addi	ra,ra,-1 # ffff <_start-0x7fff0001>
800003a8:	00000013          	nop
800003ac:	00000013          	nop
800003b0:	2820a733          	xperm4	a4,ra,sp
800003b4:	00120213          	addi	tp,tp,1 # 1 <_start-0x7fffffff>
800003b8:	00200293          	li	t0,2
800003bc:	fc521ee3          	bne	tp,t0,80000398 <test_22+0x8>
800003c0:	000103b7          	lui	t2,0x10
800003c4:	fff38393          	addi	t2,t2,-1 # ffff <_start-0x7fff0001>
800003c8:	10771a63          	bne	a4,t2,800004dc <fail>

800003cc <test_23>:
800003cc:	01700193          	li	gp,23
800003d0:	00000213          	li	tp,0
800003d4:	01230137          	lui	sp,0x1230
800003d8:	12310113          	addi	sp,sp,291 # 1230123 <_start-0x7edcfedd>
800003dc:	00000013          	nop
800003e0:	deadc0b7          	lui	ra,0xdeadc
800003e4:	eef08093          	addi	ra,ra,-273 # deadbeef <_end+0x5ead9eef>
800003e8:	2820a733          	xperm4	a4,ra,sp
800003ec:	00120213          	addi	tp,tp,1 # 1 <_start-0x7fffffff>
800003f0:	00200293          	li	t0,2
800003f4:	fe5210e3          	bne	tp,t0,800003d4 <test_23+0x8>
800003f8:	feec03b7          	lui	t2,0xfeec0
800003fc:	eeb38393          	addi	t2,t2,-277 # feebfeeb <_end+0x7eebdeeb>
80000400:	0c771e63          	bne	a4,t2,800004dc <fail>

80000404 <test_24>:
80000404:	01800193          	li	gp,24
80000408:	00000213          	li	tp,0
8000040c:	03014137          	lui	sp,0x3014
80000410:	56710113          	addi	sp,sp,1383 # 3014567 <_start-0x7cfeba99>
80000414:	00000013          	nop
80000418:	aabbd0b7          	lui	ra,0xaabbd
8000041c:	cee08093          	addi	ra,ra,-786 # aabbccee <_end+0x2abbacee>
80000420:	00000013          	nop
80000424:	2820a733          	xperm4	a4,ra,sp
80000428:	00120213          	addi	tp,tp,1 # 1 <_start-0x7fffffff>
8000042c:	00200293          	li	t0,2
80000430:	fc521ee3          	bne	tp,t0,8000040c <test_24+0x8>
80000434:	eceec3b7          	lui	t2,0xeceec
80000438:	baa38393          	addi	t2,t2,-1110 # eceebbaa <_end+0x6cee9baa>
8000043c:	0a771063          	bne	a4,t2,800004dc <fail>

80000440 <test_25>:
80000440:	01900193          	li	gp,25
80000444:	00000213          	li	tp,0
80000448:	08061137          	lui	sp,0x8061
8000044c:	11110113          	addi	sp,sp,273 # 8061111 <_start-0x77f9eeef>
80000450:	00000013          	nop
80000454:	00000013          	nop
80000458:	876520b7          	lui	ra,0x87652
8000045c:	22208093          	addi	ra,ra,546 # 87652222 <_end+0x7650222>
80000460:	2820a733          	xperm4	a4,ra,sp
80000464:	00120213          	addi	tp,tp,1 # 1 <_start-0x7fffffff>
80000468:	00200293          	li	t0,2
8000046c:	fc521ee3          	bne	tp,t0,80000448 <test_25+0x8>
80000470:	202723b7          	lui	t2,0x20272
80000474:	22238393          	addi	t2,t2,546 # 20272222 <_start-0x5fd8ddde>
80000478:	06771263          	bne	a4,t2,800004dc <fail>

8000047c <test_26>:
8000047c:	01a00193          	li	gp,26
80000480:	112200b7          	lui	ra,0x11220
80000484:	28102133          	xperm4	sp,zero,ra
80000488:	00000393          	li	t2,0
8000048c:	04711863          	bne	sp,t2,800004dc <fail>

80000490 <test_27>:
80000490:	01b00193          	li	gp,27
80000494:	000010b7          	lui	ra,0x1
80000498:	12208093          	addi	ra,ra,290 # 1122 <_start-0x7fffeede>
8000049c:	2800a133          	xperm4	sp,ra,zero
800004a0:	222223b7          	lui	t2,0x22222
800004a4:	22238393          	addi	t2,t2,546 # 22222222 <_start-0x5dddddde>
800004a8:	02711a63          	bne	sp,t2,800004dc <fail>

800004ac <test_28>:
800004ac:	01c00193          	li	gp,28
800004b0:	280020b3          	xperm4	ra,zero,zero
800004b4:	00000393          	li	t2,0
800004b8:	02709263          	bne	ra,t2,800004dc <fail>

800004bc <test_29>:
800004bc:	01d00193          	li	gp,29
800004c0:	00000093          	li	ra,0
800004c4:	11223137          	lui	sp,0x11223
800004c8:	34410113          	addi	sp,sp,836 # 11223344 <_start-0x6eddccbc>
800004cc:	2820a033          	xperm4	zero,ra,sp
800004d0:	00000393          	li	t2,0
800004d4:	00701463          	bne	zero,t2,800004dc <fail>
800004d8:	00301663          	bne	zero,gp,800004e4 <pass>

800004dc <fail>:
800004dc:	00100513          	li	a0,1
800004e0:	00c0006f          	j	800004ec <halt>

800004e4 <pass>:
800004e4:	00000513          	li	a0,0
800004e8:	0040006f          	j	800004ec <halt>

800004ec <halt>:
800004ec:	0000006f          	j	800004ec <halt>
800004f0:	0000                	.insn	2, 0x
800004f2:	0000                	.insn	2, 0x
800004f4:	0000                	.insn	2, 0x
800004f6:	0000                	.insn	2, 0x
800004f8:	0000                	.insn	2, 0x
800004fa:	0000                	.insn	2, 0x
800004fc:	0000                	.insn	2, 0x
800004fe:	0000                	.insn	2, 0x
80000500:	0000                	.insn	2, 0x
80000502:	0000                	.insn	2, 0x
