
rv32um-p-divu:     file format elf32-littleriscv


Disassembly of section .text.init:

80000000 <_start>:
80000000:	01400093          	li	ra,20
80000004:	00600113          	li	sp,6
80000008:	0220d733          	divu	a4,ra,sp
8000000c:	00300393          	li	t2,3
80000010:	00200193          	li	gp,2
80000014:	0c771663          	bne	a4,t2,800000e0 <fail>

80000018 <test_3>:
80000018:	fec00093          	li	ra,-20
8000001c:	00600113          	li	sp,6
80000020:	0220d733          	divu	a4,ra,sp
80000024:	2aaab3b7          	lui	t2,0x2aaab
80000028:	aa738393          	addi	t2,t2,-1369 # 2aaaaaa7 <_start-0x55555559>
8000002c:	00300193          	li	gp,3
80000030:	0a771863          	bne	a4,t2,800000e0 <fail>

80000034 <test_4>:
80000034:	01400093          	li	ra,20
80000038:	ffa00113          	li	sp,-6
8000003c:	0220d733          	divu	a4,ra,sp
80000040:	00000393          	li	t2,0
80000044:	00400193          	li	gp,4
80000048:	08771c63          	bne	a4,t2,800000e0 <fail>

8000004c <test_5>:
8000004c:	fec00093          	li	ra,-20
80000050:	ffa00113          	li	sp,-6
80000054:	0220d733          	divu	a4,ra,sp
80000058:	00000393          	li	t2,0
8000005c:	00500193          	li	gp,5
80000060:	08771063          	bne	a4,t2,800000e0 <fail>

80000064 <test_6>:
80000064:	800000b7          	lui	ra,0x80000
80000068:	00100113          	li	sp,1
8000006c:	0220d733          	divu	a4,ra,sp
80000070:	800003b7          	lui	t2,0x80000
80000074:	00600193          	li	gp,6
80000078:	06771463          	bne	a4,t2,800000e0 <fail>

8000007c <test_7>:
8000007c:	800000b7          	lui	ra,0x80000
80000080:	fff00113          	li	sp,-1
80000084:	0220d733          	divu	a4,ra,sp
80000088:	00000393          	li	t2,0
8000008c:	00700193          	li	gp,7
80000090:	04771863          	bne	a4,t2,800000e0 <fail>

80000094 <test_8>:
80000094:	800000b7          	lui	ra,0x80000
80000098:	00000113          	li	sp,0
8000009c:	0220d733          	divu	a4,ra,sp
800000a0:	fff00393          	li	t2,-1
800000a4:	00800193          	li	gp,8
800000a8:	02771c63          	bne	a4,t2,800000e0 <fail>

800000ac <test_9>:
800000ac:	00100093          	li	ra,1
800000b0:	00000113          	li	sp,0
800000b4:	0220d733          	divu	a4,ra,sp
800000b8:	fff00393          	li	t2,-1
800000bc:	00900193          	li	gp,9
800000c0:	02771063          	bne	a4,t2,800000e0 <fail>

800000c4 <test_10>:
800000c4:	00000093          	li	ra,0
800000c8:	00000113          	li	sp,0
800000cc:	0220d733          	divu	a4,ra,sp
800000d0:	fff00393          	li	t2,-1
800000d4:	00a00193          	li	gp,10
800000d8:	00771463          	bne	a4,t2,800000e0 <fail>
800000dc:	00301663          	bne	zero,gp,800000e8 <pass>

800000e0 <fail>:
800000e0:	00100513          	li	a0,1
800000e4:	00c0006f          	j	800000f0 <halt>

800000e8 <pass>:
800000e8:	00000513          	li	a0,0
800000ec:	0040006f          	j	800000f0 <halt>

800000f0 <halt>:
800000f0:	0000006f          	j	800000f0 <halt>
800000f4:	0000                	unimp
800000f6:	0000                	unimp
800000f8:	0000                	unimp
800000fa:	0000                	unimp
800000fc:	0000                	unimp
800000fe:	0000                	unimp
80000100:	0000                	unimp
80000102:	0000                	unimp
