
rv32um-p-mulh:     file format elf32-littleriscv


Disassembly of section .text.init:

80000000 <_start>:
80000000:	00000093          	li	ra,0
80000004:	00000113          	li	sp,0
80000008:	02209733          	mulh	a4,ra,sp
8000000c:	00000393          	li	t2,0
80000010:	00200193          	li	gp,2
80000014:	4a771a63          	bne	a4,t2,800004c8 <fail>

80000018 <test_3>:
80000018:	00100093          	li	ra,1
8000001c:	00100113          	li	sp,1
80000020:	02209733          	mulh	a4,ra,sp
80000024:	00000393          	li	t2,0
80000028:	00300193          	li	gp,3
8000002c:	48771e63          	bne	a4,t2,800004c8 <fail>

80000030 <test_4>:
80000030:	00300093          	li	ra,3
80000034:	00700113          	li	sp,7
80000038:	02209733          	mulh	a4,ra,sp
8000003c:	00000393          	li	t2,0
80000040:	00400193          	li	gp,4
80000044:	48771263          	bne	a4,t2,800004c8 <fail>

80000048 <test_5>:
80000048:	00000093          	li	ra,0
8000004c:	ffff8137          	lui	sp,0xffff8
80000050:	02209733          	mulh	a4,ra,sp
80000054:	00000393          	li	t2,0
80000058:	00500193          	li	gp,5
8000005c:	46771663          	bne	a4,t2,800004c8 <fail>

80000060 <test_6>:
80000060:	800000b7          	lui	ra,0x80000
80000064:	00000113          	li	sp,0
80000068:	02209733          	mulh	a4,ra,sp
8000006c:	00000393          	li	t2,0
80000070:	00600193          	li	gp,6
80000074:	44771a63          	bne	a4,t2,800004c8 <fail>

80000078 <test_7>:
80000078:	800000b7          	lui	ra,0x80000
8000007c:	00000113          	li	sp,0
80000080:	02209733          	mulh	a4,ra,sp
80000084:	00000393          	li	t2,0
80000088:	00700193          	li	gp,7
8000008c:	42771e63          	bne	a4,t2,800004c8 <fail>

80000090 <test_30>:
80000090:	aaaab0b7          	lui	ra,0xaaaab
80000094:	aab08093          	addi	ra,ra,-1365 # aaaaaaab <_end+0x2aaa8aab>
80000098:	00030137          	lui	sp,0x30
8000009c:	e7d10113          	addi	sp,sp,-387 # 2fe7d <_start-0x7ffd0183>
800000a0:	02209733          	mulh	a4,ra,sp
800000a4:	ffff03b7          	lui	t2,0xffff0
800000a8:	08138393          	addi	t2,t2,129 # ffff0081 <_end+0x7ffee081>
800000ac:	01e00193          	li	gp,30
800000b0:	40771c63          	bne	a4,t2,800004c8 <fail>

800000b4 <test_31>:
800000b4:	000300b7          	lui	ra,0x30
800000b8:	e7d08093          	addi	ra,ra,-387 # 2fe7d <_start-0x7ffd0183>
800000bc:	aaaab137          	lui	sp,0xaaaab
800000c0:	aab10113          	addi	sp,sp,-1365 # aaaaaaab <_end+0x2aaa8aab>
800000c4:	02209733          	mulh	a4,ra,sp
800000c8:	ffff03b7          	lui	t2,0xffff0
800000cc:	08138393          	addi	t2,t2,129 # ffff0081 <_end+0x7ffee081>
800000d0:	01f00193          	li	gp,31
800000d4:	3e771a63          	bne	a4,t2,800004c8 <fail>

800000d8 <test_32>:
800000d8:	ff0000b7          	lui	ra,0xff000
800000dc:	ff000137          	lui	sp,0xff000
800000e0:	02209733          	mulh	a4,ra,sp
800000e4:	000103b7          	lui	t2,0x10
800000e8:	02000193          	li	gp,32
800000ec:	3c771e63          	bne	a4,t2,800004c8 <fail>

800000f0 <test_33>:
800000f0:	fff00093          	li	ra,-1
800000f4:	fff00113          	li	sp,-1
800000f8:	02209733          	mulh	a4,ra,sp
800000fc:	00000393          	li	t2,0
80000100:	02100193          	li	gp,33
80000104:	3c771263          	bne	a4,t2,800004c8 <fail>

80000108 <test_34>:
80000108:	fff00093          	li	ra,-1
8000010c:	00100113          	li	sp,1
80000110:	02209733          	mulh	a4,ra,sp
80000114:	fff00393          	li	t2,-1
80000118:	02200193          	li	gp,34
8000011c:	3a771663          	bne	a4,t2,800004c8 <fail>

80000120 <test_35>:
80000120:	00100093          	li	ra,1
80000124:	fff00113          	li	sp,-1
80000128:	02209733          	mulh	a4,ra,sp
8000012c:	fff00393          	li	t2,-1
80000130:	02300193          	li	gp,35
80000134:	38771a63          	bne	a4,t2,800004c8 <fail>

80000138 <test_8>:
80000138:	00d000b7          	lui	ra,0xd00
8000013c:	00b00137          	lui	sp,0xb00
80000140:	022090b3          	mulh	ra,ra,sp
80000144:	000093b7          	lui	t2,0x9
80000148:	f0038393          	addi	t2,t2,-256 # 8f00 <_start-0x7fff7100>
8000014c:	00800193          	li	gp,8
80000150:	36709c63          	bne	ra,t2,800004c8 <fail>

80000154 <test_9>:
80000154:	00e000b7          	lui	ra,0xe00
80000158:	00b00137          	lui	sp,0xb00
8000015c:	02209133          	mulh	sp,ra,sp
80000160:	0000a3b7          	lui	t2,0xa
80000164:	a0038393          	addi	t2,t2,-1536 # 9a00 <_start-0x7fff6600>
80000168:	00900193          	li	gp,9
8000016c:	34711e63          	bne	sp,t2,800004c8 <fail>

80000170 <test_10>:
80000170:	00d000b7          	lui	ra,0xd00
80000174:	021090b3          	mulh	ra,ra,ra
80000178:	0000b3b7          	lui	t2,0xb
8000017c:	90038393          	addi	t2,t2,-1792 # a900 <_start-0x7fff5700>
80000180:	00a00193          	li	gp,10
80000184:	34709263          	bne	ra,t2,800004c8 <fail>

80000188 <test_11>:
80000188:	00000213          	li	tp,0
8000018c:	00d000b7          	lui	ra,0xd00
80000190:	00b00137          	lui	sp,0xb00
80000194:	02209733          	mulh	a4,ra,sp
80000198:	00070313          	mv	t1,a4
8000019c:	00120213          	addi	tp,tp,1 # 1 <_start-0x7fffffff>
800001a0:	00200293          	li	t0,2
800001a4:	fe5214e3          	bne	tp,t0,8000018c <test_11+0x4>
800001a8:	000093b7          	lui	t2,0x9
800001ac:	f0038393          	addi	t2,t2,-256 # 8f00 <_start-0x7fff7100>
800001b0:	00b00193          	li	gp,11
800001b4:	30731a63          	bne	t1,t2,800004c8 <fail>

800001b8 <test_12>:
800001b8:	00000213          	li	tp,0
800001bc:	00e000b7          	lui	ra,0xe00
800001c0:	00b00137          	lui	sp,0xb00
800001c4:	02209733          	mulh	a4,ra,sp
800001c8:	00000013          	nop
800001cc:	00070313          	mv	t1,a4
800001d0:	00120213          	addi	tp,tp,1 # 1 <_start-0x7fffffff>
800001d4:	00200293          	li	t0,2
800001d8:	fe5212e3          	bne	tp,t0,800001bc <test_12+0x4>
800001dc:	0000a3b7          	lui	t2,0xa
800001e0:	a0038393          	addi	t2,t2,-1536 # 9a00 <_start-0x7fff6600>
800001e4:	00c00193          	li	gp,12
800001e8:	2e731063          	bne	t1,t2,800004c8 <fail>

800001ec <test_13>:
800001ec:	00000213          	li	tp,0
800001f0:	00f000b7          	lui	ra,0xf00
800001f4:	00b00137          	lui	sp,0xb00
800001f8:	02209733          	mulh	a4,ra,sp
800001fc:	00000013          	nop
80000200:	00000013          	nop
80000204:	00070313          	mv	t1,a4
80000208:	00120213          	addi	tp,tp,1 # 1 <_start-0x7fffffff>
8000020c:	00200293          	li	t0,2
80000210:	fe5210e3          	bne	tp,t0,800001f0 <test_13+0x4>
80000214:	0000a3b7          	lui	t2,0xa
80000218:	50038393          	addi	t2,t2,1280 # a500 <_start-0x7fff5b00>
8000021c:	00d00193          	li	gp,13
80000220:	2a731463          	bne	t1,t2,800004c8 <fail>

80000224 <test_14>:
80000224:	00000213          	li	tp,0
80000228:	00d000b7          	lui	ra,0xd00
8000022c:	00b00137          	lui	sp,0xb00
80000230:	02209733          	mulh	a4,ra,sp
80000234:	00120213          	addi	tp,tp,1 # 1 <_start-0x7fffffff>
80000238:	00200293          	li	t0,2
8000023c:	fe5216e3          	bne	tp,t0,80000228 <test_14+0x4>
80000240:	000093b7          	lui	t2,0x9
80000244:	f0038393          	addi	t2,t2,-256 # 8f00 <_start-0x7fff7100>
80000248:	00e00193          	li	gp,14
8000024c:	26771e63          	bne	a4,t2,800004c8 <fail>

80000250 <test_15>:
80000250:	00000213          	li	tp,0
80000254:	00e000b7          	lui	ra,0xe00
80000258:	00b00137          	lui	sp,0xb00
8000025c:	00000013          	nop
80000260:	02209733          	mulh	a4,ra,sp
80000264:	00120213          	addi	tp,tp,1 # 1 <_start-0x7fffffff>
80000268:	00200293          	li	t0,2
8000026c:	fe5214e3          	bne	tp,t0,80000254 <test_15+0x4>
80000270:	0000a3b7          	lui	t2,0xa
80000274:	a0038393          	addi	t2,t2,-1536 # 9a00 <_start-0x7fff6600>
80000278:	00f00193          	li	gp,15
8000027c:	24771663          	bne	a4,t2,800004c8 <fail>

80000280 <test_16>:
80000280:	00000213          	li	tp,0
80000284:	00f000b7          	lui	ra,0xf00
80000288:	00b00137          	lui	sp,0xb00
8000028c:	00000013          	nop
80000290:	00000013          	nop
80000294:	02209733          	mulh	a4,ra,sp
80000298:	00120213          	addi	tp,tp,1 # 1 <_start-0x7fffffff>
8000029c:	00200293          	li	t0,2
800002a0:	fe5212e3          	bne	tp,t0,80000284 <test_16+0x4>
800002a4:	0000a3b7          	lui	t2,0xa
800002a8:	50038393          	addi	t2,t2,1280 # a500 <_start-0x7fff5b00>
800002ac:	01000193          	li	gp,16
800002b0:	20771c63          	bne	a4,t2,800004c8 <fail>

800002b4 <test_17>:
800002b4:	00000213          	li	tp,0
800002b8:	00d000b7          	lui	ra,0xd00
800002bc:	00000013          	nop
800002c0:	00b00137          	lui	sp,0xb00
800002c4:	02209733          	mulh	a4,ra,sp
800002c8:	00120213          	addi	tp,tp,1 # 1 <_start-0x7fffffff>
800002cc:	00200293          	li	t0,2
800002d0:	fe5214e3          	bne	tp,t0,800002b8 <test_17+0x4>
800002d4:	000093b7          	lui	t2,0x9
800002d8:	f0038393          	addi	t2,t2,-256 # 8f00 <_start-0x7fff7100>
800002dc:	01100193          	li	gp,17
800002e0:	1e771463          	bne	a4,t2,800004c8 <fail>

800002e4 <test_18>:
800002e4:	00000213          	li	tp,0
800002e8:	00e000b7          	lui	ra,0xe00
800002ec:	00000013          	nop
800002f0:	00b00137          	lui	sp,0xb00
800002f4:	00000013          	nop
800002f8:	02209733          	mulh	a4,ra,sp
800002fc:	00120213          	addi	tp,tp,1 # 1 <_start-0x7fffffff>
80000300:	00200293          	li	t0,2
80000304:	fe5212e3          	bne	tp,t0,800002e8 <test_18+0x4>
80000308:	0000a3b7          	lui	t2,0xa
8000030c:	a0038393          	addi	t2,t2,-1536 # 9a00 <_start-0x7fff6600>
80000310:	01200193          	li	gp,18
80000314:	1a771a63          	bne	a4,t2,800004c8 <fail>

80000318 <test_19>:
80000318:	00000213          	li	tp,0
8000031c:	00f000b7          	lui	ra,0xf00
80000320:	00000013          	nop
80000324:	00000013          	nop
80000328:	00b00137          	lui	sp,0xb00
8000032c:	02209733          	mulh	a4,ra,sp
80000330:	00120213          	addi	tp,tp,1 # 1 <_start-0x7fffffff>
80000334:	00200293          	li	t0,2
80000338:	fe5212e3          	bne	tp,t0,8000031c <test_19+0x4>
8000033c:	0000a3b7          	lui	t2,0xa
80000340:	50038393          	addi	t2,t2,1280 # a500 <_start-0x7fff5b00>
80000344:	01300193          	li	gp,19
80000348:	18771063          	bne	a4,t2,800004c8 <fail>

8000034c <test_20>:
8000034c:	00000213          	li	tp,0
80000350:	00b00137          	lui	sp,0xb00
80000354:	00d000b7          	lui	ra,0xd00
80000358:	02209733          	mulh	a4,ra,sp
8000035c:	00120213          	addi	tp,tp,1 # 1 <_start-0x7fffffff>
80000360:	00200293          	li	t0,2
80000364:	fe5216e3          	bne	tp,t0,80000350 <test_20+0x4>
80000368:	000093b7          	lui	t2,0x9
8000036c:	f0038393          	addi	t2,t2,-256 # 8f00 <_start-0x7fff7100>
80000370:	01400193          	li	gp,20
80000374:	14771a63          	bne	a4,t2,800004c8 <fail>

80000378 <test_21>:
80000378:	00000213          	li	tp,0
8000037c:	00b00137          	lui	sp,0xb00
80000380:	00e000b7          	lui	ra,0xe00
80000384:	00000013          	nop
80000388:	02209733          	mulh	a4,ra,sp
8000038c:	00120213          	addi	tp,tp,1 # 1 <_start-0x7fffffff>
80000390:	00200293          	li	t0,2
80000394:	fe5214e3          	bne	tp,t0,8000037c <test_21+0x4>
80000398:	0000a3b7          	lui	t2,0xa
8000039c:	a0038393          	addi	t2,t2,-1536 # 9a00 <_start-0x7fff6600>
800003a0:	01500193          	li	gp,21
800003a4:	12771263          	bne	a4,t2,800004c8 <fail>

800003a8 <test_22>:
800003a8:	00000213          	li	tp,0
800003ac:	00b00137          	lui	sp,0xb00
800003b0:	00f000b7          	lui	ra,0xf00
800003b4:	00000013          	nop
800003b8:	00000013          	nop
800003bc:	02209733          	mulh	a4,ra,sp
800003c0:	00120213          	addi	tp,tp,1 # 1 <_start-0x7fffffff>
800003c4:	00200293          	li	t0,2
800003c8:	fe5212e3          	bne	tp,t0,800003ac <test_22+0x4>
800003cc:	0000a3b7          	lui	t2,0xa
800003d0:	50038393          	addi	t2,t2,1280 # a500 <_start-0x7fff5b00>
800003d4:	01600193          	li	gp,22
800003d8:	0e771863          	bne	a4,t2,800004c8 <fail>

800003dc <test_23>:
800003dc:	00000213          	li	tp,0
800003e0:	00b00137          	lui	sp,0xb00
800003e4:	00000013          	nop
800003e8:	00d000b7          	lui	ra,0xd00
800003ec:	02209733          	mulh	a4,ra,sp
800003f0:	00120213          	addi	tp,tp,1 # 1 <_start-0x7fffffff>
800003f4:	00200293          	li	t0,2
800003f8:	fe5214e3          	bne	tp,t0,800003e0 <test_23+0x4>
800003fc:	000093b7          	lui	t2,0x9
80000400:	f0038393          	addi	t2,t2,-256 # 8f00 <_start-0x7fff7100>
80000404:	01700193          	li	gp,23
80000408:	0c771063          	bne	a4,t2,800004c8 <fail>

8000040c <test_24>:
8000040c:	00000213          	li	tp,0
80000410:	00b00137          	lui	sp,0xb00
80000414:	00000013          	nop
80000418:	00e000b7          	lui	ra,0xe00
8000041c:	00000013          	nop
80000420:	02209733          	mulh	a4,ra,sp
80000424:	00120213          	addi	tp,tp,1 # 1 <_start-0x7fffffff>
80000428:	00200293          	li	t0,2
8000042c:	fe5212e3          	bne	tp,t0,80000410 <test_24+0x4>
80000430:	0000a3b7          	lui	t2,0xa
80000434:	a0038393          	addi	t2,t2,-1536 # 9a00 <_start-0x7fff6600>
80000438:	01800193          	li	gp,24
8000043c:	08771663          	bne	a4,t2,800004c8 <fail>

80000440 <test_25>:
80000440:	00000213          	li	tp,0
80000444:	00b00137          	lui	sp,0xb00
80000448:	00000013          	nop
8000044c:	00000013          	nop
80000450:	00f000b7          	lui	ra,0xf00
80000454:	02209733          	mulh	a4,ra,sp
80000458:	00120213          	addi	tp,tp,1 # 1 <_start-0x7fffffff>
8000045c:	00200293          	li	t0,2
80000460:	fe5212e3          	bne	tp,t0,80000444 <test_25+0x4>
80000464:	0000a3b7          	lui	t2,0xa
80000468:	50038393          	addi	t2,t2,1280 # a500 <_start-0x7fff5b00>
8000046c:	01900193          	li	gp,25
80000470:	04771c63          	bne	a4,t2,800004c8 <fail>

80000474 <test_26>:
80000474:	7c0000b7          	lui	ra,0x7c000
80000478:	02101133          	mulh	sp,zero,ra
8000047c:	00000393          	li	t2,0
80000480:	01a00193          	li	gp,26
80000484:	04711263          	bne	sp,t2,800004c8 <fail>

80000488 <test_27>:
80000488:	800000b7          	lui	ra,0x80000
8000048c:	02009133          	mulh	sp,ra,zero
80000490:	00000393          	li	t2,0
80000494:	01b00193          	li	gp,27
80000498:	02711863          	bne	sp,t2,800004c8 <fail>

8000049c <test_28>:
8000049c:	020010b3          	mulh	ra,zero,zero
800004a0:	00000393          	li	t2,0
800004a4:	01c00193          	li	gp,28
800004a8:	02709063          	bne	ra,t2,800004c8 <fail>

800004ac <test_29>:
800004ac:	021000b7          	lui	ra,0x2100
800004b0:	02200137          	lui	sp,0x2200
800004b4:	02209033          	mulh	zero,ra,sp
800004b8:	00000393          	li	t2,0
800004bc:	01d00193          	li	gp,29
800004c0:	00701463          	bne	zero,t2,800004c8 <fail>
800004c4:	00301663          	bne	zero,gp,800004d0 <pass>

800004c8 <fail>:
800004c8:	00100513          	li	a0,1
800004cc:	00c0006f          	j	800004d8 <halt>

800004d0 <pass>:
800004d0:	00000513          	li	a0,0
800004d4:	0040006f          	j	800004d8 <halt>

800004d8 <halt>:
800004d8:	0000006f          	j	800004d8 <halt>
800004dc:	0000                	unimp
800004de:	0000                	unimp
800004e0:	0000                	unimp
800004e2:	0000                	unimp
800004e4:	0000                	unimp
800004e6:	0000                	unimp
800004e8:	0000                	unimp
800004ea:	0000                	unimp
800004ec:	0000                	unimp
800004ee:	0000                	unimp
800004f0:	0000                	unimp
800004f2:	0000                	unimp
800004f4:	0000                	unimp
800004f6:	0000                	unimp
800004f8:	0000                	unimp
800004fa:	0000                	unimp
800004fc:	0000                	unimp
800004fe:	0000                	unimp
80000500:	0000                	unimp
80000502:	0000                	unimp
