
rv64ui-p-sw:     file format elf64-littleriscv


Disassembly of section .text.init:

0000000080000000 <_start>:
    80000000:	0480006f          	j	80000048 <reset_vector>

0000000080000004 <trap_vector>:
    80000004:	34202f73          	csrr	t5,mcause
    80000008:	00800f93          	li	t6,8
    8000000c:	03ff0863          	beq	t5,t6,8000003c <write_tohost>
    80000010:	00900f93          	li	t6,9
    80000014:	03ff0463          	beq	t5,t6,8000003c <write_tohost>
    80000018:	00b00f93          	li	t6,11
    8000001c:	03ff0063          	beq	t5,t6,8000003c <write_tohost>
    80000020:	00000f13          	li	t5,0
    80000024:	000f0463          	beqz	t5,8000002c <trap_vector+0x28>
    80000028:	000f0067          	jr	t5
    8000002c:	34202f73          	csrr	t5,mcause
    80000030:	000f5463          	bgez	t5,80000038 <handle_exception>
    80000034:	0040006f          	j	80000038 <handle_exception>

0000000080000038 <handle_exception>:
    80000038:	5391e193          	ori	gp,gp,1337

000000008000003c <write_tohost>:
    8000003c:	00001f17          	auipc	t5,0x1
    80000040:	fc3f2223          	sw	gp,-60(t5) # 80001000 <tohost>
    80000044:	ff9ff06f          	j	8000003c <write_tohost>

0000000080000048 <reset_vector>:
    80000048:	00000093          	li	ra,0
    8000004c:	00000113          	li	sp,0
    80000050:	00000193          	li	gp,0
    80000054:	00000213          	li	tp,0
    80000058:	00000293          	li	t0,0
    8000005c:	00000313          	li	t1,0
    80000060:	00000393          	li	t2,0
    80000064:	00000413          	li	s0,0
    80000068:	00000493          	li	s1,0
    8000006c:	00000513          	li	a0,0
    80000070:	00000593          	li	a1,0
    80000074:	00000613          	li	a2,0
    80000078:	00000693          	li	a3,0
    8000007c:	00000713          	li	a4,0
    80000080:	00000793          	li	a5,0
    80000084:	00000813          	li	a6,0
    80000088:	00000893          	li	a7,0
    8000008c:	00000913          	li	s2,0
    80000090:	00000993          	li	s3,0
    80000094:	00000a13          	li	s4,0
    80000098:	00000a93          	li	s5,0
    8000009c:	00000b13          	li	s6,0
    800000a0:	00000b93          	li	s7,0
    800000a4:	00000c13          	li	s8,0
    800000a8:	00000c93          	li	s9,0
    800000ac:	00000d13          	li	s10,0
    800000b0:	00000d93          	li	s11,0
    800000b4:	00000e13          	li	t3,0
    800000b8:	00000e93          	li	t4,0
    800000bc:	00000f13          	li	t5,0
    800000c0:	00000f93          	li	t6,0
    800000c4:	f1402573          	csrr	a0,mhartid
    800000c8:	00051063          	bnez	a0,800000c8 <reset_vector+0x80>
    800000cc:	00000297          	auipc	t0,0x0
    800000d0:	01028293          	addi	t0,t0,16 # 800000dc <reset_vector+0x94>
    800000d4:	30529073          	csrw	mtvec,t0
    800000d8:	18005073          	csrwi	satp,0
    800000dc:	00000297          	auipc	t0,0x0
    800000e0:	02428293          	addi	t0,t0,36 # 80000100 <reset_vector+0xb8>
    800000e4:	30529073          	csrw	mtvec,t0
    800000e8:	0010029b          	addiw	t0,zero,1
    800000ec:	03529293          	slli	t0,t0,0x35
    800000f0:	fff28293          	addi	t0,t0,-1
    800000f4:	3b029073          	csrw	pmpaddr0,t0
    800000f8:	01f00293          	li	t0,31
    800000fc:	3a029073          	csrw	pmpcfg0,t0
    80000100:	30405073          	csrwi	mie,0
    80000104:	00000297          	auipc	t0,0x0
    80000108:	01428293          	addi	t0,t0,20 # 80000118 <reset_vector+0xd0>
    8000010c:	30529073          	csrw	mtvec,t0
    80000110:	30205073          	csrwi	medeleg,0
    80000114:	30305073          	csrwi	mideleg,0
    80000118:	00000193          	li	gp,0
    8000011c:	00000297          	auipc	t0,0x0
    80000120:	ee828293          	addi	t0,t0,-280 # 80000004 <trap_vector>
    80000124:	30529073          	csrw	mtvec,t0
    80000128:	00100513          	li	a0,1
    8000012c:	01f51513          	slli	a0,a0,0x1f
    80000130:	00055663          	bgez	a0,8000013c <reset_vector+0xf4>
    80000134:	00000513          	li	a0,0
    80000138:	4c80006f          	j	80000600 <halt>
    8000013c:	00000293          	li	t0,0
    80000140:	00028a63          	beqz	t0,80000154 <reset_vector+0x10c>
    80000144:	10529073          	csrw	stvec,t0
    80000148:	0000b2b7          	lui	t0,0xb
    8000014c:	1092829b          	addiw	t0,t0,265 # b109 <_start-0x7fff4ef7>
    80000150:	30229073          	csrw	medeleg,t0
    80000154:	30005073          	csrwi	mstatus,0
    80000158:	00000297          	auipc	t0,0x0
    8000015c:	01428293          	addi	t0,t0,20 # 8000016c <test_2>
    80000160:	34129073          	csrw	mepc,t0
    80000164:	f1402573          	csrr	a0,mhartid
    80000168:	30200073          	mret

000000008000016c <test_2>:
    8000016c:	00002097          	auipc	ra,0x2
    80000170:	e9408093          	addi	ra,ra,-364 # 80002000 <begin_signature>
    80000174:	00aa0137          	lui	sp,0xaa0
    80000178:	0aa1011b          	addiw	sp,sp,170 # aa00aa <_start-0x7f55ff56>
    8000017c:	0020a023          	sw	sp,0(ra)
    80000180:	0000a703          	lw	a4,0(ra)
    80000184:	00aa03b7          	lui	t2,0xaa0
    80000188:	0aa3839b          	addiw	t2,t2,170 # aa00aa <_start-0x7f55ff56>
    8000018c:	00200193          	li	gp,2
    80000190:	46771063          	bne	a4,t2,800005f0 <fail>

0000000080000194 <test_3>:
    80000194:	00002097          	auipc	ra,0x2
    80000198:	e6c08093          	addi	ra,ra,-404 # 80002000 <begin_signature>
    8000019c:	aa00b137          	lui	sp,0xaa00b
    800001a0:	a001011b          	addiw	sp,sp,-1536 # ffffffffaa00aa00 <_end+0xffffffff2a0089d0>
    800001a4:	0020a223          	sw	sp,4(ra)
    800001a8:	0040a703          	lw	a4,4(ra)
    800001ac:	aa00b3b7          	lui	t2,0xaa00b
    800001b0:	a003839b          	addiw	t2,t2,-1536 # ffffffffaa00aa00 <_end+0xffffffff2a0089d0>
    800001b4:	00300193          	li	gp,3
    800001b8:	42771c63          	bne	a4,t2,800005f0 <fail>

00000000800001bc <test_4>:
    800001bc:	00002097          	auipc	ra,0x2
    800001c0:	e4408093          	addi	ra,ra,-444 # 80002000 <begin_signature>
    800001c4:	0aa01137          	lui	sp,0xaa01
    800001c8:	aa01011b          	addiw	sp,sp,-1376 # aa00aa0 <_start-0x755ff560>
    800001cc:	0020a423          	sw	sp,8(ra)
    800001d0:	0080a703          	lw	a4,8(ra)
    800001d4:	0aa013b7          	lui	t2,0xaa01
    800001d8:	aa03839b          	addiw	t2,t2,-1376 # aa00aa0 <_start-0x755ff560>
    800001dc:	00400193          	li	gp,4
    800001e0:	40771863          	bne	a4,t2,800005f0 <fail>

00000000800001e4 <test_5>:
    800001e4:	00002097          	auipc	ra,0x2
    800001e8:	e1c08093          	addi	ra,ra,-484 # 80002000 <begin_signature>
    800001ec:	a00aa137          	lui	sp,0xa00aa
    800001f0:	00a1011b          	addiw	sp,sp,10 # ffffffffa00aa00a <_end+0xffffffff200a7fda>
    800001f4:	0020a623          	sw	sp,12(ra)
    800001f8:	00c0a703          	lw	a4,12(ra)
    800001fc:	a00aa3b7          	lui	t2,0xa00aa
    80000200:	00a3839b          	addiw	t2,t2,10 # ffffffffa00aa00a <_end+0xffffffff200a7fda>
    80000204:	00500193          	li	gp,5
    80000208:	3e771463          	bne	a4,t2,800005f0 <fail>

000000008000020c <test_6>:
    8000020c:	00002097          	auipc	ra,0x2
    80000210:	e1008093          	addi	ra,ra,-496 # 8000201c <tdat8>
    80000214:	00aa0137          	lui	sp,0xaa0
    80000218:	0aa1011b          	addiw	sp,sp,170 # aa00aa <_start-0x7f55ff56>
    8000021c:	fe20aa23          	sw	sp,-12(ra)
    80000220:	ff40a703          	lw	a4,-12(ra)
    80000224:	00aa03b7          	lui	t2,0xaa0
    80000228:	0aa3839b          	addiw	t2,t2,170 # aa00aa <_start-0x7f55ff56>
    8000022c:	00600193          	li	gp,6
    80000230:	3c771063          	bne	a4,t2,800005f0 <fail>

0000000080000234 <test_7>:
    80000234:	00002097          	auipc	ra,0x2
    80000238:	de808093          	addi	ra,ra,-536 # 8000201c <tdat8>
    8000023c:	aa00b137          	lui	sp,0xaa00b
    80000240:	a001011b          	addiw	sp,sp,-1536 # ffffffffaa00aa00 <_end+0xffffffff2a0089d0>
    80000244:	fe20ac23          	sw	sp,-8(ra)
    80000248:	ff80a703          	lw	a4,-8(ra)
    8000024c:	aa00b3b7          	lui	t2,0xaa00b
    80000250:	a003839b          	addiw	t2,t2,-1536 # ffffffffaa00aa00 <_end+0xffffffff2a0089d0>
    80000254:	00700193          	li	gp,7
    80000258:	38771c63          	bne	a4,t2,800005f0 <fail>

000000008000025c <test_8>:
    8000025c:	00002097          	auipc	ra,0x2
    80000260:	dc008093          	addi	ra,ra,-576 # 8000201c <tdat8>
    80000264:	0aa01137          	lui	sp,0xaa01
    80000268:	aa01011b          	addiw	sp,sp,-1376 # aa00aa0 <_start-0x755ff560>
    8000026c:	fe20ae23          	sw	sp,-4(ra)
    80000270:	ffc0a703          	lw	a4,-4(ra)
    80000274:	0aa013b7          	lui	t2,0xaa01
    80000278:	aa03839b          	addiw	t2,t2,-1376 # aa00aa0 <_start-0x755ff560>
    8000027c:	00800193          	li	gp,8
    80000280:	36771863          	bne	a4,t2,800005f0 <fail>

0000000080000284 <test_9>:
    80000284:	00002097          	auipc	ra,0x2
    80000288:	d9808093          	addi	ra,ra,-616 # 8000201c <tdat8>
    8000028c:	a00aa137          	lui	sp,0xa00aa
    80000290:	00a1011b          	addiw	sp,sp,10 # ffffffffa00aa00a <_end+0xffffffff200a7fda>
    80000294:	0020a023          	sw	sp,0(ra)
    80000298:	0000a703          	lw	a4,0(ra)
    8000029c:	a00aa3b7          	lui	t2,0xa00aa
    800002a0:	00a3839b          	addiw	t2,t2,10 # ffffffffa00aa00a <_end+0xffffffff200a7fda>
    800002a4:	00900193          	li	gp,9
    800002a8:	34771463          	bne	a4,t2,800005f0 <fail>

00000000800002ac <test_10>:
    800002ac:	00002097          	auipc	ra,0x2
    800002b0:	d7408093          	addi	ra,ra,-652 # 80002020 <tdat9>
    800002b4:	12345137          	lui	sp,0x12345
    800002b8:	6781011b          	addiw	sp,sp,1656 # 12345678 <_start-0x6dcba988>
    800002bc:	fe008213          	addi	tp,ra,-32
    800002c0:	02222023          	sw	sp,32(tp) # 20 <_start-0x7fffffe0>
    800002c4:	0000a283          	lw	t0,0(ra)
    800002c8:	123453b7          	lui	t2,0x12345
    800002cc:	6783839b          	addiw	t2,t2,1656 # 12345678 <_start-0x6dcba988>
    800002d0:	00a00193          	li	gp,10
    800002d4:	30729e63          	bne	t0,t2,800005f0 <fail>

00000000800002d8 <test_11>:
    800002d8:	00002097          	auipc	ra,0x2
    800002dc:	d4808093          	addi	ra,ra,-696 # 80002020 <tdat9>
    800002e0:	58213137          	lui	sp,0x58213
    800002e4:	0981011b          	addiw	sp,sp,152 # 58213098 <_start-0x27decf68>
    800002e8:	ffd08093          	addi	ra,ra,-3
    800002ec:	0020a3a3          	sw	sp,7(ra)
    800002f0:	00002217          	auipc	tp,0x2
    800002f4:	d3420213          	addi	tp,tp,-716 # 80002024 <tdat10>
    800002f8:	00022283          	lw	t0,0(tp) # 0 <_start-0x80000000>
    800002fc:	582133b7          	lui	t2,0x58213
    80000300:	0983839b          	addiw	t2,t2,152 # 58213098 <_start-0x27decf68>
    80000304:	00b00193          	li	gp,11
    80000308:	2e729463          	bne	t0,t2,800005f0 <fail>

000000008000030c <test_12>:
    8000030c:	00c00193          	li	gp,12
    80000310:	00000213          	li	tp,0
    80000314:	aabbd0b7          	lui	ra,0xaabbd
    80000318:	cdd0809b          	addiw	ra,ra,-803 # ffffffffaabbccdd <_end+0xffffffff2abbacad>
    8000031c:	00002117          	auipc	sp,0x2
    80000320:	ce410113          	addi	sp,sp,-796 # 80002000 <begin_signature>
    80000324:	00112023          	sw	ra,0(sp)
    80000328:	00012703          	lw	a4,0(sp)
    8000032c:	aabbd3b7          	lui	t2,0xaabbd
    80000330:	cdd3839b          	addiw	t2,t2,-803 # ffffffffaabbccdd <_end+0xffffffff2abbacad>
    80000334:	2a771e63          	bne	a4,t2,800005f0 <fail>
    80000338:	00120213          	addi	tp,tp,1 # 1 <_start-0x7fffffff>
    8000033c:	00200293          	li	t0,2
    80000340:	fc521ae3          	bne	tp,t0,80000314 <test_12+0x8>

0000000080000344 <test_13>:
    80000344:	00d00193          	li	gp,13
    80000348:	00000213          	li	tp,0
    8000034c:	daabc0b7          	lui	ra,0xdaabc
    80000350:	ccd0809b          	addiw	ra,ra,-819 # ffffffffdaabbccd <_end+0xffffffff5aab9c9d>
    80000354:	00002117          	auipc	sp,0x2
    80000358:	cac10113          	addi	sp,sp,-852 # 80002000 <begin_signature>
    8000035c:	00000013          	nop
    80000360:	00112223          	sw	ra,4(sp)
    80000364:	00412703          	lw	a4,4(sp)
    80000368:	daabc3b7          	lui	t2,0xdaabc
    8000036c:	ccd3839b          	addiw	t2,t2,-819 # ffffffffdaabbccd <_end+0xffffffff5aab9c9d>
    80000370:	28771063          	bne	a4,t2,800005f0 <fail>
    80000374:	00120213          	addi	tp,tp,1 # 1 <_start-0x7fffffff>
    80000378:	00200293          	li	t0,2
    8000037c:	fc5218e3          	bne	tp,t0,8000034c <test_13+0x8>

0000000080000380 <test_14>:
    80000380:	00e00193          	li	gp,14
    80000384:	00000213          	li	tp,0
    80000388:	ddaac0b7          	lui	ra,0xddaac
    8000038c:	bcc0809b          	addiw	ra,ra,-1076 # ffffffffddaabbcc <_end+0xffffffff5daa9b9c>
    80000390:	00002117          	auipc	sp,0x2
    80000394:	c7010113          	addi	sp,sp,-912 # 80002000 <begin_signature>
    80000398:	00000013          	nop
    8000039c:	00000013          	nop
    800003a0:	00112423          	sw	ra,8(sp)
    800003a4:	00812703          	lw	a4,8(sp)
    800003a8:	ddaac3b7          	lui	t2,0xddaac
    800003ac:	bcc3839b          	addiw	t2,t2,-1076 # ffffffffddaabbcc <_end+0xffffffff5daa9b9c>
    800003b0:	24771063          	bne	a4,t2,800005f0 <fail>
    800003b4:	00120213          	addi	tp,tp,1 # 1 <_start-0x7fffffff>
    800003b8:	00200293          	li	t0,2
    800003bc:	fc5216e3          	bne	tp,t0,80000388 <test_14+0x8>

00000000800003c0 <test_15>:
    800003c0:	00f00193          	li	gp,15
    800003c4:	00000213          	li	tp,0
    800003c8:	cddab0b7          	lui	ra,0xcddab
    800003cc:	bbc0809b          	addiw	ra,ra,-1092 # ffffffffcddaabbc <_end+0xffffffff4dda8b8c>
    800003d0:	00000013          	nop
    800003d4:	00002117          	auipc	sp,0x2
    800003d8:	c2c10113          	addi	sp,sp,-980 # 80002000 <begin_signature>
    800003dc:	00112623          	sw	ra,12(sp)
    800003e0:	00c12703          	lw	a4,12(sp)
    800003e4:	cddab3b7          	lui	t2,0xcddab
    800003e8:	bbc3839b          	addiw	t2,t2,-1092 # ffffffffcddaabbc <_end+0xffffffff4dda8b8c>
    800003ec:	20771263          	bne	a4,t2,800005f0 <fail>
    800003f0:	00120213          	addi	tp,tp,1 # 1 <_start-0x7fffffff>
    800003f4:	00200293          	li	t0,2
    800003f8:	fc5218e3          	bne	tp,t0,800003c8 <test_15+0x8>

00000000800003fc <test_16>:
    800003fc:	01000193          	li	gp,16
    80000400:	00000213          	li	tp,0
    80000404:	ccddb0b7          	lui	ra,0xccddb
    80000408:	abb0809b          	addiw	ra,ra,-1349 # ffffffffccddaabb <_end+0xffffffff4cdd8a8b>
    8000040c:	00000013          	nop
    80000410:	00002117          	auipc	sp,0x2
    80000414:	bf010113          	addi	sp,sp,-1040 # 80002000 <begin_signature>
    80000418:	00000013          	nop
    8000041c:	00112823          	sw	ra,16(sp)
    80000420:	01012703          	lw	a4,16(sp)
    80000424:	ccddb3b7          	lui	t2,0xccddb
    80000428:	abb3839b          	addiw	t2,t2,-1349 # ffffffffccddaabb <_end+0xffffffff4cdd8a8b>
    8000042c:	1c771263          	bne	a4,t2,800005f0 <fail>
    80000430:	00120213          	addi	tp,tp,1 # 1 <_start-0x7fffffff>
    80000434:	00200293          	li	t0,2
    80000438:	fc5216e3          	bne	tp,t0,80000404 <test_16+0x8>

000000008000043c <test_17>:
    8000043c:	01100193          	li	gp,17
    80000440:	00000213          	li	tp,0
    80000444:	bccde0b7          	lui	ra,0xbccde
    80000448:	aab0809b          	addiw	ra,ra,-1365 # ffffffffbccddaab <_end+0xffffffff3ccdba7b>
    8000044c:	00000013          	nop
    80000450:	00000013          	nop
    80000454:	00002117          	auipc	sp,0x2
    80000458:	bac10113          	addi	sp,sp,-1108 # 80002000 <begin_signature>
    8000045c:	00112a23          	sw	ra,20(sp)
    80000460:	01412703          	lw	a4,20(sp)
    80000464:	bccde3b7          	lui	t2,0xbccde
    80000468:	aab3839b          	addiw	t2,t2,-1365 # ffffffffbccddaab <_end+0xffffffff3ccdba7b>
    8000046c:	18771263          	bne	a4,t2,800005f0 <fail>
    80000470:	00120213          	addi	tp,tp,1 # 1 <_start-0x7fffffff>
    80000474:	00200293          	li	t0,2
    80000478:	fc5216e3          	bne	tp,t0,80000444 <test_17+0x8>

000000008000047c <test_18>:
    8000047c:	01200193          	li	gp,18
    80000480:	00000213          	li	tp,0
    80000484:	00002117          	auipc	sp,0x2
    80000488:	b7c10113          	addi	sp,sp,-1156 # 80002000 <begin_signature>
    8000048c:	001120b7          	lui	ra,0x112
    80000490:	2330809b          	addiw	ra,ra,563 # 112233 <_start-0x7feeddcd>
    80000494:	00112023          	sw	ra,0(sp)
    80000498:	00012703          	lw	a4,0(sp)
    8000049c:	001123b7          	lui	t2,0x112
    800004a0:	2333839b          	addiw	t2,t2,563 # 112233 <_start-0x7feeddcd>
    800004a4:	14771663          	bne	a4,t2,800005f0 <fail>
    800004a8:	00120213          	addi	tp,tp,1 # 1 <_start-0x7fffffff>
    800004ac:	00200293          	li	t0,2
    800004b0:	fc521ae3          	bne	tp,t0,80000484 <test_18+0x8>

00000000800004b4 <test_19>:
    800004b4:	01300193          	li	gp,19
    800004b8:	00000213          	li	tp,0
    800004bc:	00002117          	auipc	sp,0x2
    800004c0:	b4410113          	addi	sp,sp,-1212 # 80002000 <begin_signature>
    800004c4:	300110b7          	lui	ra,0x30011
    800004c8:	2230809b          	addiw	ra,ra,547 # 30011223 <_start-0x4ffeeddd>
    800004cc:	00000013          	nop
    800004d0:	00112223          	sw	ra,4(sp)
    800004d4:	00412703          	lw	a4,4(sp)
    800004d8:	300113b7          	lui	t2,0x30011
    800004dc:	2233839b          	addiw	t2,t2,547 # 30011223 <_start-0x4ffeeddd>
    800004e0:	10771863          	bne	a4,t2,800005f0 <fail>
    800004e4:	00120213          	addi	tp,tp,1 # 1 <_start-0x7fffffff>
    800004e8:	00200293          	li	t0,2
    800004ec:	fc5218e3          	bne	tp,t0,800004bc <test_19+0x8>

00000000800004f0 <test_20>:
    800004f0:	01400193          	li	gp,20
    800004f4:	00000213          	li	tp,0
    800004f8:	00002117          	auipc	sp,0x2
    800004fc:	b0810113          	addi	sp,sp,-1272 # 80002000 <begin_signature>
    80000500:	330010b7          	lui	ra,0x33001
    80000504:	1220809b          	addiw	ra,ra,290 # 33001122 <_start-0x4cffeede>
    80000508:	00000013          	nop
    8000050c:	00000013          	nop
    80000510:	00112423          	sw	ra,8(sp)
    80000514:	00812703          	lw	a4,8(sp)
    80000518:	330013b7          	lui	t2,0x33001
    8000051c:	1223839b          	addiw	t2,t2,290 # 33001122 <_start-0x4cffeede>
    80000520:	0c771863          	bne	a4,t2,800005f0 <fail>
    80000524:	00120213          	addi	tp,tp,1 # 1 <_start-0x7fffffff>
    80000528:	00200293          	li	t0,2
    8000052c:	fc5216e3          	bne	tp,t0,800004f8 <test_20+0x8>

0000000080000530 <test_21>:
    80000530:	01500193          	li	gp,21
    80000534:	00000213          	li	tp,0
    80000538:	00002117          	auipc	sp,0x2
    8000053c:	ac810113          	addi	sp,sp,-1336 # 80002000 <begin_signature>
    80000540:	00000013          	nop
    80000544:	233000b7          	lui	ra,0x23300
    80000548:	1120809b          	addiw	ra,ra,274 # 23300112 <_start-0x5ccffeee>
    8000054c:	00112623          	sw	ra,12(sp)
    80000550:	00c12703          	lw	a4,12(sp)
    80000554:	233003b7          	lui	t2,0x23300
    80000558:	1123839b          	addiw	t2,t2,274 # 23300112 <_start-0x5ccffeee>
    8000055c:	08771a63          	bne	a4,t2,800005f0 <fail>
    80000560:	00120213          	addi	tp,tp,1 # 1 <_start-0x7fffffff>
    80000564:	00200293          	li	t0,2
    80000568:	fc5218e3          	bne	tp,t0,80000538 <test_21+0x8>

000000008000056c <test_22>:
    8000056c:	01600193          	li	gp,22
    80000570:	00000213          	li	tp,0
    80000574:	00002117          	auipc	sp,0x2
    80000578:	a8c10113          	addi	sp,sp,-1396 # 80002000 <begin_signature>
    8000057c:	00000013          	nop
    80000580:	223300b7          	lui	ra,0x22330
    80000584:	0110809b          	addiw	ra,ra,17 # 22330011 <_start-0x5dccffef>
    80000588:	00000013          	nop
    8000058c:	00112823          	sw	ra,16(sp)
    80000590:	01012703          	lw	a4,16(sp)
    80000594:	223303b7          	lui	t2,0x22330
    80000598:	0113839b          	addiw	t2,t2,17 # 22330011 <_start-0x5dccffef>
    8000059c:	04771a63          	bne	a4,t2,800005f0 <fail>
    800005a0:	00120213          	addi	tp,tp,1 # 1 <_start-0x7fffffff>
    800005a4:	00200293          	li	t0,2
    800005a8:	fc5216e3          	bne	tp,t0,80000574 <test_22+0x8>

00000000800005ac <test_23>:
    800005ac:	01700193          	li	gp,23
    800005b0:	00000213          	li	tp,0
    800005b4:	00002117          	auipc	sp,0x2
    800005b8:	a4c10113          	addi	sp,sp,-1460 # 80002000 <begin_signature>
    800005bc:	00000013          	nop
    800005c0:	00000013          	nop
    800005c4:	122330b7          	lui	ra,0x12233
    800005c8:	0010809b          	addiw	ra,ra,1 # 12233001 <_start-0x6ddccfff>
    800005cc:	00112a23          	sw	ra,20(sp)
    800005d0:	01412703          	lw	a4,20(sp)
    800005d4:	122333b7          	lui	t2,0x12233
    800005d8:	0013839b          	addiw	t2,t2,1 # 12233001 <_start-0x6ddccfff>
    800005dc:	00771a63          	bne	a4,t2,800005f0 <fail>
    800005e0:	00120213          	addi	tp,tp,1 # 1 <_start-0x7fffffff>
    800005e4:	00200293          	li	t0,2
    800005e8:	fc5216e3          	bne	tp,t0,800005b4 <test_23+0x8>
    800005ec:	00301663          	bne	zero,gp,800005f8 <pass>

00000000800005f0 <fail>:
    800005f0:	00100513          	li	a0,1
    800005f4:	00c0006f          	j	80000600 <halt>

00000000800005f8 <pass>:
    800005f8:	00000513          	li	a0,0
    800005fc:	0040006f          	j	80000600 <halt>

0000000080000600 <halt>:
    80000600:	0000006f          	j	80000600 <halt>
    80000604:	0000                	.2byte	0x0
    80000606:	0000                	.2byte	0x0
    80000608:	0000                	.2byte	0x0
    8000060a:	0000                	.2byte	0x0
    8000060c:	0000                	.2byte	0x0
    8000060e:	0000                	.2byte	0x0
    80000610:	0000                	.2byte	0x0
    80000612:	0000                	.2byte	0x0
    80000614:	0000                	.2byte	0x0
    80000616:	0000                	.2byte	0x0
    80000618:	0000                	.2byte	0x0
    8000061a:	0000                	.2byte	0x0
    8000061c:	0000                	.2byte	0x0
    8000061e:	0000                	.2byte	0x0
    80000620:	0000                	.2byte	0x0
    80000622:	0000                	.2byte	0x0
    80000624:	0000                	.2byte	0x0
    80000626:	0000                	.2byte	0x0
    80000628:	0000                	.2byte	0x0
    8000062a:	0000                	.2byte	0x0
    8000062c:	0000                	.2byte	0x0
    8000062e:	0000                	.2byte	0x0
    80000630:	0000                	.2byte	0x0
    80000632:	0000                	.2byte	0x0
    80000634:	0000                	.2byte	0x0
    80000636:	0000                	.2byte	0x0
    80000638:	0000                	.2byte	0x0
    8000063a:	0000                	.2byte	0x0
