
rv64ui-p-sb:     file format elf64-littleriscv


Disassembly of section .text.init:

0000000080000000 <_start>:
    80000000:	0480006f          	j	80000048 <reset_vector>

0000000080000004 <trap_vector>:
    80000004:	34202f73          	csrr	t5,mcause
    80000008:	00800f93          	li	t6,8
    8000000c:	03ff0863          	beq	t5,t6,8000003c <write_tohost>
    80000010:	00900f93          	li	t6,9
    80000014:	03ff0463          	beq	t5,t6,8000003c <write_tohost>
    80000018:	00b00f93          	li	t6,11
    8000001c:	03ff0063          	beq	t5,t6,8000003c <write_tohost>
    80000020:	00000f13          	li	t5,0
    80000024:	000f0463          	beqz	t5,8000002c <trap_vector+0x28>
    80000028:	000f0067          	jr	t5
    8000002c:	34202f73          	csrr	t5,mcause
    80000030:	000f5463          	bgez	t5,80000038 <handle_exception>
    80000034:	0040006f          	j	80000038 <handle_exception>

0000000080000038 <handle_exception>:
    80000038:	5391e193          	ori	gp,gp,1337

000000008000003c <write_tohost>:
    8000003c:	00001f17          	auipc	t5,0x1
    80000040:	fc3f2223          	sw	gp,-60(t5) # 80001000 <tohost>
    80000044:	ff9ff06f          	j	8000003c <write_tohost>

0000000080000048 <reset_vector>:
    80000048:	00000093          	li	ra,0
    8000004c:	00000113          	li	sp,0
    80000050:	00000193          	li	gp,0
    80000054:	00000213          	li	tp,0
    80000058:	00000293          	li	t0,0
    8000005c:	00000313          	li	t1,0
    80000060:	00000393          	li	t2,0
    80000064:	00000413          	li	s0,0
    80000068:	00000493          	li	s1,0
    8000006c:	00000513          	li	a0,0
    80000070:	00000593          	li	a1,0
    80000074:	00000613          	li	a2,0
    80000078:	00000693          	li	a3,0
    8000007c:	00000713          	li	a4,0
    80000080:	00000793          	li	a5,0
    80000084:	00000813          	li	a6,0
    80000088:	00000893          	li	a7,0
    8000008c:	00000913          	li	s2,0
    80000090:	00000993          	li	s3,0
    80000094:	00000a13          	li	s4,0
    80000098:	00000a93          	li	s5,0
    8000009c:	00000b13          	li	s6,0
    800000a0:	00000b93          	li	s7,0
    800000a4:	00000c13          	li	s8,0
    800000a8:	00000c93          	li	s9,0
    800000ac:	00000d13          	li	s10,0
    800000b0:	00000d93          	li	s11,0
    800000b4:	00000e13          	li	t3,0
    800000b8:	00000e93          	li	t4,0
    800000bc:	00000f13          	li	t5,0
    800000c0:	00000f93          	li	t6,0
    800000c4:	f1402573          	csrr	a0,mhartid
    800000c8:	00051063          	bnez	a0,800000c8 <reset_vector+0x80>
    800000cc:	00000297          	auipc	t0,0x0
    800000d0:	01028293          	addi	t0,t0,16 # 800000dc <reset_vector+0x94>
    800000d4:	30529073          	csrw	mtvec,t0
    800000d8:	18005073          	csrwi	satp,0
    800000dc:	00000297          	auipc	t0,0x0
    800000e0:	02428293          	addi	t0,t0,36 # 80000100 <reset_vector+0xb8>
    800000e4:	30529073          	csrw	mtvec,t0
    800000e8:	0010029b          	addiw	t0,zero,1
    800000ec:	03529293          	slli	t0,t0,0x35
    800000f0:	fff28293          	addi	t0,t0,-1
    800000f4:	3b029073          	csrw	pmpaddr0,t0
    800000f8:	01f00293          	li	t0,31
    800000fc:	3a029073          	csrw	pmpcfg0,t0
    80000100:	30405073          	csrwi	mie,0
    80000104:	00000297          	auipc	t0,0x0
    80000108:	01428293          	addi	t0,t0,20 # 80000118 <reset_vector+0xd0>
    8000010c:	30529073          	csrw	mtvec,t0
    80000110:	30205073          	csrwi	medeleg,0
    80000114:	30305073          	csrwi	mideleg,0
    80000118:	00000193          	li	gp,0
    8000011c:	00000297          	auipc	t0,0x0
    80000120:	ee828293          	addi	t0,t0,-280 # 80000004 <trap_vector>
    80000124:	30529073          	csrw	mtvec,t0
    80000128:	00100513          	li	a0,1
    8000012c:	01f51513          	slli	a0,a0,0x1f
    80000130:	00055663          	bgez	a0,8000013c <reset_vector+0xf4>
    80000134:	00000513          	li	a0,0
    80000138:	4380006f          	j	80000570 <halt>
    8000013c:	00000293          	li	t0,0
    80000140:	00028a63          	beqz	t0,80000154 <reset_vector+0x10c>
    80000144:	10529073          	csrw	stvec,t0
    80000148:	0000b2b7          	lui	t0,0xb
    8000014c:	1092829b          	addiw	t0,t0,265 # b109 <_start-0x7fff4ef7>
    80000150:	30229073          	csrw	medeleg,t0
    80000154:	30005073          	csrwi	mstatus,0
    80000158:	00000297          	auipc	t0,0x0
    8000015c:	01428293          	addi	t0,t0,20 # 8000016c <test_2>
    80000160:	34129073          	csrw	mepc,t0
    80000164:	f1402573          	csrr	a0,mhartid
    80000168:	30200073          	mret

000000008000016c <test_2>:
    8000016c:	00002097          	auipc	ra,0x2
    80000170:	e9408093          	addi	ra,ra,-364 # 80002000 <begin_signature>
    80000174:	faa00113          	li	sp,-86
    80000178:	00208023          	sb	sp,0(ra)
    8000017c:	00008703          	lb	a4,0(ra)
    80000180:	faa00393          	li	t2,-86
    80000184:	00200193          	li	gp,2
    80000188:	3c771c63          	bne	a4,t2,80000560 <fail>

000000008000018c <test_3>:
    8000018c:	00002097          	auipc	ra,0x2
    80000190:	e7408093          	addi	ra,ra,-396 # 80002000 <begin_signature>
    80000194:	00000113          	li	sp,0
    80000198:	002080a3          	sb	sp,1(ra)
    8000019c:	00108703          	lb	a4,1(ra)
    800001a0:	00000393          	li	t2,0
    800001a4:	00300193          	li	gp,3
    800001a8:	3a771c63          	bne	a4,t2,80000560 <fail>

00000000800001ac <test_4>:
    800001ac:	00002097          	auipc	ra,0x2
    800001b0:	e5408093          	addi	ra,ra,-428 # 80002000 <begin_signature>
    800001b4:	fffff137          	lui	sp,0xfffff
    800001b8:	fa01011b          	addiw	sp,sp,-96 # ffffffffffffefa0 <_end+0xffffffff7fffcf90>
    800001bc:	00208123          	sb	sp,2(ra)
    800001c0:	00209703          	lh	a4,2(ra)
    800001c4:	fffff3b7          	lui	t2,0xfffff
    800001c8:	fa03839b          	addiw	t2,t2,-96 # ffffffffffffefa0 <_end+0xffffffff7fffcf90>
    800001cc:	00400193          	li	gp,4
    800001d0:	38771863          	bne	a4,t2,80000560 <fail>

00000000800001d4 <test_5>:
    800001d4:	00002097          	auipc	ra,0x2
    800001d8:	e2c08093          	addi	ra,ra,-468 # 80002000 <begin_signature>
    800001dc:	00a00113          	li	sp,10
    800001e0:	002081a3          	sb	sp,3(ra)
    800001e4:	00308703          	lb	a4,3(ra)
    800001e8:	00a00393          	li	t2,10
    800001ec:	00500193          	li	gp,5
    800001f0:	36771863          	bne	a4,t2,80000560 <fail>

00000000800001f4 <test_6>:
    800001f4:	00002097          	auipc	ra,0x2
    800001f8:	e1308093          	addi	ra,ra,-493 # 80002007 <tdat8>
    800001fc:	faa00113          	li	sp,-86
    80000200:	fe208ea3          	sb	sp,-3(ra)
    80000204:	ffd08703          	lb	a4,-3(ra)
    80000208:	faa00393          	li	t2,-86
    8000020c:	00600193          	li	gp,6
    80000210:	34771863          	bne	a4,t2,80000560 <fail>

0000000080000214 <test_7>:
    80000214:	00002097          	auipc	ra,0x2
    80000218:	df308093          	addi	ra,ra,-525 # 80002007 <tdat8>
    8000021c:	00000113          	li	sp,0
    80000220:	fe208f23          	sb	sp,-2(ra)
    80000224:	ffe08703          	lb	a4,-2(ra)
    80000228:	00000393          	li	t2,0
    8000022c:	00700193          	li	gp,7
    80000230:	32771863          	bne	a4,t2,80000560 <fail>

0000000080000234 <test_8>:
    80000234:	00002097          	auipc	ra,0x2
    80000238:	dd308093          	addi	ra,ra,-557 # 80002007 <tdat8>
    8000023c:	fa000113          	li	sp,-96
    80000240:	fe208fa3          	sb	sp,-1(ra)
    80000244:	fff08703          	lb	a4,-1(ra)
    80000248:	fa000393          	li	t2,-96
    8000024c:	00800193          	li	gp,8
    80000250:	30771863          	bne	a4,t2,80000560 <fail>

0000000080000254 <test_9>:
    80000254:	00002097          	auipc	ra,0x2
    80000258:	db308093          	addi	ra,ra,-589 # 80002007 <tdat8>
    8000025c:	00a00113          	li	sp,10
    80000260:	00208023          	sb	sp,0(ra)
    80000264:	00008703          	lb	a4,0(ra)
    80000268:	00a00393          	li	t2,10
    8000026c:	00900193          	li	gp,9
    80000270:	2e771863          	bne	a4,t2,80000560 <fail>

0000000080000274 <test_10>:
    80000274:	00002097          	auipc	ra,0x2
    80000278:	d9408093          	addi	ra,ra,-620 # 80002008 <tdat9>
    8000027c:	12345137          	lui	sp,0x12345
    80000280:	6781011b          	addiw	sp,sp,1656 # 12345678 <_start-0x6dcba988>
    80000284:	fe008213          	addi	tp,ra,-32
    80000288:	02220023          	sb	sp,32(tp) # 20 <_start-0x7fffffe0>
    8000028c:	00008283          	lb	t0,0(ra)
    80000290:	07800393          	li	t2,120
    80000294:	00a00193          	li	gp,10
    80000298:	2c729463          	bne	t0,t2,80000560 <fail>

000000008000029c <test_11>:
    8000029c:	00002097          	auipc	ra,0x2
    800002a0:	d6c08093          	addi	ra,ra,-660 # 80002008 <tdat9>
    800002a4:	00003137          	lui	sp,0x3
    800002a8:	0981011b          	addiw	sp,sp,152 # 3098 <_start-0x7fffcf68>
    800002ac:	ffa08093          	addi	ra,ra,-6
    800002b0:	002083a3          	sb	sp,7(ra)
    800002b4:	00002217          	auipc	tp,0x2
    800002b8:	d5520213          	addi	tp,tp,-683 # 80002009 <tdat10>
    800002bc:	00020283          	lb	t0,0(tp) # 0 <_start-0x80000000>
    800002c0:	f9800393          	li	t2,-104
    800002c4:	00b00193          	li	gp,11
    800002c8:	28729c63          	bne	t0,t2,80000560 <fail>

00000000800002cc <test_12>:
    800002cc:	00c00193          	li	gp,12
    800002d0:	00000213          	li	tp,0
    800002d4:	fdd00093          	li	ra,-35
    800002d8:	00002117          	auipc	sp,0x2
    800002dc:	d2810113          	addi	sp,sp,-728 # 80002000 <begin_signature>
    800002e0:	00110023          	sb	ra,0(sp)
    800002e4:	00010703          	lb	a4,0(sp)
    800002e8:	fdd00393          	li	t2,-35
    800002ec:	26771a63          	bne	a4,t2,80000560 <fail>
    800002f0:	00120213          	addi	tp,tp,1 # 1 <_start-0x7fffffff>
    800002f4:	00200293          	li	t0,2
    800002f8:	fc521ee3          	bne	tp,t0,800002d4 <test_12+0x8>

00000000800002fc <test_13>:
    800002fc:	00d00193          	li	gp,13
    80000300:	00000213          	li	tp,0
    80000304:	fcd00093          	li	ra,-51
    80000308:	00002117          	auipc	sp,0x2
    8000030c:	cf810113          	addi	sp,sp,-776 # 80002000 <begin_signature>
    80000310:	00000013          	nop
    80000314:	001100a3          	sb	ra,1(sp)
    80000318:	00110703          	lb	a4,1(sp)
    8000031c:	fcd00393          	li	t2,-51
    80000320:	24771063          	bne	a4,t2,80000560 <fail>
    80000324:	00120213          	addi	tp,tp,1 # 1 <_start-0x7fffffff>
    80000328:	00200293          	li	t0,2
    8000032c:	fc521ce3          	bne	tp,t0,80000304 <test_13+0x8>

0000000080000330 <test_14>:
    80000330:	00e00193          	li	gp,14
    80000334:	00000213          	li	tp,0
    80000338:	fcc00093          	li	ra,-52
    8000033c:	00002117          	auipc	sp,0x2
    80000340:	cc410113          	addi	sp,sp,-828 # 80002000 <begin_signature>
    80000344:	00000013          	nop
    80000348:	00000013          	nop
    8000034c:	00110123          	sb	ra,2(sp)
    80000350:	00210703          	lb	a4,2(sp)
    80000354:	fcc00393          	li	t2,-52
    80000358:	20771463          	bne	a4,t2,80000560 <fail>
    8000035c:	00120213          	addi	tp,tp,1 # 1 <_start-0x7fffffff>
    80000360:	00200293          	li	t0,2
    80000364:	fc521ae3          	bne	tp,t0,80000338 <test_14+0x8>

0000000080000368 <test_15>:
    80000368:	00f00193          	li	gp,15
    8000036c:	00000213          	li	tp,0
    80000370:	fbc00093          	li	ra,-68
    80000374:	00000013          	nop
    80000378:	00002117          	auipc	sp,0x2
    8000037c:	c8810113          	addi	sp,sp,-888 # 80002000 <begin_signature>
    80000380:	001101a3          	sb	ra,3(sp)
    80000384:	00310703          	lb	a4,3(sp)
    80000388:	fbc00393          	li	t2,-68
    8000038c:	1c771a63          	bne	a4,t2,80000560 <fail>
    80000390:	00120213          	addi	tp,tp,1 # 1 <_start-0x7fffffff>
    80000394:	00200293          	li	t0,2
    80000398:	fc521ce3          	bne	tp,t0,80000370 <test_15+0x8>

000000008000039c <test_16>:
    8000039c:	01000193          	li	gp,16
    800003a0:	00000213          	li	tp,0
    800003a4:	fbb00093          	li	ra,-69
    800003a8:	00000013          	nop
    800003ac:	00002117          	auipc	sp,0x2
    800003b0:	c5410113          	addi	sp,sp,-940 # 80002000 <begin_signature>
    800003b4:	00000013          	nop
    800003b8:	00110223          	sb	ra,4(sp)
    800003bc:	00410703          	lb	a4,4(sp)
    800003c0:	fbb00393          	li	t2,-69
    800003c4:	18771e63          	bne	a4,t2,80000560 <fail>
    800003c8:	00120213          	addi	tp,tp,1 # 1 <_start-0x7fffffff>
    800003cc:	00200293          	li	t0,2
    800003d0:	fc521ae3          	bne	tp,t0,800003a4 <test_16+0x8>

00000000800003d4 <test_17>:
    800003d4:	01100193          	li	gp,17
    800003d8:	00000213          	li	tp,0
    800003dc:	fab00093          	li	ra,-85
    800003e0:	00000013          	nop
    800003e4:	00000013          	nop
    800003e8:	00002117          	auipc	sp,0x2
    800003ec:	c1810113          	addi	sp,sp,-1000 # 80002000 <begin_signature>
    800003f0:	001102a3          	sb	ra,5(sp)
    800003f4:	00510703          	lb	a4,5(sp)
    800003f8:	fab00393          	li	t2,-85
    800003fc:	16771263          	bne	a4,t2,80000560 <fail>
    80000400:	00120213          	addi	tp,tp,1 # 1 <_start-0x7fffffff>
    80000404:	00200293          	li	t0,2
    80000408:	fc521ae3          	bne	tp,t0,800003dc <test_17+0x8>

000000008000040c <test_18>:
    8000040c:	01200193          	li	gp,18
    80000410:	00000213          	li	tp,0
    80000414:	00002117          	auipc	sp,0x2
    80000418:	bec10113          	addi	sp,sp,-1044 # 80002000 <begin_signature>
    8000041c:	03300093          	li	ra,51
    80000420:	00110023          	sb	ra,0(sp)
    80000424:	00010703          	lb	a4,0(sp)
    80000428:	03300393          	li	t2,51
    8000042c:	12771a63          	bne	a4,t2,80000560 <fail>
    80000430:	00120213          	addi	tp,tp,1 # 1 <_start-0x7fffffff>
    80000434:	00200293          	li	t0,2
    80000438:	fc521ee3          	bne	tp,t0,80000414 <test_18+0x8>

000000008000043c <test_19>:
    8000043c:	01300193          	li	gp,19
    80000440:	00000213          	li	tp,0
    80000444:	00002117          	auipc	sp,0x2
    80000448:	bbc10113          	addi	sp,sp,-1092 # 80002000 <begin_signature>
    8000044c:	02300093          	li	ra,35
    80000450:	00000013          	nop
    80000454:	001100a3          	sb	ra,1(sp)
    80000458:	00110703          	lb	a4,1(sp)
    8000045c:	02300393          	li	t2,35
    80000460:	10771063          	bne	a4,t2,80000560 <fail>
    80000464:	00120213          	addi	tp,tp,1 # 1 <_start-0x7fffffff>
    80000468:	00200293          	li	t0,2
    8000046c:	fc521ce3          	bne	tp,t0,80000444 <test_19+0x8>

0000000080000470 <test_20>:
    80000470:	01400193          	li	gp,20
    80000474:	00000213          	li	tp,0
    80000478:	00002117          	auipc	sp,0x2
    8000047c:	b8810113          	addi	sp,sp,-1144 # 80002000 <begin_signature>
    80000480:	02200093          	li	ra,34
    80000484:	00000013          	nop
    80000488:	00000013          	nop
    8000048c:	00110123          	sb	ra,2(sp)
    80000490:	00210703          	lb	a4,2(sp)
    80000494:	02200393          	li	t2,34
    80000498:	0c771463          	bne	a4,t2,80000560 <fail>
    8000049c:	00120213          	addi	tp,tp,1 # 1 <_start-0x7fffffff>
    800004a0:	00200293          	li	t0,2
    800004a4:	fc521ae3          	bne	tp,t0,80000478 <test_20+0x8>

00000000800004a8 <test_21>:
    800004a8:	01500193          	li	gp,21
    800004ac:	00000213          	li	tp,0
    800004b0:	00002117          	auipc	sp,0x2
    800004b4:	b5010113          	addi	sp,sp,-1200 # 80002000 <begin_signature>
    800004b8:	00000013          	nop
    800004bc:	01200093          	li	ra,18
    800004c0:	001101a3          	sb	ra,3(sp)
    800004c4:	00310703          	lb	a4,3(sp)
    800004c8:	01200393          	li	t2,18
    800004cc:	08771a63          	bne	a4,t2,80000560 <fail>
    800004d0:	00120213          	addi	tp,tp,1 # 1 <_start-0x7fffffff>
    800004d4:	00200293          	li	t0,2
    800004d8:	fc521ce3          	bne	tp,t0,800004b0 <test_21+0x8>

00000000800004dc <test_22>:
    800004dc:	01600193          	li	gp,22
    800004e0:	00000213          	li	tp,0
    800004e4:	00002117          	auipc	sp,0x2
    800004e8:	b1c10113          	addi	sp,sp,-1252 # 80002000 <begin_signature>
    800004ec:	00000013          	nop
    800004f0:	01100093          	li	ra,17
    800004f4:	00000013          	nop
    800004f8:	00110223          	sb	ra,4(sp)
    800004fc:	00410703          	lb	a4,4(sp)
    80000500:	01100393          	li	t2,17
    80000504:	04771e63          	bne	a4,t2,80000560 <fail>
    80000508:	00120213          	addi	tp,tp,1 # 1 <_start-0x7fffffff>
    8000050c:	00200293          	li	t0,2
    80000510:	fc521ae3          	bne	tp,t0,800004e4 <test_22+0x8>

0000000080000514 <test_23>:
    80000514:	01700193          	li	gp,23
    80000518:	00000213          	li	tp,0
    8000051c:	00002117          	auipc	sp,0x2
    80000520:	ae410113          	addi	sp,sp,-1308 # 80002000 <begin_signature>
    80000524:	00000013          	nop
    80000528:	00000013          	nop
    8000052c:	00100093          	li	ra,1
    80000530:	001102a3          	sb	ra,5(sp)
    80000534:	00510703          	lb	a4,5(sp)
    80000538:	00100393          	li	t2,1
    8000053c:	02771263          	bne	a4,t2,80000560 <fail>
    80000540:	00120213          	addi	tp,tp,1 # 1 <_start-0x7fffffff>
    80000544:	00200293          	li	t0,2
    80000548:	fc521ae3          	bne	tp,t0,8000051c <test_23+0x8>
    8000054c:	0ef00513          	li	a0,239
    80000550:	00002597          	auipc	a1,0x2
    80000554:	ab058593          	addi	a1,a1,-1360 # 80002000 <begin_signature>
    80000558:	00a581a3          	sb	a0,3(a1)
    8000055c:	00301663          	bne	zero,gp,80000568 <pass>

0000000080000560 <fail>:
    80000560:	00100513          	li	a0,1
    80000564:	00c0006f          	j	80000570 <halt>

0000000080000568 <pass>:
    80000568:	00000513          	li	a0,0
    8000056c:	0040006f          	j	80000570 <halt>

0000000080000570 <halt>:
    80000570:	0000006f          	j	80000570 <halt>
    80000574:	0000                	.2byte	0x0
    80000576:	0000                	.2byte	0x0
    80000578:	0000                	.2byte	0x0
    8000057a:	0000                	.2byte	0x0
