
rv64uzbkx-p-xperm_b:     file format elf64-littleriscv


Disassembly of section .text.init:

0000000080000000 <_start>:
    80000000:	00200193          	li	gp,2
    80000004:	ffff05b7          	lui	a1,0xffff0
    80000008:	0015859b          	addiw	a1,a1,1 # ffffffffffff0001 <_end+0xffffffff7ffee001>
    8000000c:	01059593          	slli	a1,a1,0x10
    80000010:	fff58593          	addi	a1,a1,-1
    80000014:	01059593          	slli	a1,a1,0x10
    80000018:	01020637          	lui	a2,0x1020
    8000001c:	1016061b          	addiw	a2,a2,257 # 1020101 <_start-0x7efdfeff>
    80000020:	00f61613          	slli	a2,a2,0xf
    80000024:	08160613          	addi	a2,a2,129
    80000028:	01161613          	slli	a2,a2,0x11
    8000002c:	10160613          	addi	a2,a2,257
    80000030:	28c5c733          	xperm8	a4,a1,a2
    80000034:	0ff0039b          	addiw	t2,zero,255
    80000038:	02039393          	slli	t2,t2,0x20
    8000003c:	0ff38393          	addi	t2,t2,255
    80000040:	01039393          	slli	t2,t2,0x10
    80000044:	1a7710e3          	bne	a4,t2,800009e4 <fail>

0000000080000048 <test_3>:
    80000048:	00300193          	li	gp,3
    8000004c:	0010059b          	addiw	a1,zero,1
    80000050:	03059593          	slli	a1,a1,0x30
    80000054:	fff58593          	addi	a1,a1,-1
    80000058:	0030061b          	addiw	a2,zero,3
    8000005c:	02061613          	slli	a2,a2,0x20
    80000060:	00360613          	addi	a2,a2,3
    80000064:	28c5c733          	xperm8	a4,a1,a2
    80000068:	fff00393          	li	t2,-1
    8000006c:	16771ce3          	bne	a4,t2,800009e4 <fail>

0000000080000070 <test_4>:
    80000070:	00400193          	li	gp,4
    80000074:	0010059b          	addiw	a1,zero,1
    80000078:	03059593          	slli	a1,a1,0x30
    8000007c:	fff58593          	addi	a1,a1,-1
    80000080:	05038637          	lui	a2,0x5038
    80000084:	1016061b          	addiw	a2,a2,257 # 5038101 <_start-0x7afc7eff>
    80000088:	02161613          	slli	a2,a2,0x21
    8000008c:	20260613          	addi	a2,a2,514
    80000090:	28c5c733          	xperm8	a4,a1,a2
    80000094:	0010039b          	addiw	t2,zero,1
    80000098:	03039393          	slli	t2,t2,0x30
    8000009c:	fff38393          	addi	t2,t2,-1
    800000a0:	147712e3          	bne	a4,t2,800009e4 <fail>

00000000800000a4 <test_5>:
    800000a4:	00500193          	li	gp,5
    800000a8:	010005b7          	lui	a1,0x1000
    800000ac:	f035859b          	addiw	a1,a1,-253 # ffff03 <_start-0x7f0000fd>
    800000b0:	01859593          	slli	a1,a1,0x18
    800000b4:	fff58593          	addi	a1,a1,-1
    800000b8:	3030061b          	addiw	a2,zero,771
    800000bc:	01861613          	slli	a2,a2,0x18
    800000c0:	00360613          	addi	a2,a2,3
    800000c4:	01061613          	slli	a2,a2,0x10
    800000c8:	30060613          	addi	a2,a2,768
    800000cc:	28c5c733          	xperm8	a4,a1,a2
    800000d0:	ffff03b7          	lui	t2,0xffff0
    800000d4:	2033839b          	addiw	t2,t2,515 # ffffffffffff0203 <_end+0xffffffff7ffee203>
    800000d8:	01739393          	slli	t2,t2,0x17
    800000dc:	f8138393          	addi	t2,t2,-127
    800000e0:	01139393          	slli	t2,t2,0x11
    800000e4:	2ff38393          	addi	t2,t2,767
    800000e8:	0e771ee3          	bne	a4,t2,800009e4 <fail>

00000000800000ec <test_6>:
    800000ec:	00600193          	li	gp,6
    800000f0:	ffef55b7          	lui	a1,0xffef5
    800000f4:	6df5859b          	addiw	a1,a1,1759 # ffffffffffef56df <_end+0xffffffff7fef36df>
    800000f8:	00c59593          	slli	a1,a1,0xc
    800000fc:	77f58593          	addi	a1,a1,1919
    80000100:	00f59593          	slli	a1,a1,0xf
    80000104:	ab758593          	addi	a1,a1,-1353
    80000108:	00e59593          	slli	a1,a1,0xe
    8000010c:	eef58593          	addi	a1,a1,-273
    80000110:	01c18637          	lui	a2,0x1c18
    80000114:	1416061b          	addiw	a2,a2,321 # 1c18141 <_start-0x7e3e7ebf>
    80000118:	01161613          	slli	a2,a2,0x11
    8000011c:	18160613          	addi	a2,a2,385
    80000120:	01161613          	slli	a2,a2,0x11
    80000124:	10060613          	addi	a2,a2,256
    80000128:	28c5c733          	xperm8	a4,a1,a2
    8000012c:	ffef53b7          	lui	t2,0xffef5
    80000130:	6df3839b          	addiw	t2,t2,1759 # ffffffffffef56df <_end+0xffffffff7fef36df>
    80000134:	00c39393          	slli	t2,t2,0xc
    80000138:	77f38393          	addi	t2,t2,1919
    8000013c:	00f39393          	slli	t2,t2,0xf
    80000140:	ab738393          	addi	t2,t2,-1353
    80000144:	00e39393          	slli	t2,t2,0xe
    80000148:	eef38393          	addi	t2,t2,-273
    8000014c:	08771ce3          	bne	a4,t2,800009e4 <fail>

0000000080000150 <test_7>:
    80000150:	00700193          	li	gp,7
    80000154:	faabc5b7          	lui	a1,0xfaabc
    80000158:	ccf5859b          	addiw	a1,a1,-817 # fffffffffaabbccf <_end+0xffffffff7aab9ccf>
    8000015c:	00c59593          	slli	a1,a1,0xc
    80000160:	eab58593          	addi	a1,a1,-341
    80000164:	00c59593          	slli	a1,a1,0xc
    80000168:	bbd58593          	addi	a1,a1,-1091
    8000016c:	00c59593          	slli	a1,a1,0xc
    80000170:	cee58593          	addi	a1,a1,-786
    80000174:	00010637          	lui	a2,0x10
    80000178:	2036061b          	addiw	a2,a2,515 # 10203 <_start-0x7ffefdfd>
    8000017c:	01061613          	slli	a2,a2,0x10
    80000180:	40560613          	addi	a2,a2,1029
    80000184:	01061613          	slli	a2,a2,0x10
    80000188:	60760613          	addi	a2,a2,1543
    8000018c:	28c5c733          	xperm8	a4,a1,a2
    80000190:	fffbb3b7          	lui	t2,0xfffbb
    80000194:	32f3839b          	addiw	t2,t2,815 # fffffffffffbb32f <_end+0xffffffff7ffb932f>
    80000198:	00e39393          	slli	t2,t2,0xe
    8000019c:	aaf38393          	addi	t2,t2,-1361
    800001a0:	00e39393          	slli	t2,t2,0xe
    800001a4:	b3338393          	addi	t2,t2,-1229
    800001a8:	00e39393          	slli	t2,t2,0xe
    800001ac:	baa38393          	addi	t2,t2,-1110
    800001b0:	02771ae3          	bne	a4,t2,800009e4 <fail>

00000000800001b4 <test_8>:
    800001b4:	00800193          	li	gp,8
    800001b8:	0328b5b7          	lui	a1,0x328b
    800001bc:	2b35859b          	addiw	a1,a1,691 # 328b2b3 <_start-0x7cd74d4d>
    800001c0:	00c59593          	slli	a1,a1,0xc
    800001c4:	a3358593          	addi	a1,a1,-1485
    800001c8:	00c59593          	slli	a1,a1,0xc
    800001cc:	89958593          	addi	a1,a1,-1895
    800001d0:	00d59593          	slli	a1,a1,0xd
    800001d4:	15458593          	addi	a1,a1,340
    800001d8:	01010637          	lui	a2,0x1010
    800001dc:	1016061b          	addiw	a2,a2,257 # 1010101 <_start-0x7efefeff>
    800001e0:	01061613          	slli	a2,a2,0x10
    800001e4:	10160613          	addi	a2,a2,257
    800001e8:	01061613          	slli	a2,a2,0x10
    800001ec:	10160613          	addi	a2,a2,257
    800001f0:	28c5c5b3          	xperm8	a1,a1,a2
    800001f4:	010913b7          	lui	t2,0x1091
    800001f8:	9093839b          	addiw	t2,t2,-1783 # 1090909 <_start-0x7ef6f6f7>
    800001fc:	00c39393          	slli	t2,t2,0xc
    80000200:	09138393          	addi	t2,t2,145
    80000204:	00c39393          	slli	t2,t2,0xc
    80000208:	90938393          	addi	t2,t2,-1783
    8000020c:	00d39393          	slli	t2,t2,0xd
    80000210:	12138393          	addi	t2,t2,289
    80000214:	7c759863          	bne	a1,t2,800009e4 <fail>

0000000080000218 <test_9>:
    80000218:	00900193          	li	gp,9
    8000021c:	fddcd5b7          	lui	a1,0xfddcd
    80000220:	bbb5859b          	addiw	a1,a1,-1093 # fffffffffddccbbb <_end+0xffffffff7ddcabbb>
    80000224:	00c59593          	slli	a1,a1,0xc
    80000228:	a1158593          	addi	a1,a1,-1519
    8000022c:	00c59593          	slli	a1,a1,0xc
    80000230:	22358593          	addi	a1,a1,547
    80000234:	00c59593          	slli	a1,a1,0xc
    80000238:	34458593          	addi	a1,a1,836
    8000023c:	00010637          	lui	a2,0x10
    80000240:	2036061b          	addiw	a2,a2,515 # 10203 <_start-0x7ffefdfd>
    80000244:	01061613          	slli	a2,a2,0x10
    80000248:	00160613          	addi	a2,a2,1
    8000024c:	01061613          	slli	a2,a2,0x10
    80000250:	20360613          	addi	a2,a2,515
    80000254:	28c5c633          	xperm8	a2,a1,a2
    80000258:	002223b7          	lui	t2,0x222
    8000025c:	9913839b          	addiw	t2,t2,-1647 # 221991 <_start-0x7fdde66f>
    80000260:	00f39393          	slli	t2,t2,0xf
    80000264:	45138393          	addi	t2,t2,1105
    80000268:	00d39393          	slli	t2,t2,0xd
    8000026c:	19938393          	addi	t2,t2,409
    80000270:	00d39393          	slli	t2,t2,0xd
    80000274:	21138393          	addi	t2,t2,529
    80000278:	76761663          	bne	a2,t2,800009e4 <fail>

000000008000027c <test_10>:
    8000027c:	00a00193          	li	gp,10
    80000280:	0c0105b7          	lui	a1,0xc010
    80000284:	2015859b          	addiw	a1,a1,513 # c010201 <_start-0x73fefdff>
    80000288:	00f59593          	slli	a1,a1,0xf
    8000028c:	08358593          	addi	a1,a1,131
    80000290:	01159593          	slli	a1,a1,0x11
    80000294:	20158593          	addi	a1,a1,513
    80000298:	28b5c5b3          	xperm8	a1,a1,a1
    8000029c:	000103b7          	lui	t2,0x10
    800002a0:	3013839b          	addiw	t2,t2,769 # 10301 <_start-0x7ffefcff>
    800002a4:	01139393          	slli	t2,t2,0x11
    800002a8:	20138393          	addi	t2,t2,513
    800002ac:	01039393          	slli	t2,t2,0x10
    800002b0:	60238393          	addi	t2,t2,1538
    800002b4:	72759863          	bne	a1,t2,800009e4 <fail>

00000000800002b8 <test_11>:
    800002b8:	00b00193          	li	gp,11
    800002bc:	00000213          	li	tp,0
    800002c0:	004490b7          	lui	ra,0x449
    800002c4:	8cd0809b          	addiw	ra,ra,-1843 # 4488cd <_start-0x7fbb7733>
    800002c8:	00e09093          	slli	ra,ra,0xe
    800002cc:	41108093          	addi	ra,ra,1041
    800002d0:	00c09093          	slli	ra,ra,0xc
    800002d4:	22308093          	addi	ra,ra,547
    800002d8:	00c09093          	slli	ra,ra,0xc
    800002dc:	34408093          	addi	ra,ra,836
    800002e0:	01810137          	lui	sp,0x1810
    800002e4:	0831011b          	addiw	sp,sp,131 # 1810083 <_start-0x7e7eff7d>
    800002e8:	01011113          	slli	sp,sp,0x10
    800002ec:	18110113          	addi	sp,sp,385
    800002f0:	01111113          	slli	sp,sp,0x11
    800002f4:	10610113          	addi	sp,sp,262
    800002f8:	2820c733          	xperm8	a4,ra,sp
    800002fc:	00070313          	mv	t1,a4
    80000300:	00120213          	addi	tp,tp,1 # 1 <_start-0x7fffffff>
    80000304:	00200293          	li	t0,2
    80000308:	fa521ce3          	bne	tp,t0,800002c0 <test_11+0x8>
    8000030c:	008913b7          	lui	t2,0x891
    80000310:	1993839b          	addiw	t2,t2,409 # 891199 <_start-0x7f76ee67>
    80000314:	00d39393          	slli	t2,t2,0xd
    80000318:	21138393          	addi	t2,t2,529
    8000031c:	00c39393          	slli	t2,t2,0xc
    80000320:	22338393          	addi	t2,t2,547
    80000324:	00c39393          	slli	t2,t2,0xc
    80000328:	32238393          	addi	t2,t2,802
    8000032c:	6a731c63          	bne	t1,t2,800009e4 <fail>

0000000080000330 <test_12>:
    80000330:	00c00193          	li	gp,12
    80000334:	00000213          	li	tp,0
    80000338:	0010009b          	addiw	ra,zero,1
    8000033c:	03009093          	slli	ra,ra,0x30
    80000340:	fff08093          	addi	ra,ra,-1
    80000344:	0030011b          	addiw	sp,zero,3
    80000348:	02011113          	slli	sp,sp,0x20
    8000034c:	00310113          	addi	sp,sp,3
    80000350:	2820c733          	xperm8	a4,ra,sp
    80000354:	00000013          	nop
    80000358:	00070313          	mv	t1,a4
    8000035c:	00120213          	addi	tp,tp,1 # 1 <_start-0x7fffffff>
    80000360:	00200293          	li	t0,2
    80000364:	fc521ae3          	bne	tp,t0,80000338 <test_12+0x8>
    80000368:	fff00393          	li	t2,-1
    8000036c:	66731c63          	bne	t1,t2,800009e4 <fail>

0000000080000370 <test_13>:
    80000370:	00d00193          	li	gp,13
    80000374:	00000213          	li	tp,0
    80000378:	0010009b          	addiw	ra,zero,1
    8000037c:	03009093          	slli	ra,ra,0x30
    80000380:	fff08093          	addi	ra,ra,-1
    80000384:	00078137          	lui	sp,0x78
    80000388:	0011011b          	addiw	sp,sp,1 # 78001 <_start-0x7ff87fff>
    8000038c:	01111113          	slli	sp,sp,0x11
    80000390:	20f10113          	addi	sp,sp,527
    80000394:	01811113          	slli	sp,sp,0x18
    80000398:	20210113          	addi	sp,sp,514
    8000039c:	2820c733          	xperm8	a4,ra,sp
    800003a0:	00000013          	nop
    800003a4:	00000013          	nop
    800003a8:	00070313          	mv	t1,a4
    800003ac:	00120213          	addi	tp,tp,1 # 1 <_start-0x7fffffff>
    800003b0:	00200293          	li	t0,2
    800003b4:	fc5212e3          	bne	tp,t0,80000378 <test_13+0x8>
    800003b8:	0010039b          	addiw	t2,zero,1
    800003bc:	02039393          	slli	t2,t2,0x20
    800003c0:	f0138393          	addi	t2,t2,-255
    800003c4:	01839393          	slli	t2,t2,0x18
    800003c8:	fff38393          	addi	t2,t2,-1
    800003cc:	60731c63          	bne	t1,t2,800009e4 <fail>

00000000800003d0 <test_14>:
    800003d0:	00e00193          	li	gp,14
    800003d4:	00000213          	li	tp,0
    800003d8:	ffef50b7          	lui	ra,0xffef5
    800003dc:	6df0809b          	addiw	ra,ra,1759 # ffffffffffef56df <_end+0xffffffff7fef36df>
    800003e0:	00c09093          	slli	ra,ra,0xc
    800003e4:	77f08093          	addi	ra,ra,1919
    800003e8:	00f09093          	slli	ra,ra,0xf
    800003ec:	ab708093          	addi	ra,ra,-1353
    800003f0:	00e09093          	slli	ra,ra,0xe
    800003f4:	eef08093          	addi	ra,ra,-273
    800003f8:	00010137          	lui	sp,0x10
    800003fc:	2031011b          	addiw	sp,sp,515 # 10203 <_start-0x7ffefdfd>
    80000400:	01011113          	slli	sp,sp,0x10
    80000404:	00110113          	addi	sp,sp,1
    80000408:	01011113          	slli	sp,sp,0x10
    8000040c:	20310113          	addi	sp,sp,515
    80000410:	2820c733          	xperm8	a4,ra,sp
    80000414:	00120213          	addi	tp,tp,1 # 1 <_start-0x7fffffff>
    80000418:	00200293          	li	t0,2
    8000041c:	fa521ee3          	bne	tp,t0,800003d8 <test_14+0x8>
    80000420:	fff7e3b7          	lui	t2,0xfff7e
    80000424:	f573839b          	addiw	t2,t2,-169 # fffffffffff7df57 <_end+0xffffffff7ff7bf57>
    80000428:	00d39393          	slli	t2,t2,0xd
    8000042c:	def38393          	addi	t2,t2,-529
    80000430:	01039393          	slli	t2,t2,0x10
    80000434:	beb38393          	addi	t2,t2,-1045
    80000438:	00c39393          	slli	t2,t2,0xc
    8000043c:	dde38393          	addi	t2,t2,-546
    80000440:	5a771263          	bne	a4,t2,800009e4 <fail>

0000000080000444 <test_15>:
    80000444:	00f00193          	li	gp,15
    80000448:	00000213          	li	tp,0
    8000044c:	faabc0b7          	lui	ra,0xfaabc
    80000450:	ccf0809b          	addiw	ra,ra,-817 # fffffffffaabbccf <_end+0xffffffff7aab9ccf>
    80000454:	00c09093          	slli	ra,ra,0xc
    80000458:	eab08093          	addi	ra,ra,-341
    8000045c:	00c09093          	slli	ra,ra,0xc
    80000460:	bbd08093          	addi	ra,ra,-1091
    80000464:	00c09093          	slli	ra,ra,0xc
    80000468:	cee08093          	addi	ra,ra,-786
    8000046c:	05050137          	lui	sp,0x5050
    80000470:	5051011b          	addiw	sp,sp,1285 # 5050505 <_start-0x7afafafb>
    80000474:	01011113          	slli	sp,sp,0x10
    80000478:	50510113          	addi	sp,sp,1285
    8000047c:	01011113          	slli	sp,sp,0x10
    80000480:	50510113          	addi	sp,sp,1285
    80000484:	00000013          	nop
    80000488:	2820c733          	xperm8	a4,ra,sp
    8000048c:	00120213          	addi	tp,tp,1 # 1 <_start-0x7fffffff>
    80000490:	00200293          	li	t0,2
    80000494:	fa521ce3          	bne	tp,t0,8000044c <test_15+0x8>
    80000498:	fcccd3b7          	lui	t2,0xfcccd
    8000049c:	ccd3839b          	addiw	t2,t2,-819 # fffffffffccccccd <_end+0xffffffff7cccaccd>
    800004a0:	00c39393          	slli	t2,t2,0xc
    800004a4:	ccd38393          	addi	t2,t2,-819
    800004a8:	00c39393          	slli	t2,t2,0xc
    800004ac:	ccd38393          	addi	t2,t2,-819
    800004b0:	00c39393          	slli	t2,t2,0xc
    800004b4:	ccc38393          	addi	t2,t2,-820
    800004b8:	52771663          	bne	a4,t2,800009e4 <fail>

00000000800004bc <test_16>:
    800004bc:	01000193          	li	gp,16
    800004c0:	00000213          	li	tp,0
    800004c4:	004490b7          	lui	ra,0x449
    800004c8:	8cd0809b          	addiw	ra,ra,-1843 # 4488cd <_start-0x7fbb7733>
    800004cc:	00e09093          	slli	ra,ra,0xe
    800004d0:	41108093          	addi	ra,ra,1041
    800004d4:	00c09093          	slli	ra,ra,0xc
    800004d8:	22308093          	addi	ra,ra,547
    800004dc:	00c09093          	slli	ra,ra,0xc
    800004e0:	34408093          	addi	ra,ra,836
    800004e4:	00030137          	lui	sp,0x30
    800004e8:	2011011b          	addiw	sp,sp,513 # 30201 <_start-0x7ffcfdff>
    800004ec:	01711113          	slli	sp,sp,0x17
    800004f0:	18110113          	addi	sp,sp,385
    800004f4:	01111113          	slli	sp,sp,0x11
    800004f8:	10010113          	addi	sp,sp,256
    800004fc:	00000013          	nop
    80000500:	00000013          	nop
    80000504:	2820c733          	xperm8	a4,ra,sp
    80000508:	00120213          	addi	tp,tp,1 # 1 <_start-0x7fffffff>
    8000050c:	00200293          	li	t0,2
    80000510:	fa521ae3          	bne	tp,t0,800004c4 <test_16+0x8>
    80000514:	004493b7          	lui	t2,0x449
    80000518:	8cd3839b          	addiw	t2,t2,-1843 # 4488cd <_start-0x7fbb7733>
    8000051c:	00e39393          	slli	t2,t2,0xe
    80000520:	41138393          	addi	t2,t2,1041
    80000524:	00c39393          	slli	t2,t2,0xc
    80000528:	22338393          	addi	t2,t2,547
    8000052c:	00c39393          	slli	t2,t2,0xc
    80000530:	34438393          	addi	t2,t2,836
    80000534:	4a771863          	bne	a4,t2,800009e4 <fail>

0000000080000538 <test_17>:
    80000538:	01100193          	li	gp,17
    8000053c:	00000213          	li	tp,0
    80000540:	ff8760b7          	lui	ra,0xff876
    80000544:	5430809b          	addiw	ra,ra,1347 # ffffffffff876543 <_end+0xffffffff7f874543>
    80000548:	00d09093          	slli	ra,ra,0xd
    8000054c:	43108093          	addi	ra,ra,1073
    80000550:	00d09093          	slli	ra,ra,0xd
    80000554:	d9508093          	addi	ra,ra,-619
    80000558:	00e09093          	slli	ra,ra,0xe
    8000055c:	32108093          	addi	ra,ra,801
    80000560:	00000013          	nop
    80000564:	00030137          	lui	sp,0x30
    80000568:	2011011b          	addiw	sp,sp,513 # 30201 <_start-0x7ffcfdff>
    8000056c:	01711113          	slli	sp,sp,0x17
    80000570:	18110113          	addi	sp,sp,385
    80000574:	01111113          	slli	sp,sp,0x11
    80000578:	10010113          	addi	sp,sp,256
    8000057c:	2820c733          	xperm8	a4,ra,sp
    80000580:	00120213          	addi	tp,tp,1 # 1 <_start-0x7fffffff>
    80000584:	00200293          	li	t0,2
    80000588:	fa521ce3          	bne	tp,t0,80000540 <test_17+0x8>
    8000058c:	ff8763b7          	lui	t2,0xff876
    80000590:	5433839b          	addiw	t2,t2,1347 # ffffffffff876543 <_end+0xffffffff7f874543>
    80000594:	00d39393          	slli	t2,t2,0xd
    80000598:	43138393          	addi	t2,t2,1073
    8000059c:	00d39393          	slli	t2,t2,0xd
    800005a0:	d9538393          	addi	t2,t2,-619
    800005a4:	00e39393          	slli	t2,t2,0xe
    800005a8:	32138393          	addi	t2,t2,801
    800005ac:	42771c63          	bne	a4,t2,800009e4 <fail>

00000000800005b0 <test_18>:
    800005b0:	01200193          	li	gp,18
    800005b4:	00000213          	li	tp,0
    800005b8:	fddcd0b7          	lui	ra,0xfddcd
    800005bc:	bbb0809b          	addiw	ra,ra,-1093 # fffffffffddccbbb <_end+0xffffffff7ddcabbb>
    800005c0:	00c09093          	slli	ra,ra,0xc
    800005c4:	a1108093          	addi	ra,ra,-1519
    800005c8:	00c09093          	slli	ra,ra,0xc
    800005cc:	22308093          	addi	ra,ra,547
    800005d0:	00c09093          	slli	ra,ra,0xc
    800005d4:	34408093          	addi	ra,ra,836
    800005d8:	00000013          	nop
    800005dc:	04050137          	lui	sp,0x4050
    800005e0:	6071011b          	addiw	sp,sp,1543 # 4050607 <_start-0x7bfaf9f9>
    800005e4:	00f11113          	slli	sp,sp,0xf
    800005e8:	38310113          	addi	sp,sp,899
    800005ec:	01111113          	slli	sp,sp,0x11
    800005f0:	50410113          	addi	sp,sp,1284
    800005f4:	00000013          	nop
    800005f8:	2820c733          	xperm8	a4,ra,sp
    800005fc:	00120213          	addi	tp,tp,1 # 1 <_start-0x7fffffff>
    80000600:	00200293          	li	t0,2
    80000604:	fa521ae3          	bne	tp,t0,800005b8 <test_18+0x8>
    80000608:	feaaf3b7          	lui	t2,0xfeaaf
    8000060c:	f333839b          	addiw	t2,t2,-205 # fffffffffeaaef33 <_end+0xffffffff7eaacf33>
    80000610:	00c39393          	slli	t2,t2,0xc
    80000614:	77738393          	addi	t2,t2,1911
    80000618:	00c39393          	slli	t2,t2,0xc
    8000061c:	73338393          	addi	t2,t2,1843
    80000620:	00e39393          	slli	t2,t2,0xe
    80000624:	baa38393          	addi	t2,t2,-1110
    80000628:	3a771e63          	bne	a4,t2,800009e4 <fail>

000000008000062c <test_19>:
    8000062c:	01300193          	li	gp,19
    80000630:	00000213          	li	tp,0
    80000634:	0010009b          	addiw	ra,zero,1
    80000638:	03009093          	slli	ra,ra,0x30
    8000063c:	fff08093          	addi	ra,ra,-1
    80000640:	00000013          	nop
    80000644:	00000013          	nop
    80000648:	0050011b          	addiw	sp,zero,5
    8000064c:	02011113          	slli	sp,sp,0x20
    80000650:	18510113          	addi	sp,sp,389
    80000654:	01911113          	slli	sp,sp,0x19
    80000658:	00310113          	addi	sp,sp,3
    8000065c:	2820c733          	xperm8	a4,ra,sp
    80000660:	00120213          	addi	tp,tp,1 # 1 <_start-0x7fffffff>
    80000664:	00200293          	li	t0,2
    80000668:	fc5216e3          	bne	tp,t0,80000634 <test_19+0x8>
    8000066c:	0010039b          	addiw	t2,zero,1
    80000670:	02039393          	slli	t2,t2,0x20
    80000674:	f0138393          	addi	t2,t2,-255
    80000678:	01839393          	slli	t2,t2,0x18
    8000067c:	fff38393          	addi	t2,t2,-1
    80000680:	36771263          	bne	a4,t2,800009e4 <fail>

0000000080000684 <test_20>:
    80000684:	01400193          	li	gp,20
    80000688:	00000213          	li	tp,0
    8000068c:	00030137          	lui	sp,0x30
    80000690:	2011011b          	addiw	sp,sp,513 # 30201 <_start-0x7ffcfdff>
    80000694:	01711113          	slli	sp,sp,0x17
    80000698:	18110113          	addi	sp,sp,385
    8000069c:	01111113          	slli	sp,sp,0x11
    800006a0:	10010113          	addi	sp,sp,256
    800006a4:	004490b7          	lui	ra,0x449
    800006a8:	8cd0809b          	addiw	ra,ra,-1843 # 4488cd <_start-0x7fbb7733>
    800006ac:	00e09093          	slli	ra,ra,0xe
    800006b0:	41108093          	addi	ra,ra,1041
    800006b4:	00c09093          	slli	ra,ra,0xc
    800006b8:	22308093          	addi	ra,ra,547
    800006bc:	00c09093          	slli	ra,ra,0xc
    800006c0:	34408093          	addi	ra,ra,836
    800006c4:	2820c733          	xperm8	a4,ra,sp
    800006c8:	00120213          	addi	tp,tp,1 # 1 <_start-0x7fffffff>
    800006cc:	00200293          	li	t0,2
    800006d0:	fa521ee3          	bne	tp,t0,8000068c <test_20+0x8>
    800006d4:	004493b7          	lui	t2,0x449
    800006d8:	8cd3839b          	addiw	t2,t2,-1843 # 4488cd <_start-0x7fbb7733>
    800006dc:	00e39393          	slli	t2,t2,0xe
    800006e0:	41138393          	addi	t2,t2,1041
    800006e4:	00c39393          	slli	t2,t2,0xc
    800006e8:	22338393          	addi	t2,t2,547
    800006ec:	00c39393          	slli	t2,t2,0xc
    800006f0:	34438393          	addi	t2,t2,836
    800006f4:	2e771863          	bne	a4,t2,800009e4 <fail>

00000000800006f8 <test_21>:
    800006f8:	01500193          	li	gp,21
    800006fc:	00000213          	li	tp,0
    80000700:	0030011b          	addiw	sp,zero,3
    80000704:	02011113          	slli	sp,sp,0x20
    80000708:	00310113          	addi	sp,sp,3
    8000070c:	008a50b7          	lui	ra,0x8a5
    80000710:	f0d0809b          	addiw	ra,ra,-243 # 8a4f0d <_start-0x7f75b0f3>
    80000714:	00f09093          	slli	ra,ra,0xf
    80000718:	85708093          	addi	ra,ra,-1961
    8000071c:	00c09093          	slli	ra,ra,0xc
    80000720:	27508093          	addi	ra,ra,629
    80000724:	00c09093          	slli	ra,ra,0xc
    80000728:	76808093          	addi	ra,ra,1896
    8000072c:	00000013          	nop
    80000730:	2820c733          	xperm8	a4,ra,sp
    80000734:	00120213          	addi	tp,tp,1 # 1 <_start-0x7fffffff>
    80000738:	00200293          	li	t0,2
    8000073c:	fc5212e3          	bne	tp,t0,80000700 <test_21+0x8>
    80000740:	00d0d3b7          	lui	t2,0xd0d
    80000744:	0d13839b          	addiw	t2,t2,209 # d0d0d1 <_start-0x7f2f2f2f>
    80000748:	00c39393          	slli	t2,t2,0xc
    8000074c:	aed38393          	addi	t2,t2,-1299
    80000750:	00f39393          	slli	t2,t2,0xf
    80000754:	68738393          	addi	t2,t2,1671
    80000758:	00c39393          	slli	t2,t2,0xc
    8000075c:	85738393          	addi	t2,t2,-1961
    80000760:	28771263          	bne	a4,t2,800009e4 <fail>

0000000080000764 <test_22>:
    80000764:	01600193          	li	gp,22
    80000768:	00000213          	li	tp,0
    8000076c:	00aa3137          	lui	sp,0xaa3
    80000770:	3911011b          	addiw	sp,sp,913 # aa3391 <_start-0x7f55cc6f>
    80000774:	00c11113          	slli	sp,sp,0xc
    80000778:	90910113          	addi	sp,sp,-1783
    8000077c:	00d11113          	slli	sp,sp,0xd
    80000780:	12110113          	addi	sp,sp,289
    80000784:	00c11113          	slli	sp,sp,0xc
    80000788:	21110113          	addi	sp,sp,529
    8000078c:	0010009b          	addiw	ra,zero,1
    80000790:	03009093          	slli	ra,ra,0x30
    80000794:	fff08093          	addi	ra,ra,-1
    80000798:	00000013          	nop
    8000079c:	00000013          	nop
    800007a0:	2820c733          	xperm8	a4,ra,sp
    800007a4:	00120213          	addi	tp,tp,1 # 1 <_start-0x7fffffff>
    800007a8:	00200293          	li	t0,2
    800007ac:	fc5210e3          	bne	tp,t0,8000076c <test_22+0x8>
    800007b0:	00000393          	li	t2,0
    800007b4:	22771863          	bne	a4,t2,800009e4 <fail>

00000000800007b8 <test_23>:
    800007b8:	01700193          	li	gp,23
    800007bc:	00000213          	li	tp,0
    800007c0:	00010137          	lui	sp,0x10
    800007c4:	2031011b          	addiw	sp,sp,515 # 10203 <_start-0x7ffefdfd>
    800007c8:	01011113          	slli	sp,sp,0x10
    800007cc:	00110113          	addi	sp,sp,1
    800007d0:	01011113          	slli	sp,sp,0x10
    800007d4:	20310113          	addi	sp,sp,515
    800007d8:	00000013          	nop
    800007dc:	ffef50b7          	lui	ra,0xffef5
    800007e0:	6df0809b          	addiw	ra,ra,1759 # ffffffffffef56df <_end+0xffffffff7fef36df>
    800007e4:	00c09093          	slli	ra,ra,0xc
    800007e8:	77f08093          	addi	ra,ra,1919
    800007ec:	00f09093          	slli	ra,ra,0xf
    800007f0:	ab708093          	addi	ra,ra,-1353
    800007f4:	00e09093          	slli	ra,ra,0xe
    800007f8:	eef08093          	addi	ra,ra,-273
    800007fc:	2820c733          	xperm8	a4,ra,sp
    80000800:	00120213          	addi	tp,tp,1 # 1 <_start-0x7fffffff>
    80000804:	00200293          	li	t0,2
    80000808:	fa521ce3          	bne	tp,t0,800007c0 <test_23+0x8>
    8000080c:	fff7e3b7          	lui	t2,0xfff7e
    80000810:	f573839b          	addiw	t2,t2,-169 # fffffffffff7df57 <_end+0xffffffff7ff7bf57>
    80000814:	00d39393          	slli	t2,t2,0xd
    80000818:	def38393          	addi	t2,t2,-529
    8000081c:	01039393          	slli	t2,t2,0x10
    80000820:	beb38393          	addi	t2,t2,-1045
    80000824:	00c39393          	slli	t2,t2,0xc
    80000828:	dde38393          	addi	t2,t2,-546
    8000082c:	1a771c63          	bne	a4,t2,800009e4 <fail>

0000000080000830 <test_24>:
    80000830:	01800193          	li	gp,24
    80000834:	00000213          	li	tp,0
    80000838:	00030137          	lui	sp,0x30
    8000083c:	3011011b          	addiw	sp,sp,769 # 30301 <_start-0x7ffcfcff>
    80000840:	01011113          	slli	sp,sp,0x10
    80000844:	00310113          	addi	sp,sp,3
    80000848:	01011113          	slli	sp,sp,0x10
    8000084c:	30110113          	addi	sp,sp,769
    80000850:	00000013          	nop
    80000854:	faabc0b7          	lui	ra,0xfaabc
    80000858:	ccf0809b          	addiw	ra,ra,-817 # fffffffffaabbccf <_end+0xffffffff7aab9ccf>
    8000085c:	00c09093          	slli	ra,ra,0xc
    80000860:	eab08093          	addi	ra,ra,-341
    80000864:	00c09093          	slli	ra,ra,0xc
    80000868:	bbd08093          	addi	ra,ra,-1091
    8000086c:	00c09093          	slli	ra,ra,0xc
    80000870:	cee08093          	addi	ra,ra,-786
    80000874:	00000013          	nop
    80000878:	2820c733          	xperm8	a4,ra,sp
    8000087c:	00120213          	addi	tp,tp,1 # 1 <_start-0x7fffffff>
    80000880:	00200293          	li	t0,2
    80000884:	fa521ae3          	bne	tp,t0,80000838 <test_24+0x8>
    80000888:	feeab3b7          	lui	t2,0xfeeab
    8000088c:	aad3839b          	addiw	t2,t2,-1363 # fffffffffeeaaaad <_end+0xffffffff7eea8aad>
    80000890:	00c39393          	slli	t2,t2,0xc
    80000894:	cef38393          	addi	t2,t2,-785
    80000898:	00c39393          	slli	t2,t2,0xc
    8000089c:	aab38393          	addi	t2,t2,-1365
    800008a0:	00c39393          	slli	t2,t2,0xc
    800008a4:	acc38393          	addi	t2,t2,-1332
    800008a8:	12771e63          	bne	a4,t2,800009e4 <fail>

00000000800008ac <test_25>:
    800008ac:	01900193          	li	gp,25
    800008b0:	00000213          	li	tp,0
    800008b4:	02020137          	lui	sp,0x2020
    800008b8:	2831011b          	addiw	sp,sp,643 # 2020283 <_start-0x7dfdfd7d>
    800008bc:	00f11113          	slli	sp,sp,0xf
    800008c0:	20110113          	addi	sp,sp,513
    800008c4:	01211113          	slli	sp,sp,0x12
    800008c8:	50610113          	addi	sp,sp,1286
    800008cc:	00000013          	nop
    800008d0:	00000013          	nop
    800008d4:	ff8760b7          	lui	ra,0xff876
    800008d8:	5430809b          	addiw	ra,ra,1347 # ffffffffff876543 <_end+0xffffffff7f874543>
    800008dc:	00d09093          	slli	ra,ra,0xd
    800008e0:	43108093          	addi	ra,ra,1073
    800008e4:	00d09093          	slli	ra,ra,0xd
    800008e8:	d9508093          	addi	ra,ra,-619
    800008ec:	00e09093          	slli	ra,ra,0xe
    800008f0:	32108093          	addi	ra,ra,801
    800008f4:	2820c733          	xperm8	a4,ra,sp
    800008f8:	00120213          	addi	tp,tp,1 # 1 <_start-0x7fffffff>
    800008fc:	00200293          	li	t0,2
    80000900:	fa521ae3          	bne	tp,t0,800008b4 <test_25+0x8>
    80000904:	212143b7          	lui	t2,0x21214
    80000908:	3653839b          	addiw	t2,t2,869 # 21214365 <_start-0x5edebc9b>
    8000090c:	01239393          	slli	t2,t2,0x12
    80000910:	08538393          	addi	t2,t2,133
    80000914:	00e39393          	slli	t2,t2,0xe
    80000918:	36538393          	addi	t2,t2,869
    8000091c:	0c771463          	bne	a4,t2,800009e4 <fail>

0000000080000920 <test_26>:
    80000920:	01a00193          	li	gp,26
    80000924:	000490b7          	lui	ra,0x49
    80000928:	8190809b          	addiw	ra,ra,-2023 # 48819 <_start-0x7ffb77e7>
    8000092c:	00d09093          	slli	ra,ra,0xd
    80000930:	23108093          	addi	ra,ra,561
    80000934:	00d09093          	slli	ra,ra,0xd
    80000938:	ff308093          	addi	ra,ra,-13
    8000093c:	00c09093          	slli	ra,ra,0xc
    80000940:	30208093          	addi	ra,ra,770
    80000944:	28104133          	xperm8	sp,zero,ra
    80000948:	00000393          	li	t2,0
    8000094c:	08711c63          	bne	sp,t2,800009e4 <fail>

0000000080000950 <test_27>:
    80000950:	01b00193          	li	gp,27
    80000954:	004490b7          	lui	ra,0x449
    80000958:	8cd0809b          	addiw	ra,ra,-1843 # 4488cd <_start-0x7fbb7733>
    8000095c:	00e09093          	slli	ra,ra,0xe
    80000960:	41108093          	addi	ra,ra,1041
    80000964:	00c09093          	slli	ra,ra,0xc
    80000968:	22308093          	addi	ra,ra,547
    8000096c:	00c09093          	slli	ra,ra,0xc
    80000970:	34408093          	addi	ra,ra,836
    80000974:	2800c133          	xperm8	sp,ra,zero
    80000978:	011113b7          	lui	t2,0x1111
    8000097c:	1113839b          	addiw	t2,t2,273 # 1111111 <_start-0x7eeeeeef>
    80000980:	00c39393          	slli	t2,t2,0xc
    80000984:	11138393          	addi	t2,t2,273
    80000988:	00c39393          	slli	t2,t2,0xc
    8000098c:	11138393          	addi	t2,t2,273
    80000990:	00e39393          	slli	t2,t2,0xe
    80000994:	44438393          	addi	t2,t2,1092
    80000998:	04711663          	bne	sp,t2,800009e4 <fail>

000000008000099c <test_28>:
    8000099c:	01c00193          	li	gp,28
    800009a0:	280040b3          	xperm8	ra,zero,zero
    800009a4:	00000393          	li	t2,0
    800009a8:	02709e63          	bne	ra,t2,800009e4 <fail>

00000000800009ac <test_29>:
    800009ac:	01d00193          	li	gp,29
    800009b0:	00000093          	li	ra,0
    800009b4:	00449137          	lui	sp,0x449
    800009b8:	8cd1011b          	addiw	sp,sp,-1843 # 4488cd <_start-0x7fbb7733>
    800009bc:	00e11113          	slli	sp,sp,0xe
    800009c0:	41110113          	addi	sp,sp,1041
    800009c4:	00c11113          	slli	sp,sp,0xc
    800009c8:	22310113          	addi	sp,sp,547
    800009cc:	00c11113          	slli	sp,sp,0xc
    800009d0:	34410113          	addi	sp,sp,836
    800009d4:	2820c033          	xperm8	zero,ra,sp
    800009d8:	00000393          	li	t2,0
    800009dc:	00701463          	bne	zero,t2,800009e4 <fail>
    800009e0:	00301663          	bne	zero,gp,800009ec <pass>

00000000800009e4 <fail>:
    800009e4:	00100513          	li	a0,1
    800009e8:	00c0006f          	j	800009f4 <halt>

00000000800009ec <pass>:
    800009ec:	00000513          	li	a0,0
    800009f0:	0040006f          	j	800009f4 <halt>

00000000800009f4 <halt>:
    800009f4:	0000006f          	j	800009f4 <halt>
    800009f8:	0000                	.insn	2, 0x
    800009fa:	0000                	.insn	2, 0x
    800009fc:	0000                	.insn	2, 0x
    800009fe:	0000                	.insn	2, 0x
    80000a00:	0000                	.insn	2, 0x
    80000a02:	0000                	.insn	2, 0x
