
rv64uzbkx-p-xperm_n:     file format elf64-littleriscv


Disassembly of section .text.init:

0000000080000000 <_start>:
    80000000:	00100193          	li	gp,1
    80000004:	002475b7          	lui	a1,0x247
    80000008:	8ad5859b          	addiw	a1,a1,-1875 # 2468ad <_start-0x7fdb9753>
    8000000c:	00e59593          	slli	a1,a1,0xe
    80000010:	c4d58593          	addi	a1,a1,-947
    80000014:	00c59593          	slli	a1,a1,0xc
    80000018:	5e758593          	addi	a1,a1,1511
    8000001c:	00d59593          	slli	a1,a1,0xd
    80000020:	ef058593          	addi	a1,a1,-272
    80000024:	00010637          	lui	a2,0x10
    80000028:	2036061b          	addiw	a2,a2,515 # 10203 <_start-0x7ffefdfd>
    8000002c:	01061613          	slli	a2,a2,0x10
    80000030:	40560613          	addi	a2,a2,1029
    80000034:	01061613          	slli	a2,a2,0x10
    80000038:	60760613          	addi	a2,a2,1543
    8000003c:	28c5a733          	xperm4	a4,a1,a2
    80000040:	03c383b7          	lui	t2,0x3c38
    80000044:	3433839b          	addiw	t2,t2,835 # 3c38343 <_start-0x7c3c7cbd>
    80000048:	00e39393          	slli	t2,t2,0xe
    8000004c:	0b138393          	addi	t2,t2,177
    80000050:	00c39393          	slli	t2,t2,0xc
    80000054:	a0938393          	addi	t2,t2,-1527
    80000058:	207718e3          	bne	a4,t2,80000a68 <fail>

000000008000005c <test_2>:
    8000005c:	00200193          	li	gp,2
    80000060:	fff6e5b7          	lui	a1,0xfff6e
    80000064:	5d55859b          	addiw	a1,a1,1493 # fffffffffff6e5d5 <_end+0xffffffff7ff6c5d5>
    80000068:	00c59593          	slli	a1,a1,0xc
    8000006c:	c3b58593          	addi	a1,a1,-965
    80000070:	00d59593          	slli	a1,a1,0xd
    80000074:	54358593          	addi	a1,a1,1347
    80000078:	00c59593          	slli	a1,a1,0xc
    8000007c:	21058593          	addi	a1,a1,528
    80000080:	00092637          	lui	a2,0x92
    80000084:	a2b6061b          	addiw	a2,a2,-1493 # 91a2b <_start-0x7ff6e5d5>
    80000088:	00c61613          	slli	a2,a2,0xc
    8000008c:	3c560613          	addi	a2,a2,965
    80000090:	00d61613          	slli	a2,a2,0xd
    80000094:	abd60613          	addi	a2,a2,-1347
    80000098:	00c61613          	slli	a2,a2,0xc
    8000009c:	def60613          	addi	a2,a2,-529
    800000a0:	28c5a733          	xperm4	a4,a1,a2
    800000a4:	000923b7          	lui	t2,0x92
    800000a8:	a2b3839b          	addiw	t2,t2,-1493 # 91a2b <_start-0x7ff6e5d5>
    800000ac:	00c39393          	slli	t2,t2,0xc
    800000b0:	3c538393          	addi	t2,t2,965
    800000b4:	00d39393          	slli	t2,t2,0xd
    800000b8:	abd38393          	addi	t2,t2,-1347
    800000bc:	00c39393          	slli	t2,t2,0xc
    800000c0:	def38393          	addi	t2,t2,-529
    800000c4:	1a7712e3          	bne	a4,t2,80000a68 <fail>

00000000800000c8 <test_3>:
    800000c8:	00300193          	li	gp,3
    800000cc:	fff00593          	li	a1,-1
    800000d0:	01111637          	lui	a2,0x1111
    800000d4:	1116061b          	addiw	a2,a2,273 # 1111111 <_start-0x7eeeeeef>
    800000d8:	00c61613          	slli	a2,a2,0xc
    800000dc:	11160613          	addi	a2,a2,273
    800000e0:	00c61613          	slli	a2,a2,0xc
    800000e4:	11160613          	addi	a2,a2,273
    800000e8:	00c61613          	slli	a2,a2,0xc
    800000ec:	11160613          	addi	a2,a2,273
    800000f0:	28c5a733          	xperm4	a4,a1,a2
    800000f4:	fff00393          	li	t2,-1
    800000f8:	167718e3          	bne	a4,t2,80000a68 <fail>

00000000800000fc <test_4>:
    800000fc:	00400193          	li	gp,4
    80000100:	000925b7          	lui	a1,0x92
    80000104:	a2b5859b          	addiw	a1,a1,-1493 # 91a2b <_start-0x7ff6e5d5>
    80000108:	00c59593          	slli	a1,a1,0xc
    8000010c:	3c558593          	addi	a1,a1,965
    80000110:	00d59593          	slli	a1,a1,0xd
    80000114:	abd58593          	addi	a1,a1,-1347
    80000118:	00c59593          	slli	a1,a1,0xc
    8000011c:	def58593          	addi	a1,a1,-529
    80000120:	ff0f1637          	lui	a2,0xff0f1
    80000124:	f0f6061b          	addiw	a2,a2,-241 # ffffffffff0f0f0f <_end+0xffffffff7f0eef0f>
    80000128:	00c61613          	slli	a2,a2,0xc
    8000012c:	0f160613          	addi	a2,a2,241
    80000130:	00c61613          	slli	a2,a2,0xc
    80000134:	f0f60613          	addi	a2,a2,-241
    80000138:	00c61613          	slli	a2,a2,0xc
    8000013c:	0f060613          	addi	a2,a2,240
    80000140:	28c5a733          	xperm4	a4,a1,a2
    80000144:	00f0f3b7          	lui	t2,0xf0f
    80000148:	0f13839b          	addiw	t2,t2,241 # f0f0f1 <_start-0x7f0f0f0f>
    8000014c:	00c39393          	slli	t2,t2,0xc
    80000150:	f0f38393          	addi	t2,t2,-241
    80000154:	00c39393          	slli	t2,t2,0xc
    80000158:	0f138393          	addi	t2,t2,241
    8000015c:	00c39393          	slli	t2,t2,0xc
    80000160:	f0f38393          	addi	t2,t2,-241
    80000164:	107712e3          	bne	a4,t2,80000a68 <fail>

0000000080000168 <test_5>:
    80000168:	00500193          	li	gp,5
    8000016c:	00000593          	li	a1,0
    80000170:	fff00613          	li	a2,-1
    80000174:	28c5a733          	xperm4	a4,a1,a2
    80000178:	00000393          	li	t2,0
    8000017c:	0e7716e3          	bne	a4,t2,80000a68 <fail>

0000000080000180 <test_6>:
    80000180:	00600193          	li	gp,6
    80000184:	000925b7          	lui	a1,0x92
    80000188:	a2b5859b          	addiw	a1,a1,-1493 # 91a2b <_start-0x7ff6e5d5>
    8000018c:	00c59593          	slli	a1,a1,0xc
    80000190:	3c558593          	addi	a1,a1,965
    80000194:	00d59593          	slli	a1,a1,0xd
    80000198:	abd58593          	addi	a1,a1,-1347
    8000019c:	00c59593          	slli	a1,a1,0xc
    800001a0:	def58593          	addi	a1,a1,-529
    800001a4:	003b3637          	lui	a2,0x3b3
    800001a8:	a196061b          	addiw	a2,a2,-1511 # 3b2a19 <_start-0x7fc4d5e7>
    800001ac:	00d61613          	slli	a2,a2,0xd
    800001b0:	10f60613          	addi	a2,a2,271
    800001b4:	01061613          	slli	a2,a2,0x10
    800001b8:	cdb60613          	addi	a2,a2,-805
    800001bc:	00c61613          	slli	a2,a2,0xc
    800001c0:	b8960613          	addi	a2,a2,-1143
    800001c4:	28c5a5b3          	xperm4	a1,a1,a2
    800001c8:	ffc4d3b7          	lui	t2,0xffc4d
    800001cc:	5e73839b          	addiw	t2,t2,1511 # ffffffffffc4d5e7 <_end+0xffffffff7fc4b5e7>
    800001d0:	00d39393          	slli	t2,t2,0xd
    800001d4:	ef138393          	addi	t2,t2,-271
    800001d8:	01039393          	slli	t2,t2,0x10
    800001dc:	32538393          	addi	t2,t2,805
    800001e0:	00c39393          	slli	t2,t2,0xc
    800001e4:	47638393          	addi	t2,t2,1142
    800001e8:	087590e3          	bne	a1,t2,80000a68 <fail>

00000000800001ec <test_7>:
    800001ec:	00700193          	li	gp,7
    800001f0:	fff6e5b7          	lui	a1,0xfff6e
    800001f4:	5d55859b          	addiw	a1,a1,1493 # fffffffffff6e5d5 <_end+0xffffffff7ff6c5d5>
    800001f8:	00c59593          	slli	a1,a1,0xc
    800001fc:	c3b58593          	addi	a1,a1,-965
    80000200:	00d59593          	slli	a1,a1,0xd
    80000204:	54358593          	addi	a1,a1,1347
    80000208:	00c59593          	slli	a1,a1,0xc
    8000020c:	21058593          	addi	a1,a1,528
    80000210:	00092637          	lui	a2,0x92
    80000214:	a2b6061b          	addiw	a2,a2,-1493 # 91a2b <_start-0x7ff6e5d5>
    80000218:	00c61613          	slli	a2,a2,0xc
    8000021c:	3c560613          	addi	a2,a2,965
    80000220:	00d61613          	slli	a2,a2,0xd
    80000224:	abd60613          	addi	a2,a2,-1347
    80000228:	00c61613          	slli	a2,a2,0xc
    8000022c:	def60613          	addi	a2,a2,-529
    80000230:	28c5a633          	xperm4	a2,a1,a2
    80000234:	000923b7          	lui	t2,0x92
    80000238:	a2b3839b          	addiw	t2,t2,-1493 # 91a2b <_start-0x7ff6e5d5>
    8000023c:	00c39393          	slli	t2,t2,0xc
    80000240:	3c538393          	addi	t2,t2,965
    80000244:	00d39393          	slli	t2,t2,0xd
    80000248:	abd38393          	addi	t2,t2,-1347
    8000024c:	00c39393          	slli	t2,t2,0xc
    80000250:	def38393          	addi	t2,t2,-529
    80000254:	00761ae3          	bne	a2,t2,80000a68 <fail>

0000000080000258 <test_10>:
    80000258:	00a00193          	li	gp,10
    8000025c:	0c0105b7          	lui	a1,0xc010
    80000260:	2015859b          	addiw	a1,a1,513 # c010201 <_start-0x73fefdff>
    80000264:	00f59593          	slli	a1,a1,0xf
    80000268:	08358593          	addi	a1,a1,131
    8000026c:	01159593          	slli	a1,a1,0x11
    80000270:	20158593          	addi	a1,a1,513
    80000274:	28b5a5b3          	xperm4	a1,a1,a1
    80000278:	000893b7          	lui	t2,0x89
    8000027c:	8093839b          	addiw	t2,t2,-2039 # 88809 <_start-0x7ff777f7>
    80000280:	00d39393          	slli	t2,t2,0xd
    80000284:	10138393          	addi	t2,t2,257
    80000288:	01039393          	slli	t2,t2,0x10
    8000028c:	11138393          	addi	t2,t2,273
    80000290:	00c39393          	slli	t2,t2,0xc
    80000294:	21038393          	addi	t2,t2,528
    80000298:	7c759863          	bne	a1,t2,80000a68 <fail>

000000008000029c <test_11>:
    8000029c:	00b00193          	li	gp,11
    800002a0:	00000213          	li	tp,0
    800002a4:	fff6e0b7          	lui	ra,0xfff6e
    800002a8:	5d50809b          	addiw	ra,ra,1493 # fffffffffff6e5d5 <_end+0xffffffff7ff6c5d5>
    800002ac:	00c09093          	slli	ra,ra,0xc
    800002b0:	c3b08093          	addi	ra,ra,-965
    800002b4:	00d09093          	slli	ra,ra,0xd
    800002b8:	54308093          	addi	ra,ra,1347
    800002bc:	00c09093          	slli	ra,ra,0xc
    800002c0:	21008093          	addi	ra,ra,528
    800002c4:	01923137          	lui	sp,0x1923
    800002c8:	2891011b          	addiw	sp,sp,649 # 1923289 <_start-0x7e6dcd77>
    800002cc:	00c11113          	slli	sp,sp,0xc
    800002d0:	c5310113          	addi	sp,sp,-941
    800002d4:	00d11113          	slli	sp,sp,0xd
    800002d8:	54910113          	addi	sp,sp,1353
    800002dc:	00c11113          	slli	sp,sp,0xc
    800002e0:	b2d10113          	addi	sp,sp,-1235
    800002e4:	2820a733          	xperm4	a4,ra,sp
    800002e8:	00070313          	mv	t1,a4
    800002ec:	00120213          	addi	tp,tp,1 # 1 <_start-0x7fffffff>
    800002f0:	00200293          	li	t0,2
    800002f4:	fa5218e3          	bne	tp,t0,800002a4 <test_11+0x8>
    800002f8:	019233b7          	lui	t2,0x1923
    800002fc:	2893839b          	addiw	t2,t2,649 # 1923289 <_start-0x7e6dcd77>
    80000300:	00c39393          	slli	t2,t2,0xc
    80000304:	c5338393          	addi	t2,t2,-941
    80000308:	00d39393          	slli	t2,t2,0xd
    8000030c:	54938393          	addi	t2,t2,1353
    80000310:	00c39393          	slli	t2,t2,0xc
    80000314:	b2d38393          	addi	t2,t2,-1235
    80000318:	74731863          	bne	t1,t2,80000a68 <fail>

000000008000031c <test_12>:
    8000031c:	00c00193          	li	gp,12
    80000320:	00000213          	li	tp,0
    80000324:	002470b7          	lui	ra,0x247
    80000328:	8ad0809b          	addiw	ra,ra,-1875 # 2468ad <_start-0x7fdb9753>
    8000032c:	00e09093          	slli	ra,ra,0xe
    80000330:	c0908093          	addi	ra,ra,-1015
    80000334:	00d09093          	slli	ra,ra,0xd
    80000338:	34508093          	addi	ra,ra,837
    8000033c:	00c09093          	slli	ra,ra,0xc
    80000340:	67808093          	addi	ra,ra,1656
    80000344:	00669137          	lui	sp,0x669
    80000348:	8ab1011b          	addiw	sp,sp,-1877 # 6688ab <_start-0x7f997755>
    8000034c:	00c11113          	slli	sp,sp,0xc
    80000350:	ccf10113          	addi	sp,sp,-817
    80000354:	00e11113          	slli	sp,sp,0xe
    80000358:	c4510113          	addi	sp,sp,-955
    8000035c:	00d11113          	slli	sp,sp,0xd
    80000360:	9aa10113          	addi	sp,sp,-1622
    80000364:	2820a733          	xperm4	a4,ra,sp
    80000368:	00000013          	nop
    8000036c:	00070313          	mv	t1,a4
    80000370:	00120213          	addi	tp,tp,1 # 1 <_start-0x7fffffff>
    80000374:	00200293          	li	t0,2
    80000378:	fa5216e3          	bne	tp,t0,80000324 <test_12+0x8>
    8000037c:	02aa23b7          	lui	t2,0x2aa2
    80000380:	1993839b          	addiw	t2,t2,409 # 2aa2199 <_start-0x7d55de67>
    80000384:	00c39393          	slli	t2,t2,0xc
    80000388:	10938393          	addi	t2,t2,265
    8000038c:	00d39393          	slli	t2,t2,0xd
    80000390:	88738393          	addi	t2,t2,-1913
    80000394:	00c39393          	slli	t2,t2,0xc
    80000398:	76638393          	addi	t2,t2,1894
    8000039c:	6c731663          	bne	t1,t2,80000a68 <fail>

00000000800003a0 <test_13>:
    800003a0:	00d00193          	li	gp,13
    800003a4:	00000213          	li	tp,0
    800003a8:	0010009b          	addiw	ra,zero,1
    800003ac:	03009093          	slli	ra,ra,0x30
    800003b0:	fff08093          	addi	ra,ra,-1
    800003b4:	00078137          	lui	sp,0x78
    800003b8:	0011011b          	addiw	sp,sp,1 # 78001 <_start-0x7ff87fff>
    800003bc:	01111113          	slli	sp,sp,0x11
    800003c0:	20f10113          	addi	sp,sp,527
    800003c4:	01811113          	slli	sp,sp,0x18
    800003c8:	20210113          	addi	sp,sp,514
    800003cc:	2820a733          	xperm4	a4,ra,sp
    800003d0:	00000013          	nop
    800003d4:	00000013          	nop
    800003d8:	00070313          	mv	t1,a4
    800003dc:	00120213          	addi	tp,tp,1 # 1 <_start-0x7fffffff>
    800003e0:	00200293          	li	t0,2
    800003e4:	fc5212e3          	bne	tp,t0,800003a8 <test_13+0x8>
    800003e8:	ff10039b          	addiw	t2,zero,-15
    800003ec:	02039393          	slli	t2,t2,0x20
    800003f0:	ff138393          	addi	t2,t2,-15
    800003f4:	01839393          	slli	t2,t2,0x18
    800003f8:	fff38393          	addi	t2,t2,-1
    800003fc:	66731663          	bne	t1,t2,80000a68 <fail>

0000000080000400 <test_14>:
    80000400:	00e00193          	li	gp,14
    80000404:	00000213          	li	tp,0
    80000408:	000920b7          	lui	ra,0x92
    8000040c:	a2b0809b          	addiw	ra,ra,-1493 # 91a2b <_start-0x7ff6e5d5>
    80000410:	00c09093          	slli	ra,ra,0xc
    80000414:	3c508093          	addi	ra,ra,965
    80000418:	00d09093          	slli	ra,ra,0xd
    8000041c:	abd08093          	addi	ra,ra,-1347
    80000420:	00c09093          	slli	ra,ra,0xc
    80000424:	def08093          	addi	ra,ra,-529
    80000428:	003b3137          	lui	sp,0x3b3
    8000042c:	a191011b          	addiw	sp,sp,-1511 # 3b2a19 <_start-0x7fc4d5e7>
    80000430:	00d11113          	slli	sp,sp,0xd
    80000434:	10f10113          	addi	sp,sp,271
    80000438:	01011113          	slli	sp,sp,0x10
    8000043c:	cdb10113          	addi	sp,sp,-805
    80000440:	00c11113          	slli	sp,sp,0xc
    80000444:	b8910113          	addi	sp,sp,-1143
    80000448:	2820a733          	xperm4	a4,ra,sp
    8000044c:	00120213          	addi	tp,tp,1 # 1 <_start-0x7fffffff>
    80000450:	00200293          	li	t0,2
    80000454:	fa521ae3          	bne	tp,t0,80000408 <test_14+0x8>
    80000458:	ffc4d3b7          	lui	t2,0xffc4d
    8000045c:	5e73839b          	addiw	t2,t2,1511 # ffffffffffc4d5e7 <_end+0xffffffff7fc4b5e7>
    80000460:	00d39393          	slli	t2,t2,0xd
    80000464:	ef138393          	addi	t2,t2,-271
    80000468:	01039393          	slli	t2,t2,0x10
    8000046c:	32538393          	addi	t2,t2,805
    80000470:	00c39393          	slli	t2,t2,0xc
    80000474:	47638393          	addi	t2,t2,1142
    80000478:	5e771863          	bne	a4,t2,80000a68 <fail>

000000008000047c <test_15>:
    8000047c:	00f00193          	li	gp,15
    80000480:	00000213          	li	tp,0
    80000484:	faabc0b7          	lui	ra,0xfaabc
    80000488:	ccf0809b          	addiw	ra,ra,-817 # fffffffffaabbccf <_end+0xffffffff7aab9ccf>
    8000048c:	00c09093          	slli	ra,ra,0xc
    80000490:	eab08093          	addi	ra,ra,-341
    80000494:	00c09093          	slli	ra,ra,0xc
    80000498:	bbd08093          	addi	ra,ra,-1091
    8000049c:	00c09093          	slli	ra,ra,0xc
    800004a0:	cee08093          	addi	ra,ra,-786
    800004a4:	05050137          	lui	sp,0x5050
    800004a8:	5051011b          	addiw	sp,sp,1285 # 5050505 <_start-0x7afafafb>
    800004ac:	01011113          	slli	sp,sp,0x10
    800004b0:	50510113          	addi	sp,sp,1285
    800004b4:	01011113          	slli	sp,sp,0x10
    800004b8:	50510113          	addi	sp,sp,1285
    800004bc:	00000013          	nop
    800004c0:	2820a733          	xperm4	a4,ra,sp
    800004c4:	00120213          	addi	tp,tp,1 # 1 <_start-0x7fffffff>
    800004c8:	00200293          	li	t0,2
    800004cc:	fa521ce3          	bne	tp,t0,80000484 <test_15+0x8>
    800004d0:	fffb03b7          	lui	t2,0xfffb0
    800004d4:	afb3839b          	addiw	t2,t2,-1285 # fffffffffffafafb <_end+0xffffffff7ffadafb>
    800004d8:	01039393          	slli	t2,t2,0x10
    800004dc:	afb38393          	addi	t2,t2,-1285
    800004e0:	00e39393          	slli	t2,t2,0xe
    800004e4:	ebf38393          	addi	t2,t2,-321
    800004e8:	00c39393          	slli	t2,t2,0xc
    800004ec:	beb38393          	addi	t2,t2,-1045
    800004f0:	56771c63          	bne	a4,t2,80000a68 <fail>

00000000800004f4 <test_16>:
    800004f4:	01000193          	li	gp,16
    800004f8:	00000213          	li	tp,0
    800004fc:	004490b7          	lui	ra,0x449
    80000500:	8cd0809b          	addiw	ra,ra,-1843 # 4488cd <_start-0x7fbb7733>
    80000504:	00e09093          	slli	ra,ra,0xe
    80000508:	41108093          	addi	ra,ra,1041
    8000050c:	00c09093          	slli	ra,ra,0xc
    80000510:	22308093          	addi	ra,ra,547
    80000514:	00c09093          	slli	ra,ra,0xc
    80000518:	34408093          	addi	ra,ra,836
    8000051c:	fe226137          	lui	sp,0xfe226
    80000520:	6ab1011b          	addiw	sp,sp,1707 # fffffffffe2266ab <_end+0xffffffff7e2246ab>
    80000524:	00e11113          	slli	sp,sp,0xe
    80000528:	bcd10113          	addi	sp,sp,-1075
    8000052c:	00c11113          	slli	sp,sp,0xc
    80000530:	ddf10113          	addi	sp,sp,-545
    80000534:	00c11113          	slli	sp,sp,0xc
    80000538:	eff10113          	addi	sp,sp,-257
    8000053c:	00000013          	nop
    80000540:	00000013          	nop
    80000544:	2820a733          	xperm4	a4,ra,sp
    80000548:	00120213          	addi	tp,tp,1 # 1 <_start-0x7fffffff>
    8000054c:	00200293          	li	t0,2
    80000550:	fa5216e3          	bne	tp,t0,800004fc <test_16+0x8>
    80000554:	011113b7          	lui	t2,0x1111
    80000558:	0cd3839b          	addiw	t2,t2,205 # 11110cd <_start-0x7eeeef33>
    8000055c:	00d39393          	slli	t2,t2,0xd
    80000560:	99138393          	addi	t2,t2,-1647
    80000564:	00d39393          	slli	t2,t2,0xd
    80000568:	22138393          	addi	t2,t2,545
    8000056c:	00c39393          	slli	t2,t2,0xc
    80000570:	11138393          	addi	t2,t2,273
    80000574:	4e771a63          	bne	a4,t2,80000a68 <fail>

0000000080000578 <test_17>:
    80000578:	01100193          	li	gp,17
    8000057c:	00000213          	li	tp,0
    80000580:	ff8760b7          	lui	ra,0xff876
    80000584:	5430809b          	addiw	ra,ra,1347 # ffffffffff876543 <_end+0xffffffff7f874543>
    80000588:	00d09093          	slli	ra,ra,0xd
    8000058c:	43108093          	addi	ra,ra,1073
    80000590:	00d09093          	slli	ra,ra,0xd
    80000594:	d9508093          	addi	ra,ra,-619
    80000598:	00e09093          	slli	ra,ra,0xe
    8000059c:	32108093          	addi	ra,ra,801
    800005a0:	00000013          	nop
    800005a4:	00030137          	lui	sp,0x30
    800005a8:	2011011b          	addiw	sp,sp,513 # 30201 <_start-0x7ffcfdff>
    800005ac:	01711113          	slli	sp,sp,0x17
    800005b0:	18110113          	addi	sp,sp,385
    800005b4:	01111113          	slli	sp,sp,0x11
    800005b8:	10010113          	addi	sp,sp,256
    800005bc:	2820a733          	xperm4	a4,ra,sp
    800005c0:	00120213          	addi	tp,tp,1 # 1 <_start-0x7fffffff>
    800005c4:	00200293          	li	t0,2
    800005c8:	fa521ce3          	bne	tp,t0,80000580 <test_17+0x8>
    800005cc:	000a13b7          	lui	t2,0xa1
    800005d0:	9893839b          	addiw	t2,t2,-1655 # a0989 <_start-0x7ff5f677>
    800005d4:	00f39393          	slli	t2,t2,0xf
    800005d8:	44538393          	addi	t2,t2,1093
    800005dc:	00e39393          	slli	t2,t2,0xe
    800005e0:	13138393          	addi	t2,t2,305
    800005e4:	00c39393          	slli	t2,t2,0xc
    800005e8:	21138393          	addi	t2,t2,529
    800005ec:	46771e63          	bne	a4,t2,80000a68 <fail>

00000000800005f0 <test_18>:
    800005f0:	01200193          	li	gp,18
    800005f4:	00000213          	li	tp,0
    800005f8:	fddcd0b7          	lui	ra,0xfddcd
    800005fc:	bbb0809b          	addiw	ra,ra,-1093 # fffffffffddccbbb <_end+0xffffffff7ddcabbb>
    80000600:	00c09093          	slli	ra,ra,0xc
    80000604:	a1108093          	addi	ra,ra,-1519
    80000608:	00c09093          	slli	ra,ra,0xc
    8000060c:	22308093          	addi	ra,ra,547
    80000610:	00c09093          	slli	ra,ra,0xc
    80000614:	34408093          	addi	ra,ra,836
    80000618:	00000013          	nop
    8000061c:	04050137          	lui	sp,0x4050
    80000620:	6071011b          	addiw	sp,sp,1543 # 4050607 <_start-0x7bfaf9f9>
    80000624:	00f11113          	slli	sp,sp,0xf
    80000628:	38310113          	addi	sp,sp,899
    8000062c:	01111113          	slli	sp,sp,0x11
    80000630:	50410113          	addi	sp,sp,1284
    80000634:	00000013          	nop
    80000638:	2820a733          	xperm4	a4,ra,sp
    8000063c:	00120213          	addi	tp,tp,1 # 1 <_start-0x7fffffff>
    80000640:	00200293          	li	t0,2
    80000644:	fa521ae3          	bne	tp,t0,800005f8 <test_18+0x8>
    80000648:	000113b7          	lui	t2,0x11
    8000064c:	9093839b          	addiw	t2,t2,-1783 # 10909 <_start-0x7ffef6f7>
    80000650:	01039393          	slli	t2,t2,0x10
    80000654:	50538393          	addi	t2,t2,1285
    80000658:	01039393          	slli	t2,t2,0x10
    8000065c:	50538393          	addi	t2,t2,1285
    80000660:	00e39393          	slli	t2,t2,0xe
    80000664:	24238393          	addi	t2,t2,578
    80000668:	40771063          	bne	a4,t2,80000a68 <fail>

000000008000066c <test_19>:
    8000066c:	01300193          	li	gp,19
    80000670:	00000213          	li	tp,0
    80000674:	0010009b          	addiw	ra,zero,1
    80000678:	03009093          	slli	ra,ra,0x30
    8000067c:	fff08093          	addi	ra,ra,-1
    80000680:	00000013          	nop
    80000684:	00000013          	nop
    80000688:	0050011b          	addiw	sp,zero,5
    8000068c:	02011113          	slli	sp,sp,0x20
    80000690:	18510113          	addi	sp,sp,389
    80000694:	01911113          	slli	sp,sp,0x19
    80000698:	00310113          	addi	sp,sp,3
    8000069c:	2820a733          	xperm4	a4,ra,sp
    800006a0:	00120213          	addi	tp,tp,1 # 1 <_start-0x7fffffff>
    800006a4:	00200293          	li	t0,2
    800006a8:	fc5216e3          	bne	tp,t0,80000674 <test_19+0x8>
    800006ac:	fff00393          	li	t2,-1
    800006b0:	3a771c63          	bne	a4,t2,80000a68 <fail>

00000000800006b4 <test_20>:
    800006b4:	01400193          	li	gp,20
    800006b8:	00000213          	li	tp,0
    800006bc:	01923137          	lui	sp,0x1923
    800006c0:	2891011b          	addiw	sp,sp,649 # 1923289 <_start-0x7e6dcd77>
    800006c4:	00c11113          	slli	sp,sp,0xc
    800006c8:	c5310113          	addi	sp,sp,-941
    800006cc:	00d11113          	slli	sp,sp,0xd
    800006d0:	54910113          	addi	sp,sp,1353
    800006d4:	00c11113          	slli	sp,sp,0xc
    800006d8:	b2d10113          	addi	sp,sp,-1235
    800006dc:	fff6e0b7          	lui	ra,0xfff6e
    800006e0:	5d50809b          	addiw	ra,ra,1493 # fffffffffff6e5d5 <_end+0xffffffff7ff6c5d5>
    800006e4:	00c09093          	slli	ra,ra,0xc
    800006e8:	c3b08093          	addi	ra,ra,-965
    800006ec:	00d09093          	slli	ra,ra,0xd
    800006f0:	54308093          	addi	ra,ra,1347
    800006f4:	00c09093          	slli	ra,ra,0xc
    800006f8:	21008093          	addi	ra,ra,528
    800006fc:	2820a733          	xperm4	a4,ra,sp
    80000700:	00120213          	addi	tp,tp,1 # 1 <_start-0x7fffffff>
    80000704:	00200293          	li	t0,2
    80000708:	fa521ae3          	bne	tp,t0,800006bc <test_20+0x8>
    8000070c:	019233b7          	lui	t2,0x1923
    80000710:	2893839b          	addiw	t2,t2,649 # 1923289 <_start-0x7e6dcd77>
    80000714:	00c39393          	slli	t2,t2,0xc
    80000718:	c5338393          	addi	t2,t2,-941
    8000071c:	00d39393          	slli	t2,t2,0xd
    80000720:	54938393          	addi	t2,t2,1353
    80000724:	00c39393          	slli	t2,t2,0xc
    80000728:	b2d38393          	addi	t2,t2,-1235
    8000072c:	32771e63          	bne	a4,t2,80000a68 <fail>

0000000080000730 <test_21>:
    80000730:	01500193          	li	gp,21
    80000734:	00000213          	li	tp,0
    80000738:	fe226137          	lui	sp,0xfe226
    8000073c:	6ab1011b          	addiw	sp,sp,1707 # fffffffffe2266ab <_end+0xffffffff7e2246ab>
    80000740:	00e11113          	slli	sp,sp,0xe
    80000744:	bcd10113          	addi	sp,sp,-1075
    80000748:	00c11113          	slli	sp,sp,0xc
    8000074c:	ddf10113          	addi	sp,sp,-545
    80000750:	00c11113          	slli	sp,sp,0xc
    80000754:	eff10113          	addi	sp,sp,-257
    80000758:	004490b7          	lui	ra,0x449
    8000075c:	8cd0809b          	addiw	ra,ra,-1843 # 4488cd <_start-0x7fbb7733>
    80000760:	00e09093          	slli	ra,ra,0xe
    80000764:	41108093          	addi	ra,ra,1041
    80000768:	00c09093          	slli	ra,ra,0xc
    8000076c:	22308093          	addi	ra,ra,547
    80000770:	00c09093          	slli	ra,ra,0xc
    80000774:	34408093          	addi	ra,ra,836
    80000778:	00000013          	nop
    8000077c:	2820a733          	xperm4	a4,ra,sp
    80000780:	00120213          	addi	tp,tp,1 # 1 <_start-0x7fffffff>
    80000784:	00200293          	li	t0,2
    80000788:	fa5218e3          	bne	tp,t0,80000738 <test_21+0x8>
    8000078c:	011113b7          	lui	t2,0x1111
    80000790:	0cd3839b          	addiw	t2,t2,205 # 11110cd <_start-0x7eeeef33>
    80000794:	00d39393          	slli	t2,t2,0xd
    80000798:	99138393          	addi	t2,t2,-1647
    8000079c:	00d39393          	slli	t2,t2,0xd
    800007a0:	22138393          	addi	t2,t2,545
    800007a4:	00c39393          	slli	t2,t2,0xc
    800007a8:	11138393          	addi	t2,t2,273
    800007ac:	2a771e63          	bne	a4,t2,80000a68 <fail>

00000000800007b0 <test_22>:
    800007b0:	01600193          	li	gp,22
    800007b4:	00000213          	li	tp,0
    800007b8:	00092137          	lui	sp,0x92
    800007bc:	a2b1011b          	addiw	sp,sp,-1493 # 91a2b <_start-0x7ff6e5d5>
    800007c0:	00c11113          	slli	sp,sp,0xc
    800007c4:	3c510113          	addi	sp,sp,965
    800007c8:	00d11113          	slli	sp,sp,0xd
    800007cc:	abd10113          	addi	sp,sp,-1347
    800007d0:	00c11113          	slli	sp,sp,0xc
    800007d4:	def10113          	addi	sp,sp,-529
    800007d8:	fff6e0b7          	lui	ra,0xfff6e
    800007dc:	5d50809b          	addiw	ra,ra,1493 # fffffffffff6e5d5 <_end+0xffffffff7ff6c5d5>
    800007e0:	00c09093          	slli	ra,ra,0xc
    800007e4:	c3b08093          	addi	ra,ra,-965
    800007e8:	00d09093          	slli	ra,ra,0xd
    800007ec:	54308093          	addi	ra,ra,1347
    800007f0:	00c09093          	slli	ra,ra,0xc
    800007f4:	21008093          	addi	ra,ra,528
    800007f8:	00000013          	nop
    800007fc:	00000013          	nop
    80000800:	2820a733          	xperm4	a4,ra,sp
    80000804:	00120213          	addi	tp,tp,1 # 1 <_start-0x7fffffff>
    80000808:	00200293          	li	t0,2
    8000080c:	fa5216e3          	bne	tp,t0,800007b8 <test_22+0x8>
    80000810:	000923b7          	lui	t2,0x92
    80000814:	a2b3839b          	addiw	t2,t2,-1493 # 91a2b <_start-0x7ff6e5d5>
    80000818:	00c39393          	slli	t2,t2,0xc
    8000081c:	3c538393          	addi	t2,t2,965
    80000820:	00d39393          	slli	t2,t2,0xd
    80000824:	abd38393          	addi	t2,t2,-1347
    80000828:	00c39393          	slli	t2,t2,0xc
    8000082c:	def38393          	addi	t2,t2,-529
    80000830:	22771c63          	bne	a4,t2,80000a68 <fail>

0000000080000834 <test_23>:
    80000834:	01700193          	li	gp,23
    80000838:	00000213          	li	tp,0
    8000083c:	04050137          	lui	sp,0x4050
    80000840:	6071011b          	addiw	sp,sp,1543 # 4050607 <_start-0x7bfaf9f9>
    80000844:	00f11113          	slli	sp,sp,0xf
    80000848:	38310113          	addi	sp,sp,899
    8000084c:	01111113          	slli	sp,sp,0x11
    80000850:	50410113          	addi	sp,sp,1284
    80000854:	00000013          	nop
    80000858:	fddcd0b7          	lui	ra,0xfddcd
    8000085c:	bbb0809b          	addiw	ra,ra,-1093 # fffffffffddccbbb <_end+0xffffffff7ddcabbb>
    80000860:	00c09093          	slli	ra,ra,0xc
    80000864:	a1108093          	addi	ra,ra,-1519
    80000868:	00c09093          	slli	ra,ra,0xc
    8000086c:	22308093          	addi	ra,ra,547
    80000870:	00c09093          	slli	ra,ra,0xc
    80000874:	34408093          	addi	ra,ra,836
    80000878:	2820a733          	xperm4	a4,ra,sp
    8000087c:	00120213          	addi	tp,tp,1 # 1 <_start-0x7fffffff>
    80000880:	00200293          	li	t0,2
    80000884:	fa521ce3          	bne	tp,t0,8000083c <test_23+0x8>
    80000888:	000113b7          	lui	t2,0x11
    8000088c:	9093839b          	addiw	t2,t2,-1783 # 10909 <_start-0x7ffef6f7>
    80000890:	01039393          	slli	t2,t2,0x10
    80000894:	50538393          	addi	t2,t2,1285
    80000898:	01039393          	slli	t2,t2,0x10
    8000089c:	50538393          	addi	t2,t2,1285
    800008a0:	00e39393          	slli	t2,t2,0xe
    800008a4:	24238393          	addi	t2,t2,578
    800008a8:	1c771063          	bne	a4,t2,80000a68 <fail>

00000000800008ac <test_24>:
    800008ac:	01800193          	li	gp,24
    800008b0:	00000213          	li	tp,0
    800008b4:	003b3137          	lui	sp,0x3b3
    800008b8:	a191011b          	addiw	sp,sp,-1511 # 3b2a19 <_start-0x7fc4d5e7>
    800008bc:	00d11113          	slli	sp,sp,0xd
    800008c0:	10f10113          	addi	sp,sp,271
    800008c4:	01011113          	slli	sp,sp,0x10
    800008c8:	cdb10113          	addi	sp,sp,-805
    800008cc:	00c11113          	slli	sp,sp,0xc
    800008d0:	b8910113          	addi	sp,sp,-1143
    800008d4:	00000013          	nop
    800008d8:	000920b7          	lui	ra,0x92
    800008dc:	a2b0809b          	addiw	ra,ra,-1493 # 91a2b <_start-0x7ff6e5d5>
    800008e0:	00c09093          	slli	ra,ra,0xc
    800008e4:	3c508093          	addi	ra,ra,965
    800008e8:	00d09093          	slli	ra,ra,0xd
    800008ec:	abd08093          	addi	ra,ra,-1347
    800008f0:	00c09093          	slli	ra,ra,0xc
    800008f4:	def08093          	addi	ra,ra,-529
    800008f8:	00000013          	nop
    800008fc:	2820a733          	xperm4	a4,ra,sp
    80000900:	00120213          	addi	tp,tp,1 # 1 <_start-0x7fffffff>
    80000904:	00200293          	li	t0,2
    80000908:	fa5216e3          	bne	tp,t0,800008b4 <test_24+0x8>
    8000090c:	ffc4d3b7          	lui	t2,0xffc4d
    80000910:	5e73839b          	addiw	t2,t2,1511 # ffffffffffc4d5e7 <_end+0xffffffff7fc4b5e7>
    80000914:	00d39393          	slli	t2,t2,0xd
    80000918:	ef138393          	addi	t2,t2,-271
    8000091c:	01039393          	slli	t2,t2,0x10
    80000920:	32538393          	addi	t2,t2,805
    80000924:	00c39393          	slli	t2,t2,0xc
    80000928:	47638393          	addi	t2,t2,1142
    8000092c:	12771e63          	bne	a4,t2,80000a68 <fail>

0000000080000930 <test_25>:
    80000930:	01900193          	li	gp,25
    80000934:	00000213          	li	tp,0
    80000938:	00010137          	lui	sp,0x10
    8000093c:	2031011b          	addiw	sp,sp,515 # 10203 <_start-0x7ffefdfd>
    80000940:	01011113          	slli	sp,sp,0x10
    80000944:	40510113          	addi	sp,sp,1029
    80000948:	01011113          	slli	sp,sp,0x10
    8000094c:	60710113          	addi	sp,sp,1543
    80000950:	00000013          	nop
    80000954:	00000013          	nop
    80000958:	002470b7          	lui	ra,0x247
    8000095c:	8ad0809b          	addiw	ra,ra,-1875 # 2468ad <_start-0x7fdb9753>
    80000960:	00e09093          	slli	ra,ra,0xe
    80000964:	c4d08093          	addi	ra,ra,-947
    80000968:	00c09093          	slli	ra,ra,0xc
    8000096c:	5e708093          	addi	ra,ra,1511
    80000970:	00d09093          	slli	ra,ra,0xd
    80000974:	ef008093          	addi	ra,ra,-272
    80000978:	2820a733          	xperm4	a4,ra,sp
    8000097c:	00120213          	addi	tp,tp,1 # 1 <_start-0x7fffffff>
    80000980:	00200293          	li	t0,2
    80000984:	fa521ae3          	bne	tp,t0,80000938 <test_25+0x8>
    80000988:	03c383b7          	lui	t2,0x3c38
    8000098c:	3433839b          	addiw	t2,t2,835 # 3c38343 <_start-0x7c3c7cbd>
    80000990:	00e39393          	slli	t2,t2,0xe
    80000994:	0b138393          	addi	t2,t2,177
    80000998:	00c39393          	slli	t2,t2,0xc
    8000099c:	a0938393          	addi	t2,t2,-1527
    800009a0:	0c771463          	bne	a4,t2,80000a68 <fail>

00000000800009a4 <test_26>:
    800009a4:	01a00193          	li	gp,26
    800009a8:	000490b7          	lui	ra,0x49
    800009ac:	8190809b          	addiw	ra,ra,-2023 # 48819 <_start-0x7ffb77e7>
    800009b0:	00d09093          	slli	ra,ra,0xd
    800009b4:	23108093          	addi	ra,ra,561
    800009b8:	00d09093          	slli	ra,ra,0xd
    800009bc:	ff308093          	addi	ra,ra,-13
    800009c0:	00c09093          	slli	ra,ra,0xc
    800009c4:	30208093          	addi	ra,ra,770
    800009c8:	28102133          	xperm4	sp,zero,ra
    800009cc:	00000393          	li	t2,0
    800009d0:	08711c63          	bne	sp,t2,80000a68 <fail>

00000000800009d4 <test_27>:
    800009d4:	01b00193          	li	gp,27
    800009d8:	004490b7          	lui	ra,0x449
    800009dc:	8cd0809b          	addiw	ra,ra,-1843 # 4488cd <_start-0x7fbb7733>
    800009e0:	00e09093          	slli	ra,ra,0xe
    800009e4:	41108093          	addi	ra,ra,1041
    800009e8:	00c09093          	slli	ra,ra,0xc
    800009ec:	22308093          	addi	ra,ra,547
    800009f0:	00c09093          	slli	ra,ra,0xc
    800009f4:	34a08093          	addi	ra,ra,842
    800009f8:	2800a133          	xperm4	sp,ra,zero
    800009fc:	faaab3b7          	lui	t2,0xfaaab
    80000a00:	aab3839b          	addiw	t2,t2,-1365 # fffffffffaaaaaab <_end+0xffffffff7aaa8aab>
    80000a04:	00c39393          	slli	t2,t2,0xc
    80000a08:	aab38393          	addi	t2,t2,-1365
    80000a0c:	00c39393          	slli	t2,t2,0xc
    80000a10:	aab38393          	addi	t2,t2,-1365
    80000a14:	00c39393          	slli	t2,t2,0xc
    80000a18:	aaa38393          	addi	t2,t2,-1366
    80000a1c:	04711663          	bne	sp,t2,80000a68 <fail>

0000000080000a20 <test_28>:
    80000a20:	01c00193          	li	gp,28
    80000a24:	280020b3          	xperm4	ra,zero,zero
    80000a28:	00000393          	li	t2,0
    80000a2c:	02709e63          	bne	ra,t2,80000a68 <fail>

0000000080000a30 <test_29>:
    80000a30:	01d00193          	li	gp,29
    80000a34:	00000093          	li	ra,0
    80000a38:	00449137          	lui	sp,0x449
    80000a3c:	8cd1011b          	addiw	sp,sp,-1843 # 4488cd <_start-0x7fbb7733>
    80000a40:	00e11113          	slli	sp,sp,0xe
    80000a44:	41110113          	addi	sp,sp,1041
    80000a48:	00c11113          	slli	sp,sp,0xc
    80000a4c:	22310113          	addi	sp,sp,547
    80000a50:	00c11113          	slli	sp,sp,0xc
    80000a54:	34410113          	addi	sp,sp,836
    80000a58:	2820a033          	xperm4	zero,ra,sp
    80000a5c:	00000393          	li	t2,0
    80000a60:	00701463          	bne	zero,t2,80000a68 <fail>
    80000a64:	00301663          	bne	zero,gp,80000a70 <pass>

0000000080000a68 <fail>:
    80000a68:	00100513          	li	a0,1
    80000a6c:	00c0006f          	j	80000a78 <halt>

0000000080000a70 <pass>:
    80000a70:	00000513          	li	a0,0
    80000a74:	0040006f          	j	80000a78 <halt>

0000000080000a78 <halt>:
    80000a78:	0000006f          	j	80000a78 <halt>
    80000a7c:	0000                	.insn	2, 0x
    80000a7e:	0000                	.insn	2, 0x
    80000a80:	0000                	.insn	2, 0x
    80000a82:	0000                	.insn	2, 0x
