
rv64uzba-p-sh3add_uw:     file format elf64-littleriscv


Disassembly of section .text.init:

0000000080000000 <_start>:
    80000000:	0580006f          	j	80000058 <reset_vector>

0000000080000004 <trap_vector>:
    80000004:	34202f73          	csrr	t5,mcause
    80000008:	00800f93          	li	t6,8
    8000000c:	03ff0863          	beq	t5,t6,8000003c <write_tohost>
    80000010:	00900f93          	li	t6,9
    80000014:	03ff0463          	beq	t5,t6,8000003c <write_tohost>
    80000018:	00b00f93          	li	t6,11
    8000001c:	03ff0063          	beq	t5,t6,8000003c <write_tohost>
    80000020:	00000f13          	li	t5,0
    80000024:	000f0463          	beqz	t5,8000002c <trap_vector+0x28>
    80000028:	000f0067          	jr	t5
    8000002c:	34202f73          	csrr	t5,mcause
    80000030:	000f5463          	bgez	t5,80000038 <handle_exception>
    80000034:	0040006f          	j	80000038 <handle_exception>

0000000080000038 <handle_exception>:
    80000038:	5391e193          	ori	gp,gp,1337

000000008000003c <write_tohost>:
    8000003c:	00001f17          	auipc	t5,0x1
    80000040:	fc3f2223          	sw	gp,-60(t5) # 80001000 <tohost>
    80000044:	00001f17          	auipc	t5,0x1
    80000048:	fc0f2023          	sw	zero,-64(t5) # 80001004 <tohost+0x4>
    8000004c:	0080006f          	j	80000054 <halt>
    80000050:	fedff06f          	j	8000003c <write_tohost>

0000000080000054 <halt>:
    80000054:	0000006f          	j	80000054 <halt>

0000000080000058 <reset_vector>:
    80000058:	00000093          	li	ra,0
    8000005c:	00000113          	li	sp,0
    80000060:	00000193          	li	gp,0
    80000064:	00000213          	li	tp,0
    80000068:	00000293          	li	t0,0
    8000006c:	00000313          	li	t1,0
    80000070:	00000393          	li	t2,0
    80000074:	00000413          	li	s0,0
    80000078:	00000493          	li	s1,0
    8000007c:	00000513          	li	a0,0
    80000080:	00000593          	li	a1,0
    80000084:	00000613          	li	a2,0
    80000088:	00000693          	li	a3,0
    8000008c:	00000713          	li	a4,0
    80000090:	00000793          	li	a5,0
    80000094:	00000813          	li	a6,0
    80000098:	00000893          	li	a7,0
    8000009c:	00000913          	li	s2,0
    800000a0:	00000993          	li	s3,0
    800000a4:	00000a13          	li	s4,0
    800000a8:	00000a93          	li	s5,0
    800000ac:	00000b13          	li	s6,0
    800000b0:	00000b93          	li	s7,0
    800000b4:	00000c13          	li	s8,0
    800000b8:	00000c93          	li	s9,0
    800000bc:	00000d13          	li	s10,0
    800000c0:	00000d93          	li	s11,0
    800000c4:	00000e13          	li	t3,0
    800000c8:	00000e93          	li	t4,0
    800000cc:	00000f13          	li	t5,0
    800000d0:	00000f93          	li	t6,0
    800000d4:	f1402573          	csrr	a0,mhartid
    800000d8:	00051063          	bnez	a0,800000d8 <reset_vector+0x80>
    800000dc:	00000297          	auipc	t0,0x0
    800000e0:	01028293          	addi	t0,t0,16 # 800000ec <reset_vector+0x94>
    800000e4:	30529073          	csrw	mtvec,t0
    800000e8:	74445073          	csrwi	0x744,8
    800000ec:	00000297          	auipc	t0,0x0
    800000f0:	01028293          	addi	t0,t0,16 # 800000fc <reset_vector+0xa4>
    800000f4:	30529073          	csrw	mtvec,t0
    800000f8:	18005073          	csrwi	satp,0
    800000fc:	00000297          	auipc	t0,0x0
    80000100:	02428293          	addi	t0,t0,36 # 80000120 <reset_vector+0xc8>
    80000104:	30529073          	csrw	mtvec,t0
    80000108:	0010029b          	addiw	t0,zero,1
    8000010c:	03529293          	slli	t0,t0,0x35
    80000110:	fff28293          	addi	t0,t0,-1
    80000114:	3b029073          	csrw	pmpaddr0,t0
    80000118:	01f00293          	li	t0,31
    8000011c:	3a029073          	csrw	pmpcfg0,t0
    80000120:	30405073          	csrwi	mie,0
    80000124:	00000297          	auipc	t0,0x0
    80000128:	01428293          	addi	t0,t0,20 # 80000138 <reset_vector+0xe0>
    8000012c:	30529073          	csrw	mtvec,t0
    80000130:	30205073          	csrwi	medeleg,0
    80000134:	30305073          	csrwi	mideleg,0
    80000138:	00000193          	li	gp,0
    8000013c:	00000297          	auipc	t0,0x0
    80000140:	ec828293          	addi	t0,t0,-312 # 80000004 <trap_vector>
    80000144:	30529073          	csrw	mtvec,t0
    80000148:	00100513          	li	a0,1
    8000014c:	01f51513          	slli	a0,a0,0x1f
    80000150:	00055c63          	bgez	a0,80000168 <reset_vector+0x110>
    80000154:	0ff0000f          	fence
    80000158:	00100193          	li	gp,1
    8000015c:	05d00893          	li	a7,93
    80000160:	00000513          	li	a0,0
    80000164:	00000073          	ecall
    80000168:	00000293          	li	t0,0
    8000016c:	00028a63          	beqz	t0,80000180 <reset_vector+0x128>
    80000170:	10529073          	csrw	stvec,t0
    80000174:	0000b2b7          	lui	t0,0xb
    80000178:	1092829b          	addiw	t0,t0,265 # b109 <_start-0x7fff4ef7>
    8000017c:	30229073          	csrw	medeleg,t0
    80000180:	30005073          	csrwi	mstatus,0
    80000184:	00000297          	auipc	t0,0x0
    80000188:	01428293          	addi	t0,t0,20 # 80000198 <test_2>
    8000018c:	34129073          	csrw	mepc,t0
    80000190:	f1402573          	csrr	a0,mhartid
    80000194:	30200073          	mret

0000000080000198 <test_2>:
    80000198:	00200193          	li	gp,2
    8000019c:	00000593          	li	a1,0
    800001a0:	00000613          	li	a2,0
    800001a4:	20c5e73b          	sh3add.uw	a4,a1,a2
    800001a8:	00000393          	li	t2,0
    800001ac:	50771663          	bne	a4,t2,800006b8 <fail>

00000000800001b0 <test_3>:
    800001b0:	00300193          	li	gp,3
    800001b4:	00100593          	li	a1,1
    800001b8:	00100613          	li	a2,1
    800001bc:	20c5e73b          	sh3add.uw	a4,a1,a2
    800001c0:	00900393          	li	t2,9
    800001c4:	4e771a63          	bne	a4,t2,800006b8 <fail>

00000000800001c8 <test_4>:
    800001c8:	00400193          	li	gp,4
    800001cc:	00300593          	li	a1,3
    800001d0:	00700613          	li	a2,7
    800001d4:	20c5e73b          	sh3add.uw	a4,a1,a2
    800001d8:	01f00393          	li	t2,31
    800001dc:	4c771e63          	bne	a4,t2,800006b8 <fail>

00000000800001e0 <test_5>:
    800001e0:	00500193          	li	gp,5
    800001e4:	00000593          	li	a1,0
    800001e8:	ffff8637          	lui	a2,0xffff8
    800001ec:	20c5e73b          	sh3add.uw	a4,a1,a2
    800001f0:	ffff83b7          	lui	t2,0xffff8
    800001f4:	4c771263          	bne	a4,t2,800006b8 <fail>

00000000800001f8 <test_6>:
    800001f8:	00600193          	li	gp,6
    800001fc:	800005b7          	lui	a1,0x80000
    80000200:	00000613          	li	a2,0
    80000204:	20c5e73b          	sh3add.uw	a4,a1,a2
    80000208:	0010039b          	addiw	t2,zero,1
    8000020c:	02239393          	slli	t2,t2,0x22
    80000210:	4a771463          	bne	a4,t2,800006b8 <fail>

0000000080000214 <test_7>:
    80000214:	00700193          	li	gp,7
    80000218:	800005b7          	lui	a1,0x80000
    8000021c:	ffff8637          	lui	a2,0xffff8
    80000220:	20c5e73b          	sh3add.uw	a4,a1,a2
    80000224:	000803b7          	lui	t2,0x80
    80000228:	fff3839b          	addiw	t2,t2,-1 # 7ffff <_start-0x7ff80001>
    8000022c:	00f39393          	slli	t2,t2,0xf
    80000230:	48771463          	bne	a4,t2,800006b8 <fail>

0000000080000234 <test_8>:
    80000234:	00800193          	li	gp,8
    80000238:	00000593          	li	a1,0
    8000023c:	00008637          	lui	a2,0x8
    80000240:	fff6061b          	addiw	a2,a2,-1 # 7fff <_start-0x7fff8001>
    80000244:	20c5e73b          	sh3add.uw	a4,a1,a2
    80000248:	000083b7          	lui	t2,0x8
    8000024c:	fff3839b          	addiw	t2,t2,-1 # 7fff <_start-0x7fff8001>
    80000250:	46771463          	bne	a4,t2,800006b8 <fail>

0000000080000254 <test_9>:
    80000254:	00900193          	li	gp,9
    80000258:	800005b7          	lui	a1,0x80000
    8000025c:	fff5859b          	addiw	a1,a1,-1 # 7fffffff <_start-0x1>
    80000260:	00000613          	li	a2,0
    80000264:	20c5e73b          	sh3add.uw	a4,a1,a2
    80000268:	0010039b          	addiw	t2,zero,1
    8000026c:	02239393          	slli	t2,t2,0x22
    80000270:	ff838393          	addi	t2,t2,-8
    80000274:	44771263          	bne	a4,t2,800006b8 <fail>

0000000080000278 <test_10>:
    80000278:	00a00193          	li	gp,10
    8000027c:	800005b7          	lui	a1,0x80000
    80000280:	fff5859b          	addiw	a1,a1,-1 # 7fffffff <_start-0x1>
    80000284:	00008637          	lui	a2,0x8
    80000288:	fff6061b          	addiw	a2,a2,-1 # 7fff <_start-0x7fff8001>
    8000028c:	20c5e73b          	sh3add.uw	a4,a1,a2
    80000290:	000803b7          	lui	t2,0x80
    80000294:	0013839b          	addiw	t2,t2,1 # 80001 <_start-0x7ff7ffff>
    80000298:	00f39393          	slli	t2,t2,0xf
    8000029c:	ff738393          	addi	t2,t2,-9
    800002a0:	40771c63          	bne	a4,t2,800006b8 <fail>

00000000800002a4 <test_11>:
    800002a4:	00b00193          	li	gp,11
    800002a8:	800005b7          	lui	a1,0x80000
    800002ac:	00008637          	lui	a2,0x8
    800002b0:	fff6061b          	addiw	a2,a2,-1 # 7fff <_start-0x7fff8001>
    800002b4:	20c5e73b          	sh3add.uw	a4,a1,a2
    800002b8:	000803b7          	lui	t2,0x80
    800002bc:	0013839b          	addiw	t2,t2,1 # 80001 <_start-0x7ff7ffff>
    800002c0:	00f39393          	slli	t2,t2,0xf
    800002c4:	fff38393          	addi	t2,t2,-1
    800002c8:	3e771863          	bne	a4,t2,800006b8 <fail>

00000000800002cc <test_12>:
    800002cc:	00c00193          	li	gp,12
    800002d0:	800005b7          	lui	a1,0x80000
    800002d4:	fff5859b          	addiw	a1,a1,-1 # 7fffffff <_start-0x1>
    800002d8:	ffff8637          	lui	a2,0xffff8
    800002dc:	20c5e73b          	sh3add.uw	a4,a1,a2
    800002e0:	000803b7          	lui	t2,0x80
    800002e4:	fff3839b          	addiw	t2,t2,-1 # 7ffff <_start-0x7ff80001>
    800002e8:	00f39393          	slli	t2,t2,0xf
    800002ec:	ff838393          	addi	t2,t2,-8
    800002f0:	3c771463          	bne	a4,t2,800006b8 <fail>

00000000800002f4 <test_13>:
    800002f4:	00d00193          	li	gp,13
    800002f8:	00000593          	li	a1,0
    800002fc:	fff00613          	li	a2,-1
    80000300:	20c5e73b          	sh3add.uw	a4,a1,a2
    80000304:	fff00393          	li	t2,-1
    80000308:	3a771863          	bne	a4,t2,800006b8 <fail>

000000008000030c <test_14>:
    8000030c:	00e00193          	li	gp,14
    80000310:	fff00593          	li	a1,-1
    80000314:	00100613          	li	a2,1
    80000318:	20c5e73b          	sh3add.uw	a4,a1,a2
    8000031c:	0010039b          	addiw	t2,zero,1
    80000320:	02339393          	slli	t2,t2,0x23
    80000324:	ff938393          	addi	t2,t2,-7
    80000328:	38771863          	bne	a4,t2,800006b8 <fail>

000000008000032c <test_15>:
    8000032c:	00f00193          	li	gp,15
    80000330:	fff00593          	li	a1,-1
    80000334:	fff00613          	li	a2,-1
    80000338:	20c5e73b          	sh3add.uw	a4,a1,a2
    8000033c:	0010039b          	addiw	t2,zero,1
    80000340:	02339393          	slli	t2,t2,0x23
    80000344:	ff738393          	addi	t2,t2,-9
    80000348:	36771863          	bne	a4,t2,800006b8 <fail>

000000008000034c <test_16>:
    8000034c:	01000193          	li	gp,16
    80000350:	00100593          	li	a1,1
    80000354:	80000637          	lui	a2,0x80000
    80000358:	fff6061b          	addiw	a2,a2,-1 # 7fffffff <_start-0x1>
    8000035c:	20c5e73b          	sh3add.uw	a4,a1,a2
    80000360:	0010039b          	addiw	t2,zero,1
    80000364:	01f39393          	slli	t2,t2,0x1f
    80000368:	00738393          	addi	t2,t2,7
    8000036c:	34771663          	bne	a4,t2,800006b8 <fail>

0000000080000370 <test_17>:
    80000370:	01100193          	li	gp,17
    80000374:	00d00593          	li	a1,13
    80000378:	00b00613          	li	a2,11
    8000037c:	20c5e5bb          	sh3add.uw	a1,a1,a2
    80000380:	07300393          	li	t2,115
    80000384:	32759a63          	bne	a1,t2,800006b8 <fail>

0000000080000388 <test_18>:
    80000388:	01200193          	li	gp,18
    8000038c:	00e00593          	li	a1,14
    80000390:	00b00613          	li	a2,11
    80000394:	20c5e63b          	sh3add.uw	a2,a1,a2
    80000398:	07b00393          	li	t2,123
    8000039c:	30761e63          	bne	a2,t2,800006b8 <fail>

00000000800003a0 <test_19>:
    800003a0:	01300193          	li	gp,19
    800003a4:	00d00593          	li	a1,13
    800003a8:	20b5e5bb          	sh3add.uw	a1,a1,a1
    800003ac:	07500393          	li	t2,117
    800003b0:	30759463          	bne	a1,t2,800006b8 <fail>

00000000800003b4 <test_20>:
    800003b4:	01400193          	li	gp,20
    800003b8:	00000213          	li	tp,0
    800003bc:	00d00093          	li	ra,13
    800003c0:	00b00113          	li	sp,11
    800003c4:	2020e73b          	sh3add.uw	a4,ra,sp
    800003c8:	00070313          	mv	t1,a4
    800003cc:	00120213          	addi	tp,tp,1 # 1 <_start-0x7fffffff>
    800003d0:	00200293          	li	t0,2
    800003d4:	fe5214e3          	bne	tp,t0,800003bc <test_20+0x8>
    800003d8:	07300393          	li	t2,115
    800003dc:	2c731e63          	bne	t1,t2,800006b8 <fail>

00000000800003e0 <test_21>:
    800003e0:	01500193          	li	gp,21
    800003e4:	00000213          	li	tp,0
    800003e8:	00e00093          	li	ra,14
    800003ec:	00b00113          	li	sp,11
    800003f0:	2020e73b          	sh3add.uw	a4,ra,sp
    800003f4:	00000013          	nop
    800003f8:	00070313          	mv	t1,a4
    800003fc:	00120213          	addi	tp,tp,1 # 1 <_start-0x7fffffff>
    80000400:	00200293          	li	t0,2
    80000404:	fe5212e3          	bne	tp,t0,800003e8 <test_21+0x8>
    80000408:	07b00393          	li	t2,123
    8000040c:	2a731663          	bne	t1,t2,800006b8 <fail>

0000000080000410 <test_22>:
    80000410:	01600193          	li	gp,22
    80000414:	00000213          	li	tp,0
    80000418:	00f00093          	li	ra,15
    8000041c:	00b00113          	li	sp,11
    80000420:	2020e73b          	sh3add.uw	a4,ra,sp
    80000424:	00000013          	nop
    80000428:	00000013          	nop
    8000042c:	00070313          	mv	t1,a4
    80000430:	00120213          	addi	tp,tp,1 # 1 <_start-0x7fffffff>
    80000434:	00200293          	li	t0,2
    80000438:	fe5210e3          	bne	tp,t0,80000418 <test_22+0x8>
    8000043c:	08300393          	li	t2,131
    80000440:	26731c63          	bne	t1,t2,800006b8 <fail>

0000000080000444 <test_23>:
    80000444:	01700193          	li	gp,23
    80000448:	00000213          	li	tp,0
    8000044c:	00d00093          	li	ra,13
    80000450:	00b00113          	li	sp,11
    80000454:	2020e73b          	sh3add.uw	a4,ra,sp
    80000458:	00120213          	addi	tp,tp,1 # 1 <_start-0x7fffffff>
    8000045c:	00200293          	li	t0,2
    80000460:	fe5216e3          	bne	tp,t0,8000044c <test_23+0x8>
    80000464:	07300393          	li	t2,115
    80000468:	24771863          	bne	a4,t2,800006b8 <fail>

000000008000046c <test_24>:
    8000046c:	01800193          	li	gp,24
    80000470:	00000213          	li	tp,0
    80000474:	00e00093          	li	ra,14
    80000478:	00b00113          	li	sp,11
    8000047c:	00000013          	nop
    80000480:	2020e73b          	sh3add.uw	a4,ra,sp
    80000484:	00120213          	addi	tp,tp,1 # 1 <_start-0x7fffffff>
    80000488:	00200293          	li	t0,2
    8000048c:	fe5214e3          	bne	tp,t0,80000474 <test_24+0x8>
    80000490:	07b00393          	li	t2,123
    80000494:	22771263          	bne	a4,t2,800006b8 <fail>

0000000080000498 <test_25>:
    80000498:	01900193          	li	gp,25
    8000049c:	00000213          	li	tp,0
    800004a0:	00f00093          	li	ra,15
    800004a4:	00b00113          	li	sp,11
    800004a8:	00000013          	nop
    800004ac:	00000013          	nop
    800004b0:	2020e73b          	sh3add.uw	a4,ra,sp
    800004b4:	00120213          	addi	tp,tp,1 # 1 <_start-0x7fffffff>
    800004b8:	00200293          	li	t0,2
    800004bc:	fe5212e3          	bne	tp,t0,800004a0 <test_25+0x8>
    800004c0:	08300393          	li	t2,131
    800004c4:	1e771a63          	bne	a4,t2,800006b8 <fail>

00000000800004c8 <test_26>:
    800004c8:	01a00193          	li	gp,26
    800004cc:	00000213          	li	tp,0
    800004d0:	00d00093          	li	ra,13
    800004d4:	00000013          	nop
    800004d8:	00b00113          	li	sp,11
    800004dc:	2020e73b          	sh3add.uw	a4,ra,sp
    800004e0:	00120213          	addi	tp,tp,1 # 1 <_start-0x7fffffff>
    800004e4:	00200293          	li	t0,2
    800004e8:	fe5214e3          	bne	tp,t0,800004d0 <test_26+0x8>
    800004ec:	07300393          	li	t2,115
    800004f0:	1c771463          	bne	a4,t2,800006b8 <fail>

00000000800004f4 <test_27>:
    800004f4:	01b00193          	li	gp,27
    800004f8:	00000213          	li	tp,0
    800004fc:	00e00093          	li	ra,14
    80000500:	00000013          	nop
    80000504:	00b00113          	li	sp,11
    80000508:	00000013          	nop
    8000050c:	2020e73b          	sh3add.uw	a4,ra,sp
    80000510:	00120213          	addi	tp,tp,1 # 1 <_start-0x7fffffff>
    80000514:	00200293          	li	t0,2
    80000518:	fe5212e3          	bne	tp,t0,800004fc <test_27+0x8>
    8000051c:	07b00393          	li	t2,123
    80000520:	18771c63          	bne	a4,t2,800006b8 <fail>

0000000080000524 <test_28>:
    80000524:	01c00193          	li	gp,28
    80000528:	00000213          	li	tp,0
    8000052c:	00f00093          	li	ra,15
    80000530:	00000013          	nop
    80000534:	00000013          	nop
    80000538:	00b00113          	li	sp,11
    8000053c:	2020e73b          	sh3add.uw	a4,ra,sp
    80000540:	00120213          	addi	tp,tp,1 # 1 <_start-0x7fffffff>
    80000544:	00200293          	li	t0,2
    80000548:	fe5212e3          	bne	tp,t0,8000052c <test_28+0x8>
    8000054c:	08300393          	li	t2,131
    80000550:	16771463          	bne	a4,t2,800006b8 <fail>

0000000080000554 <test_29>:
    80000554:	01d00193          	li	gp,29
    80000558:	00000213          	li	tp,0
    8000055c:	00b00113          	li	sp,11
    80000560:	00d00093          	li	ra,13
    80000564:	2020e73b          	sh3add.uw	a4,ra,sp
    80000568:	00120213          	addi	tp,tp,1 # 1 <_start-0x7fffffff>
    8000056c:	00200293          	li	t0,2
    80000570:	fe5216e3          	bne	tp,t0,8000055c <test_29+0x8>
    80000574:	07300393          	li	t2,115
    80000578:	14771063          	bne	a4,t2,800006b8 <fail>

000000008000057c <test_30>:
    8000057c:	01e00193          	li	gp,30
    80000580:	00000213          	li	tp,0
    80000584:	00b00113          	li	sp,11
    80000588:	00e00093          	li	ra,14
    8000058c:	00000013          	nop
    80000590:	2020e73b          	sh3add.uw	a4,ra,sp
    80000594:	00120213          	addi	tp,tp,1 # 1 <_start-0x7fffffff>
    80000598:	00200293          	li	t0,2
    8000059c:	fe5214e3          	bne	tp,t0,80000584 <test_30+0x8>
    800005a0:	07b00393          	li	t2,123
    800005a4:	10771a63          	bne	a4,t2,800006b8 <fail>

00000000800005a8 <test_31>:
    800005a8:	01f00193          	li	gp,31
    800005ac:	00000213          	li	tp,0
    800005b0:	00b00113          	li	sp,11
    800005b4:	00f00093          	li	ra,15
    800005b8:	00000013          	nop
    800005bc:	00000013          	nop
    800005c0:	2020e73b          	sh3add.uw	a4,ra,sp
    800005c4:	00120213          	addi	tp,tp,1 # 1 <_start-0x7fffffff>
    800005c8:	00200293          	li	t0,2
    800005cc:	fe5212e3          	bne	tp,t0,800005b0 <test_31+0x8>
    800005d0:	08300393          	li	t2,131
    800005d4:	0e771263          	bne	a4,t2,800006b8 <fail>

00000000800005d8 <test_32>:
    800005d8:	02000193          	li	gp,32
    800005dc:	00000213          	li	tp,0
    800005e0:	00b00113          	li	sp,11
    800005e4:	00000013          	nop
    800005e8:	00d00093          	li	ra,13
    800005ec:	2020e73b          	sh3add.uw	a4,ra,sp
    800005f0:	00120213          	addi	tp,tp,1 # 1 <_start-0x7fffffff>
    800005f4:	00200293          	li	t0,2
    800005f8:	fe5214e3          	bne	tp,t0,800005e0 <test_32+0x8>
    800005fc:	07300393          	li	t2,115
    80000600:	0a771c63          	bne	a4,t2,800006b8 <fail>

0000000080000604 <test_33>:
    80000604:	02100193          	li	gp,33
    80000608:	00000213          	li	tp,0
    8000060c:	00b00113          	li	sp,11
    80000610:	00000013          	nop
    80000614:	00e00093          	li	ra,14
    80000618:	00000013          	nop
    8000061c:	2020e73b          	sh3add.uw	a4,ra,sp
    80000620:	00120213          	addi	tp,tp,1 # 1 <_start-0x7fffffff>
    80000624:	00200293          	li	t0,2
    80000628:	fe5212e3          	bne	tp,t0,8000060c <test_33+0x8>
    8000062c:	07b00393          	li	t2,123
    80000630:	08771463          	bne	a4,t2,800006b8 <fail>

0000000080000634 <test_34>:
    80000634:	02200193          	li	gp,34
    80000638:	00000213          	li	tp,0
    8000063c:	00b00113          	li	sp,11
    80000640:	00000013          	nop
    80000644:	00000013          	nop
    80000648:	00f00093          	li	ra,15
    8000064c:	2020e73b          	sh3add.uw	a4,ra,sp
    80000650:	00120213          	addi	tp,tp,1 # 1 <_start-0x7fffffff>
    80000654:	00200293          	li	t0,2
    80000658:	fe5212e3          	bne	tp,t0,8000063c <test_34+0x8>
    8000065c:	08300393          	li	t2,131
    80000660:	04771c63          	bne	a4,t2,800006b8 <fail>

0000000080000664 <test_35>:
    80000664:	02300193          	li	gp,35
    80000668:	00f00093          	li	ra,15
    8000066c:	2010613b          	sh3add.uw	sp,zero,ra
    80000670:	00f00393          	li	t2,15
    80000674:	04711263          	bne	sp,t2,800006b8 <fail>

0000000080000678 <test_36>:
    80000678:	02400193          	li	gp,36
    8000067c:	02000093          	li	ra,32
    80000680:	2000e13b          	sh3add.uw	sp,ra,zero
    80000684:	10000393          	li	t2,256
    80000688:	02711863          	bne	sp,t2,800006b8 <fail>

000000008000068c <test_37>:
    8000068c:	02500193          	li	gp,37
    80000690:	200060bb          	sh3add.uw	ra,zero,zero
    80000694:	00000393          	li	t2,0
    80000698:	02709063          	bne	ra,t2,800006b8 <fail>

000000008000069c <test_38>:
    8000069c:	02600193          	li	gp,38
    800006a0:	01000093          	li	ra,16
    800006a4:	01e00113          	li	sp,30
    800006a8:	2020e03b          	sh3add.uw	zero,ra,sp
    800006ac:	00000393          	li	t2,0
    800006b0:	00701463          	bne	zero,t2,800006b8 <fail>
    800006b4:	02301063          	bne	zero,gp,800006d4 <pass>

00000000800006b8 <fail>:
    800006b8:	0ff0000f          	fence
    800006bc:	00018063          	beqz	gp,800006bc <fail+0x4>
    800006c0:	00119193          	slli	gp,gp,0x1
    800006c4:	0011e193          	ori	gp,gp,1
    800006c8:	05d00893          	li	a7,93
    800006cc:	00018513          	mv	a0,gp
    800006d0:	00000073          	ecall

00000000800006d4 <pass>:
    800006d4:	0ff0000f          	fence
    800006d8:	00100193          	li	gp,1
    800006dc:	05d00893          	li	a7,93
    800006e0:	00000513          	li	a0,0
    800006e4:	00000073          	ecall
    800006e8:	c0001073          	unimp
    800006ec:	0000                	.insn	2, 0x
    800006ee:	0000                	.insn	2, 0x
    800006f0:	0000                	.insn	2, 0x
    800006f2:	0000                	.insn	2, 0x
    800006f4:	0000                	.insn	2, 0x
    800006f6:	0000                	.insn	2, 0x
    800006f8:	0000                	.insn	2, 0x
    800006fa:	0000                	.insn	2, 0x
