
rv64uf-p-fcvt_w:     file format elf64-littleriscv


Disassembly of section .text.init:

0000000080000000 <_start>:
    80000000:	00200193          	li	gp,2
    80000004:	00002517          	auipc	a0,0x2
    80000008:	ffc50513          	addi	a0,a0,-4 # 80002000 <test_2_data>
    8000000c:	00052007          	flw	ft0,0(a0)
    80000010:	00452087          	flw	ft1,4(a0)
    80000014:	00852107          	flw	ft2,8(a0)
    80000018:	00c52683          	lw	a3,12(a0)
    8000001c:	c0001553          	fcvt.w.s	a0,ft0,rtz
    80000020:	001015f3          	fsflags	a1,zero
    80000024:	00100613          	li	a2,1
    80000028:	72d51a63          	bne	a0,a3,8000075c <fail>
    8000002c:	72c59863          	bne	a1,a2,8000075c <fail>

0000000080000030 <test_3>:
    80000030:	00300193          	li	gp,3
    80000034:	00002517          	auipc	a0,0x2
    80000038:	fdc50513          	addi	a0,a0,-36 # 80002010 <test_3_data>
    8000003c:	00052007          	flw	ft0,0(a0)
    80000040:	00452087          	flw	ft1,4(a0)
    80000044:	00852107          	flw	ft2,8(a0)
    80000048:	00c52683          	lw	a3,12(a0)
    8000004c:	c0001553          	fcvt.w.s	a0,ft0,rtz
    80000050:	001015f3          	fsflags	a1,zero
    80000054:	00000613          	li	a2,0
    80000058:	70d51263          	bne	a0,a3,8000075c <fail>
    8000005c:	70c59063          	bne	a1,a2,8000075c <fail>

0000000080000060 <test_4>:
    80000060:	00400193          	li	gp,4
    80000064:	00002517          	auipc	a0,0x2
    80000068:	fbc50513          	addi	a0,a0,-68 # 80002020 <test_4_data>
    8000006c:	00052007          	flw	ft0,0(a0)
    80000070:	00452087          	flw	ft1,4(a0)
    80000074:	00852107          	flw	ft2,8(a0)
    80000078:	00c52683          	lw	a3,12(a0)
    8000007c:	c0001553          	fcvt.w.s	a0,ft0,rtz
    80000080:	001015f3          	fsflags	a1,zero
    80000084:	00100613          	li	a2,1
    80000088:	6cd51a63          	bne	a0,a3,8000075c <fail>
    8000008c:	6cc59863          	bne	a1,a2,8000075c <fail>

0000000080000090 <test_5>:
    80000090:	00500193          	li	gp,5
    80000094:	00002517          	auipc	a0,0x2
    80000098:	f9c50513          	addi	a0,a0,-100 # 80002030 <test_5_data>
    8000009c:	00052007          	flw	ft0,0(a0)
    800000a0:	00452087          	flw	ft1,4(a0)
    800000a4:	00852107          	flw	ft2,8(a0)
    800000a8:	00c52683          	lw	a3,12(a0)
    800000ac:	c0001553          	fcvt.w.s	a0,ft0,rtz
    800000b0:	001015f3          	fsflags	a1,zero
    800000b4:	00100613          	li	a2,1
    800000b8:	6ad51263          	bne	a0,a3,8000075c <fail>
    800000bc:	6ac59063          	bne	a1,a2,8000075c <fail>

00000000800000c0 <test_6>:
    800000c0:	00600193          	li	gp,6
    800000c4:	00002517          	auipc	a0,0x2
    800000c8:	f7c50513          	addi	a0,a0,-132 # 80002040 <test_6_data>
    800000cc:	00052007          	flw	ft0,0(a0)
    800000d0:	00452087          	flw	ft1,4(a0)
    800000d4:	00852107          	flw	ft2,8(a0)
    800000d8:	00c52683          	lw	a3,12(a0)
    800000dc:	c0001553          	fcvt.w.s	a0,ft0,rtz
    800000e0:	001015f3          	fsflags	a1,zero
    800000e4:	00000613          	li	a2,0
    800000e8:	66d51a63          	bne	a0,a3,8000075c <fail>
    800000ec:	66c59863          	bne	a1,a2,8000075c <fail>

00000000800000f0 <test_7>:
    800000f0:	00700193          	li	gp,7
    800000f4:	00002517          	auipc	a0,0x2
    800000f8:	f5c50513          	addi	a0,a0,-164 # 80002050 <test_7_data>
    800000fc:	00052007          	flw	ft0,0(a0)
    80000100:	00452087          	flw	ft1,4(a0)
    80000104:	00852107          	flw	ft2,8(a0)
    80000108:	00c52683          	lw	a3,12(a0)
    8000010c:	c0001553          	fcvt.w.s	a0,ft0,rtz
    80000110:	001015f3          	fsflags	a1,zero
    80000114:	00100613          	li	a2,1
    80000118:	64d51263          	bne	a0,a3,8000075c <fail>
    8000011c:	64c59063          	bne	a1,a2,8000075c <fail>

0000000080000120 <test_8>:
    80000120:	00800193          	li	gp,8
    80000124:	00002517          	auipc	a0,0x2
    80000128:	f3c50513          	addi	a0,a0,-196 # 80002060 <test_8_data>
    8000012c:	00052007          	flw	ft0,0(a0)
    80000130:	00452087          	flw	ft1,4(a0)
    80000134:	00852107          	flw	ft2,8(a0)
    80000138:	00c52683          	lw	a3,12(a0)
    8000013c:	c0001553          	fcvt.w.s	a0,ft0,rtz
    80000140:	001015f3          	fsflags	a1,zero
    80000144:	01000613          	li	a2,16
    80000148:	60d51a63          	bne	a0,a3,8000075c <fail>
    8000014c:	60c59863          	bne	a1,a2,8000075c <fail>

0000000080000150 <test_9>:
    80000150:	00900193          	li	gp,9
    80000154:	00002517          	auipc	a0,0x2
    80000158:	f1c50513          	addi	a0,a0,-228 # 80002070 <test_9_data>
    8000015c:	00052007          	flw	ft0,0(a0)
    80000160:	00452087          	flw	ft1,4(a0)
    80000164:	00852107          	flw	ft2,8(a0)
    80000168:	00c52683          	lw	a3,12(a0)
    8000016c:	c0001553          	fcvt.w.s	a0,ft0,rtz
    80000170:	001015f3          	fsflags	a1,zero
    80000174:	01000613          	li	a2,16
    80000178:	5ed51263          	bne	a0,a3,8000075c <fail>
    8000017c:	5ec59063          	bne	a1,a2,8000075c <fail>

0000000080000180 <test_12>:
    80000180:	00c00193          	li	gp,12
    80000184:	00002517          	auipc	a0,0x2
    80000188:	efc50513          	addi	a0,a0,-260 # 80002080 <test_12_data>
    8000018c:	00052007          	flw	ft0,0(a0)
    80000190:	00452087          	flw	ft1,4(a0)
    80000194:	00852107          	flw	ft2,8(a0)
    80000198:	00c52683          	lw	a3,12(a0)
    8000019c:	c0101553          	fcvt.wu.s	a0,ft0,rtz
    800001a0:	001015f3          	fsflags	a1,zero
    800001a4:	01000613          	li	a2,16
    800001a8:	5ad51a63          	bne	a0,a3,8000075c <fail>
    800001ac:	5ac59863          	bne	a1,a2,8000075c <fail>

00000000800001b0 <test_13>:
    800001b0:	00d00193          	li	gp,13
    800001b4:	00002517          	auipc	a0,0x2
    800001b8:	edc50513          	addi	a0,a0,-292 # 80002090 <test_13_data>
    800001bc:	00052007          	flw	ft0,0(a0)
    800001c0:	00452087          	flw	ft1,4(a0)
    800001c4:	00852107          	flw	ft2,8(a0)
    800001c8:	00c52683          	lw	a3,12(a0)
    800001cc:	c0101553          	fcvt.wu.s	a0,ft0,rtz
    800001d0:	001015f3          	fsflags	a1,zero
    800001d4:	01000613          	li	a2,16
    800001d8:	58d51263          	bne	a0,a3,8000075c <fail>
    800001dc:	58c59063          	bne	a1,a2,8000075c <fail>

00000000800001e0 <test_14>:
    800001e0:	00e00193          	li	gp,14
    800001e4:	00002517          	auipc	a0,0x2
    800001e8:	ebc50513          	addi	a0,a0,-324 # 800020a0 <test_14_data>
    800001ec:	00052007          	flw	ft0,0(a0)
    800001f0:	00452087          	flw	ft1,4(a0)
    800001f4:	00852107          	flw	ft2,8(a0)
    800001f8:	00c52683          	lw	a3,12(a0)
    800001fc:	c0101553          	fcvt.wu.s	a0,ft0,rtz
    80000200:	001015f3          	fsflags	a1,zero
    80000204:	00100613          	li	a2,1
    80000208:	54d51a63          	bne	a0,a3,8000075c <fail>
    8000020c:	54c59863          	bne	a1,a2,8000075c <fail>

0000000080000210 <test_15>:
    80000210:	00f00193          	li	gp,15
    80000214:	00002517          	auipc	a0,0x2
    80000218:	e9c50513          	addi	a0,a0,-356 # 800020b0 <test_15_data>
    8000021c:	00052007          	flw	ft0,0(a0)
    80000220:	00452087          	flw	ft1,4(a0)
    80000224:	00852107          	flw	ft2,8(a0)
    80000228:	00c52683          	lw	a3,12(a0)
    8000022c:	c0101553          	fcvt.wu.s	a0,ft0,rtz
    80000230:	001015f3          	fsflags	a1,zero
    80000234:	00100613          	li	a2,1
    80000238:	52d51263          	bne	a0,a3,8000075c <fail>
    8000023c:	52c59063          	bne	a1,a2,8000075c <fail>

0000000080000240 <test_16>:
    80000240:	01000193          	li	gp,16
    80000244:	00002517          	auipc	a0,0x2
    80000248:	e7c50513          	addi	a0,a0,-388 # 800020c0 <test_16_data>
    8000024c:	00052007          	flw	ft0,0(a0)
    80000250:	00452087          	flw	ft1,4(a0)
    80000254:	00852107          	flw	ft2,8(a0)
    80000258:	00c52683          	lw	a3,12(a0)
    8000025c:	c0101553          	fcvt.wu.s	a0,ft0,rtz
    80000260:	001015f3          	fsflags	a1,zero
    80000264:	00000613          	li	a2,0
    80000268:	4ed51a63          	bne	a0,a3,8000075c <fail>
    8000026c:	4ec59863          	bne	a1,a2,8000075c <fail>

0000000080000270 <test_17>:
    80000270:	01100193          	li	gp,17
    80000274:	00002517          	auipc	a0,0x2
    80000278:	e5c50513          	addi	a0,a0,-420 # 800020d0 <test_17_data>
    8000027c:	00052007          	flw	ft0,0(a0)
    80000280:	00452087          	flw	ft1,4(a0)
    80000284:	00852107          	flw	ft2,8(a0)
    80000288:	00c52683          	lw	a3,12(a0)
    8000028c:	c0101553          	fcvt.wu.s	a0,ft0,rtz
    80000290:	001015f3          	fsflags	a1,zero
    80000294:	00100613          	li	a2,1
    80000298:	4cd51263          	bne	a0,a3,8000075c <fail>
    8000029c:	4cc59063          	bne	a1,a2,8000075c <fail>

00000000800002a0 <test_18>:
    800002a0:	01200193          	li	gp,18
    800002a4:	00002517          	auipc	a0,0x2
    800002a8:	e3c50513          	addi	a0,a0,-452 # 800020e0 <test_18_data>
    800002ac:	00052007          	flw	ft0,0(a0)
    800002b0:	00452087          	flw	ft1,4(a0)
    800002b4:	00852107          	flw	ft2,8(a0)
    800002b8:	00c52683          	lw	a3,12(a0)
    800002bc:	c0101553          	fcvt.wu.s	a0,ft0,rtz
    800002c0:	001015f3          	fsflags	a1,zero
    800002c4:	01000613          	li	a2,16
    800002c8:	48d51a63          	bne	a0,a3,8000075c <fail>
    800002cc:	48c59863          	bne	a1,a2,8000075c <fail>

00000000800002d0 <test_19>:
    800002d0:	01300193          	li	gp,19
    800002d4:	00002517          	auipc	a0,0x2
    800002d8:	e1c50513          	addi	a0,a0,-484 # 800020f0 <test_19_data>
    800002dc:	00052007          	flw	ft0,0(a0)
    800002e0:	00452087          	flw	ft1,4(a0)
    800002e4:	00852107          	flw	ft2,8(a0)
    800002e8:	00c52683          	lw	a3,12(a0)
    800002ec:	c0101553          	fcvt.wu.s	a0,ft0,rtz
    800002f0:	001015f3          	fsflags	a1,zero
    800002f4:	00000613          	li	a2,0
    800002f8:	46d51263          	bne	a0,a3,8000075c <fail>
    800002fc:	46c59063          	bne	a1,a2,8000075c <fail>

0000000080000300 <test_22>:
    80000300:	01600193          	li	gp,22
    80000304:	00002517          	auipc	a0,0x2
    80000308:	dfc50513          	addi	a0,a0,-516 # 80002100 <test_22_data>
    8000030c:	00052007          	flw	ft0,0(a0)
    80000310:	00452087          	flw	ft1,4(a0)
    80000314:	00852107          	flw	ft2,8(a0)
    80000318:	00c52683          	lw	a3,12(a0)
    8000031c:	c0201553          	fcvt.l.s	a0,ft0,rtz
    80000320:	001015f3          	fsflags	a1,zero
    80000324:	00100613          	li	a2,1
    80000328:	42d51a63          	bne	a0,a3,8000075c <fail>
    8000032c:	42c59863          	bne	a1,a2,8000075c <fail>

0000000080000330 <test_23>:
    80000330:	01700193          	li	gp,23
    80000334:	00002517          	auipc	a0,0x2
    80000338:	ddc50513          	addi	a0,a0,-548 # 80002110 <test_23_data>
    8000033c:	00052007          	flw	ft0,0(a0)
    80000340:	00452087          	flw	ft1,4(a0)
    80000344:	00852107          	flw	ft2,8(a0)
    80000348:	00c52683          	lw	a3,12(a0)
    8000034c:	c0201553          	fcvt.l.s	a0,ft0,rtz
    80000350:	001015f3          	fsflags	a1,zero
    80000354:	00000613          	li	a2,0
    80000358:	40d51263          	bne	a0,a3,8000075c <fail>
    8000035c:	40c59063          	bne	a1,a2,8000075c <fail>

0000000080000360 <test_24>:
    80000360:	01800193          	li	gp,24
    80000364:	00002517          	auipc	a0,0x2
    80000368:	dbc50513          	addi	a0,a0,-580 # 80002120 <test_24_data>
    8000036c:	00052007          	flw	ft0,0(a0)
    80000370:	00452087          	flw	ft1,4(a0)
    80000374:	00852107          	flw	ft2,8(a0)
    80000378:	00c52683          	lw	a3,12(a0)
    8000037c:	c0201553          	fcvt.l.s	a0,ft0,rtz
    80000380:	001015f3          	fsflags	a1,zero
    80000384:	00100613          	li	a2,1
    80000388:	3cd51a63          	bne	a0,a3,8000075c <fail>
    8000038c:	3cc59863          	bne	a1,a2,8000075c <fail>

0000000080000390 <test_25>:
    80000390:	01900193          	li	gp,25
    80000394:	00002517          	auipc	a0,0x2
    80000398:	d9c50513          	addi	a0,a0,-612 # 80002130 <test_25_data>
    8000039c:	00052007          	flw	ft0,0(a0)
    800003a0:	00452087          	flw	ft1,4(a0)
    800003a4:	00852107          	flw	ft2,8(a0)
    800003a8:	00c52683          	lw	a3,12(a0)
    800003ac:	c0201553          	fcvt.l.s	a0,ft0,rtz
    800003b0:	001015f3          	fsflags	a1,zero
    800003b4:	00100613          	li	a2,1
    800003b8:	3ad51263          	bne	a0,a3,8000075c <fail>
    800003bc:	3ac59063          	bne	a1,a2,8000075c <fail>

00000000800003c0 <test_26>:
    800003c0:	01a00193          	li	gp,26
    800003c4:	00002517          	auipc	a0,0x2
    800003c8:	d7c50513          	addi	a0,a0,-644 # 80002140 <test_26_data>
    800003cc:	00052007          	flw	ft0,0(a0)
    800003d0:	00452087          	flw	ft1,4(a0)
    800003d4:	00852107          	flw	ft2,8(a0)
    800003d8:	00c52683          	lw	a3,12(a0)
    800003dc:	c0201553          	fcvt.l.s	a0,ft0,rtz
    800003e0:	001015f3          	fsflags	a1,zero
    800003e4:	00000613          	li	a2,0
    800003e8:	36d51a63          	bne	a0,a3,8000075c <fail>
    800003ec:	36c59863          	bne	a1,a2,8000075c <fail>

00000000800003f0 <test_27>:
    800003f0:	01b00193          	li	gp,27
    800003f4:	00002517          	auipc	a0,0x2
    800003f8:	d5c50513          	addi	a0,a0,-676 # 80002150 <test_27_data>
    800003fc:	00052007          	flw	ft0,0(a0)
    80000400:	00452087          	flw	ft1,4(a0)
    80000404:	00852107          	flw	ft2,8(a0)
    80000408:	00c52683          	lw	a3,12(a0)
    8000040c:	c0201553          	fcvt.l.s	a0,ft0,rtz
    80000410:	001015f3          	fsflags	a1,zero
    80000414:	00100613          	li	a2,1
    80000418:	34d51263          	bne	a0,a3,8000075c <fail>
    8000041c:	34c59063          	bne	a1,a2,8000075c <fail>

0000000080000420 <test_32>:
    80000420:	02000193          	li	gp,32
    80000424:	00002517          	auipc	a0,0x2
    80000428:	d3c50513          	addi	a0,a0,-708 # 80002160 <test_32_data>
    8000042c:	00052007          	flw	ft0,0(a0)
    80000430:	00452087          	flw	ft1,4(a0)
    80000434:	00852107          	flw	ft2,8(a0)
    80000438:	00c52683          	lw	a3,12(a0)
    8000043c:	c0301553          	fcvt.lu.s	a0,ft0,rtz
    80000440:	001015f3          	fsflags	a1,zero
    80000444:	01000613          	li	a2,16
    80000448:	30d51a63          	bne	a0,a3,8000075c <fail>
    8000044c:	30c59863          	bne	a1,a2,8000075c <fail>

0000000080000450 <test_33>:
    80000450:	02100193          	li	gp,33
    80000454:	00002517          	auipc	a0,0x2
    80000458:	d1c50513          	addi	a0,a0,-740 # 80002170 <test_33_data>
    8000045c:	00052007          	flw	ft0,0(a0)
    80000460:	00452087          	flw	ft1,4(a0)
    80000464:	00852107          	flw	ft2,8(a0)
    80000468:	00c52683          	lw	a3,12(a0)
    8000046c:	c0301553          	fcvt.lu.s	a0,ft0,rtz
    80000470:	001015f3          	fsflags	a1,zero
    80000474:	01000613          	li	a2,16
    80000478:	2ed51263          	bne	a0,a3,8000075c <fail>
    8000047c:	2ec59063          	bne	a1,a2,8000075c <fail>

0000000080000480 <test_34>:
    80000480:	02200193          	li	gp,34
    80000484:	00002517          	auipc	a0,0x2
    80000488:	cfc50513          	addi	a0,a0,-772 # 80002180 <test_34_data>
    8000048c:	00052007          	flw	ft0,0(a0)
    80000490:	00452087          	flw	ft1,4(a0)
    80000494:	00852107          	flw	ft2,8(a0)
    80000498:	00c52683          	lw	a3,12(a0)
    8000049c:	c0301553          	fcvt.lu.s	a0,ft0,rtz
    800004a0:	001015f3          	fsflags	a1,zero
    800004a4:	00100613          	li	a2,1
    800004a8:	2ad51a63          	bne	a0,a3,8000075c <fail>
    800004ac:	2ac59863          	bne	a1,a2,8000075c <fail>

00000000800004b0 <test_35>:
    800004b0:	02300193          	li	gp,35
    800004b4:	00002517          	auipc	a0,0x2
    800004b8:	cdc50513          	addi	a0,a0,-804 # 80002190 <test_35_data>
    800004bc:	00052007          	flw	ft0,0(a0)
    800004c0:	00452087          	flw	ft1,4(a0)
    800004c4:	00852107          	flw	ft2,8(a0)
    800004c8:	00c52683          	lw	a3,12(a0)
    800004cc:	c0301553          	fcvt.lu.s	a0,ft0,rtz
    800004d0:	001015f3          	fsflags	a1,zero
    800004d4:	00100613          	li	a2,1
    800004d8:	28d51263          	bne	a0,a3,8000075c <fail>
    800004dc:	28c59063          	bne	a1,a2,8000075c <fail>

00000000800004e0 <test_36>:
    800004e0:	02400193          	li	gp,36
    800004e4:	00002517          	auipc	a0,0x2
    800004e8:	cbc50513          	addi	a0,a0,-836 # 800021a0 <test_36_data>
    800004ec:	00052007          	flw	ft0,0(a0)
    800004f0:	00452087          	flw	ft1,4(a0)
    800004f4:	00852107          	flw	ft2,8(a0)
    800004f8:	00c52683          	lw	a3,12(a0)
    800004fc:	c0301553          	fcvt.lu.s	a0,ft0,rtz
    80000500:	001015f3          	fsflags	a1,zero
    80000504:	00000613          	li	a2,0
    80000508:	24d51a63          	bne	a0,a3,8000075c <fail>
    8000050c:	24c59863          	bne	a1,a2,8000075c <fail>

0000000080000510 <test_37>:
    80000510:	02500193          	li	gp,37
    80000514:	00002517          	auipc	a0,0x2
    80000518:	c9c50513          	addi	a0,a0,-868 # 800021b0 <test_37_data>
    8000051c:	00052007          	flw	ft0,0(a0)
    80000520:	00452087          	flw	ft1,4(a0)
    80000524:	00852107          	flw	ft2,8(a0)
    80000528:	00c52683          	lw	a3,12(a0)
    8000052c:	c0301553          	fcvt.lu.s	a0,ft0,rtz
    80000530:	001015f3          	fsflags	a1,zero
    80000534:	00100613          	li	a2,1
    80000538:	22d51263          	bne	a0,a3,8000075c <fail>
    8000053c:	22c59063          	bne	a1,a2,8000075c <fail>

0000000080000540 <test_38>:
    80000540:	02600193          	li	gp,38
    80000544:	00002517          	auipc	a0,0x2
    80000548:	c7c50513          	addi	a0,a0,-900 # 800021c0 <test_38_data>
    8000054c:	00052007          	flw	ft0,0(a0)
    80000550:	00452087          	flw	ft1,4(a0)
    80000554:	00852107          	flw	ft2,8(a0)
    80000558:	00c52683          	lw	a3,12(a0)
    8000055c:	c0301553          	fcvt.lu.s	a0,ft0,rtz
    80000560:	001015f3          	fsflags	a1,zero
    80000564:	01000613          	li	a2,16
    80000568:	1ed51a63          	bne	a0,a3,8000075c <fail>
    8000056c:	1ec59863          	bne	a1,a2,8000075c <fail>

0000000080000570 <test_42>:
    80000570:	00002097          	auipc	ra,0x2
    80000574:	c6008093          	addi	ra,ra,-928 # 800021d0 <begin_signature>
    80000578:	0000a087          	flw	ft1,0(ra)
    8000057c:	c000f0d3          	fcvt.w.s	ra,ft1
    80000580:	800003b7          	lui	t2,0x80000
    80000584:	fff3839b          	addiw	t2,t2,-1
    80000588:	02a00193          	li	gp,42
    8000058c:	1c709863          	bne	ra,t2,8000075c <fail>

0000000080000590 <test_44>:
    80000590:	00002097          	auipc	ra,0x2
    80000594:	c4008093          	addi	ra,ra,-960 # 800021d0 <begin_signature>
    80000598:	0080a087          	flw	ft1,8(ra)
    8000059c:	c000f0d3          	fcvt.w.s	ra,ft1
    800005a0:	800003b7          	lui	t2,0x80000
    800005a4:	02c00193          	li	gp,44
    800005a8:	1a709a63          	bne	ra,t2,8000075c <fail>

00000000800005ac <test_43>:
    800005ac:	00002097          	auipc	ra,0x2
    800005b0:	c2408093          	addi	ra,ra,-988 # 800021d0 <begin_signature>
    800005b4:	0000a087          	flw	ft1,0(ra)
    800005b8:	c020f0d3          	fcvt.l.s	ra,ft1
    800005bc:	fff0039b          	addiw	t2,zero,-1
    800005c0:	03f39393          	slli	t2,t2,0x3f
    800005c4:	fff38393          	addi	t2,t2,-1 # ffffffff7fffffff <_end+0xfffffffeffffddff>
    800005c8:	02b00193          	li	gp,43
    800005cc:	18709863          	bne	ra,t2,8000075c <fail>

00000000800005d0 <test_45>:
    800005d0:	00002097          	auipc	ra,0x2
    800005d4:	c0008093          	addi	ra,ra,-1024 # 800021d0 <begin_signature>
    800005d8:	0080a087          	flw	ft1,8(ra)
    800005dc:	c020f0d3          	fcvt.l.s	ra,ft1
    800005e0:	fff0039b          	addiw	t2,zero,-1
    800005e4:	03f39393          	slli	t2,t2,0x3f
    800005e8:	02d00193          	li	gp,45
    800005ec:	16709863          	bne	ra,t2,8000075c <fail>

00000000800005f0 <test_52>:
    800005f0:	00002097          	auipc	ra,0x2
    800005f4:	be008093          	addi	ra,ra,-1056 # 800021d0 <begin_signature>
    800005f8:	0040a087          	flw	ft1,4(ra)
    800005fc:	c000f0d3          	fcvt.w.s	ra,ft1
    80000600:	800003b7          	lui	t2,0x80000
    80000604:	fff3839b          	addiw	t2,t2,-1
    80000608:	03400193          	li	gp,52
    8000060c:	14709863          	bne	ra,t2,8000075c <fail>

0000000080000610 <test_54>:
    80000610:	00002097          	auipc	ra,0x2
    80000614:	bc008093          	addi	ra,ra,-1088 # 800021d0 <begin_signature>
    80000618:	00c0a087          	flw	ft1,12(ra)
    8000061c:	c000f0d3          	fcvt.w.s	ra,ft1
    80000620:	800003b7          	lui	t2,0x80000
    80000624:	fff3839b          	addiw	t2,t2,-1
    80000628:	03600193          	li	gp,54
    8000062c:	12709863          	bne	ra,t2,8000075c <fail>

0000000080000630 <test_53>:
    80000630:	00002097          	auipc	ra,0x2
    80000634:	ba008093          	addi	ra,ra,-1120 # 800021d0 <begin_signature>
    80000638:	0040a087          	flw	ft1,4(ra)
    8000063c:	c020f0d3          	fcvt.l.s	ra,ft1
    80000640:	fff0039b          	addiw	t2,zero,-1
    80000644:	03f39393          	slli	t2,t2,0x3f
    80000648:	fff38393          	addi	t2,t2,-1 # ffffffff7fffffff <_end+0xfffffffeffffddff>
    8000064c:	03500193          	li	gp,53
    80000650:	10709663          	bne	ra,t2,8000075c <fail>

0000000080000654 <test_55>:
    80000654:	00002097          	auipc	ra,0x2
    80000658:	b7c08093          	addi	ra,ra,-1156 # 800021d0 <begin_signature>
    8000065c:	00c0a087          	flw	ft1,12(ra)
    80000660:	c020f0d3          	fcvt.l.s	ra,ft1
    80000664:	fff0039b          	addiw	t2,zero,-1
    80000668:	03f39393          	slli	t2,t2,0x3f
    8000066c:	fff38393          	addi	t2,t2,-1
    80000670:	03700193          	li	gp,55
    80000674:	0e709463          	bne	ra,t2,8000075c <fail>

0000000080000678 <test_62>:
    80000678:	00002097          	auipc	ra,0x2
    8000067c:	b5808093          	addi	ra,ra,-1192 # 800021d0 <begin_signature>
    80000680:	0000a087          	flw	ft1,0(ra)
    80000684:	c010f0d3          	fcvt.wu.s	ra,ft1
    80000688:	fff00393          	li	t2,-1
    8000068c:	03e00193          	li	gp,62
    80000690:	0c709663          	bne	ra,t2,8000075c <fail>

0000000080000694 <test_63>:
    80000694:	00002097          	auipc	ra,0x2
    80000698:	b3c08093          	addi	ra,ra,-1220 # 800021d0 <begin_signature>
    8000069c:	0040a087          	flw	ft1,4(ra)
    800006a0:	c010f0d3          	fcvt.wu.s	ra,ft1
    800006a4:	fff00393          	li	t2,-1
    800006a8:	03f00193          	li	gp,63
    800006ac:	0a709863          	bne	ra,t2,8000075c <fail>

00000000800006b0 <test_64>:
    800006b0:	00002097          	auipc	ra,0x2
    800006b4:	b2008093          	addi	ra,ra,-1248 # 800021d0 <begin_signature>
    800006b8:	0080a087          	flw	ft1,8(ra)
    800006bc:	c010f0d3          	fcvt.wu.s	ra,ft1
    800006c0:	00000393          	li	t2,0
    800006c4:	04000193          	li	gp,64
    800006c8:	08709a63          	bne	ra,t2,8000075c <fail>

00000000800006cc <test_65>:
    800006cc:	00002097          	auipc	ra,0x2
    800006d0:	b0408093          	addi	ra,ra,-1276 # 800021d0 <begin_signature>
    800006d4:	00c0a087          	flw	ft1,12(ra)
    800006d8:	c010f0d3          	fcvt.wu.s	ra,ft1
    800006dc:	fff00393          	li	t2,-1
    800006e0:	04100193          	li	gp,65
    800006e4:	06709c63          	bne	ra,t2,8000075c <fail>

00000000800006e8 <test_66>:
    800006e8:	00002097          	auipc	ra,0x2
    800006ec:	ae808093          	addi	ra,ra,-1304 # 800021d0 <begin_signature>
    800006f0:	0000a087          	flw	ft1,0(ra)
    800006f4:	c030f0d3          	fcvt.lu.s	ra,ft1
    800006f8:	fff00393          	li	t2,-1
    800006fc:	04200193          	li	gp,66
    80000700:	04709e63          	bne	ra,t2,8000075c <fail>

0000000080000704 <test_67>:
    80000704:	00002097          	auipc	ra,0x2
    80000708:	acc08093          	addi	ra,ra,-1332 # 800021d0 <begin_signature>
    8000070c:	0040a087          	flw	ft1,4(ra)
    80000710:	c030f0d3          	fcvt.lu.s	ra,ft1
    80000714:	fff00393          	li	t2,-1
    80000718:	04300193          	li	gp,67
    8000071c:	04709063          	bne	ra,t2,8000075c <fail>

0000000080000720 <test_68>:
    80000720:	00002097          	auipc	ra,0x2
    80000724:	ab008093          	addi	ra,ra,-1360 # 800021d0 <begin_signature>
    80000728:	0080a087          	flw	ft1,8(ra)
    8000072c:	c030f0d3          	fcvt.lu.s	ra,ft1
    80000730:	00000393          	li	t2,0
    80000734:	04400193          	li	gp,68
    80000738:	02709263          	bne	ra,t2,8000075c <fail>

000000008000073c <test_69>:
    8000073c:	00002097          	auipc	ra,0x2
    80000740:	a9408093          	addi	ra,ra,-1388 # 800021d0 <begin_signature>
    80000744:	00c0a087          	flw	ft1,12(ra)
    80000748:	c030f0d3          	fcvt.lu.s	ra,ft1
    8000074c:	fff00393          	li	t2,-1
    80000750:	04500193          	li	gp,69
    80000754:	00709463          	bne	ra,t2,8000075c <fail>
    80000758:	00301663          	bne	zero,gp,80000764 <pass>

000000008000075c <fail>:
    8000075c:	00100513          	li	a0,1
    80000760:	00c0006f          	j	8000076c <halt>

0000000080000764 <pass>:
    80000764:	00000513          	li	a0,0
    80000768:	0040006f          	j	8000076c <halt>

000000008000076c <halt>:
    8000076c:	0000006f          	j	8000076c <halt>
    80000770:	0000                	unimp
    80000772:	0000                	unimp
    80000774:	0000                	unimp
    80000776:	0000                	unimp
    80000778:	0000                	unimp
    8000077a:	0000                	unimp
    8000077c:	0000                	unimp
    8000077e:	0000                	unimp
    80000780:	0000                	unimp
    80000782:	0000                	unimp
