
rv64uf-p-move:     file format elf64-littleriscv


Disassembly of section .text.init:

0000000080000000 <_start>:
    80000000:	0030d073          	csrwi	fcsr,1
    80000004:	00001537          	lui	a0,0x1
    80000008:	2345051b          	addiw	a0,a0,564
    8000000c:	003515f3          	fscsr	a1,a0
    80000010:	00100393          	li	t2,1
    80000014:	00200193          	li	gp,2
    80000018:	2a759463          	bne	a1,t2,800002c0 <fail>

000000008000001c <test_3>:
    8000001c:	00302573          	frcsr	a0
    80000020:	03400393          	li	t2,52
    80000024:	00300193          	li	gp,3
    80000028:	28751c63          	bne	a0,t2,800002c0 <fail>

000000008000002c <test_4>:
    8000002c:	00102573          	frflags	a0
    80000030:	01400393          	li	t2,20
    80000034:	00400193          	li	gp,4
    80000038:	28751463          	bne	a0,t2,800002c0 <fail>

000000008000003c <test_5>:
    8000003c:	00215573          	fsrmi	a0,2
    80000040:	00100393          	li	t2,1
    80000044:	00500193          	li	gp,5
    80000048:	26751c63          	bne	a0,t2,800002c0 <fail>

000000008000004c <test_6>:
    8000004c:	00302573          	frcsr	a0
    80000050:	05400393          	li	t2,84
    80000054:	00600193          	li	gp,6
    80000058:	26751463          	bne	a0,t2,800002c0 <fail>

000000008000005c <test_7>:
    8000005c:	00127573          	csrrci	a0,fflags,4
    80000060:	01400393          	li	t2,20
    80000064:	00700193          	li	gp,7
    80000068:	24751c63          	bne	a0,t2,800002c0 <fail>

000000008000006c <test_8>:
    8000006c:	00302573          	frcsr	a0
    80000070:	05000393          	li	t2,80
    80000074:	00800193          	li	gp,8
    80000078:	24751463          	bne	a0,t2,800002c0 <fail>

000000008000007c <test_10>:
    8000007c:	123455b7          	lui	a1,0x12345
    80000080:	6785859b          	addiw	a1,a1,1656
    80000084:	00000613          	li	a2,0
    80000088:	f00580d3          	fmv.w.x	ft1,a1
    8000008c:	f0060153          	fmv.w.x	ft2,a2
    80000090:	20208053          	fsgnj.s	ft0,ft1,ft2
    80000094:	e0000553          	fmv.x.w	a0,ft0
    80000098:	123453b7          	lui	t2,0x12345
    8000009c:	6783839b          	addiw	t2,t2,1656
    800000a0:	00a00193          	li	gp,10
    800000a4:	20751e63          	bne	a0,t2,800002c0 <fail>

00000000800000a8 <test_11>:
    800000a8:	123455b7          	lui	a1,0x12345
    800000ac:	6785859b          	addiw	a1,a1,1656
    800000b0:	fff00613          	li	a2,-1
    800000b4:	f00580d3          	fmv.w.x	ft1,a1
    800000b8:	f0060153          	fmv.w.x	ft2,a2
    800000bc:	20208053          	fsgnj.s	ft0,ft1,ft2
    800000c0:	e0000553          	fmv.x.w	a0,ft0
    800000c4:	923453b7          	lui	t2,0x92345
    800000c8:	6783839b          	addiw	t2,t2,1656
    800000cc:	00b00193          	li	gp,11
    800000d0:	1e751863          	bne	a0,t2,800002c0 <fail>

00000000800000d4 <test_12>:
    800000d4:	000925b7          	lui	a1,0x92
    800000d8:	3455859b          	addiw	a1,a1,837
    800000dc:	00c59593          	slli	a1,a1,0xc
    800000e0:	67858593          	addi	a1,a1,1656 # 92678 <_start-0x7ff6d988>
    800000e4:	00000613          	li	a2,0
    800000e8:	f00580d3          	fmv.w.x	ft1,a1
    800000ec:	f0060153          	fmv.w.x	ft2,a2
    800000f0:	20208053          	fsgnj.s	ft0,ft1,ft2
    800000f4:	e0000553          	fmv.x.w	a0,ft0
    800000f8:	123453b7          	lui	t2,0x12345
    800000fc:	6783839b          	addiw	t2,t2,1656
    80000100:	00c00193          	li	gp,12
    80000104:	1a751e63          	bne	a0,t2,800002c0 <fail>

0000000080000108 <test_13>:
    80000108:	000925b7          	lui	a1,0x92
    8000010c:	3455859b          	addiw	a1,a1,837
    80000110:	00c59593          	slli	a1,a1,0xc
    80000114:	67858593          	addi	a1,a1,1656 # 92678 <_start-0x7ff6d988>
    80000118:	fff00613          	li	a2,-1
    8000011c:	f00580d3          	fmv.w.x	ft1,a1
    80000120:	f0060153          	fmv.w.x	ft2,a2
    80000124:	20208053          	fsgnj.s	ft0,ft1,ft2
    80000128:	e0000553          	fmv.x.w	a0,ft0
    8000012c:	923453b7          	lui	t2,0x92345
    80000130:	6783839b          	addiw	t2,t2,1656
    80000134:	00d00193          	li	gp,13
    80000138:	18751463          	bne	a0,t2,800002c0 <fail>

000000008000013c <test_20>:
    8000013c:	123455b7          	lui	a1,0x12345
    80000140:	6785859b          	addiw	a1,a1,1656
    80000144:	00000613          	li	a2,0
    80000148:	f00580d3          	fmv.w.x	ft1,a1
    8000014c:	f0060153          	fmv.w.x	ft2,a2
    80000150:	20209053          	fsgnjn.s	ft0,ft1,ft2
    80000154:	e0000553          	fmv.x.w	a0,ft0
    80000158:	923453b7          	lui	t2,0x92345
    8000015c:	6783839b          	addiw	t2,t2,1656
    80000160:	01400193          	li	gp,20
    80000164:	14751e63          	bne	a0,t2,800002c0 <fail>

0000000080000168 <test_21>:
    80000168:	123455b7          	lui	a1,0x12345
    8000016c:	6785859b          	addiw	a1,a1,1656
    80000170:	fff00613          	li	a2,-1
    80000174:	f00580d3          	fmv.w.x	ft1,a1
    80000178:	f0060153          	fmv.w.x	ft2,a2
    8000017c:	20209053          	fsgnjn.s	ft0,ft1,ft2
    80000180:	e0000553          	fmv.x.w	a0,ft0
    80000184:	123453b7          	lui	t2,0x12345
    80000188:	6783839b          	addiw	t2,t2,1656
    8000018c:	01500193          	li	gp,21
    80000190:	12751863          	bne	a0,t2,800002c0 <fail>

0000000080000194 <test_22>:
    80000194:	000925b7          	lui	a1,0x92
    80000198:	3455859b          	addiw	a1,a1,837
    8000019c:	00c59593          	slli	a1,a1,0xc
    800001a0:	67858593          	addi	a1,a1,1656 # 92678 <_start-0x7ff6d988>
    800001a4:	00000613          	li	a2,0
    800001a8:	f00580d3          	fmv.w.x	ft1,a1
    800001ac:	f0060153          	fmv.w.x	ft2,a2
    800001b0:	20209053          	fsgnjn.s	ft0,ft1,ft2
    800001b4:	e0000553          	fmv.x.w	a0,ft0
    800001b8:	923453b7          	lui	t2,0x92345
    800001bc:	6783839b          	addiw	t2,t2,1656
    800001c0:	01600193          	li	gp,22
    800001c4:	0e751e63          	bne	a0,t2,800002c0 <fail>

00000000800001c8 <test_23>:
    800001c8:	000925b7          	lui	a1,0x92
    800001cc:	3455859b          	addiw	a1,a1,837
    800001d0:	00c59593          	slli	a1,a1,0xc
    800001d4:	67858593          	addi	a1,a1,1656 # 92678 <_start-0x7ff6d988>
    800001d8:	fff00613          	li	a2,-1
    800001dc:	f00580d3          	fmv.w.x	ft1,a1
    800001e0:	f0060153          	fmv.w.x	ft2,a2
    800001e4:	20209053          	fsgnjn.s	ft0,ft1,ft2
    800001e8:	e0000553          	fmv.x.w	a0,ft0
    800001ec:	123453b7          	lui	t2,0x12345
    800001f0:	6783839b          	addiw	t2,t2,1656
    800001f4:	01700193          	li	gp,23
    800001f8:	0c751463          	bne	a0,t2,800002c0 <fail>

00000000800001fc <test_30>:
    800001fc:	123455b7          	lui	a1,0x12345
    80000200:	6785859b          	addiw	a1,a1,1656
    80000204:	00000613          	li	a2,0
    80000208:	f00580d3          	fmv.w.x	ft1,a1
    8000020c:	f0060153          	fmv.w.x	ft2,a2
    80000210:	2020a053          	fsgnjx.s	ft0,ft1,ft2
    80000214:	e0000553          	fmv.x.w	a0,ft0
    80000218:	123453b7          	lui	t2,0x12345
    8000021c:	6783839b          	addiw	t2,t2,1656
    80000220:	01e00193          	li	gp,30
    80000224:	08751e63          	bne	a0,t2,800002c0 <fail>

0000000080000228 <test_31>:
    80000228:	123455b7          	lui	a1,0x12345
    8000022c:	6785859b          	addiw	a1,a1,1656
    80000230:	fff00613          	li	a2,-1
    80000234:	f00580d3          	fmv.w.x	ft1,a1
    80000238:	f0060153          	fmv.w.x	ft2,a2
    8000023c:	2020a053          	fsgnjx.s	ft0,ft1,ft2
    80000240:	e0000553          	fmv.x.w	a0,ft0
    80000244:	923453b7          	lui	t2,0x92345
    80000248:	6783839b          	addiw	t2,t2,1656
    8000024c:	01f00193          	li	gp,31
    80000250:	06751863          	bne	a0,t2,800002c0 <fail>

0000000080000254 <test_32>:
    80000254:	000925b7          	lui	a1,0x92
    80000258:	3455859b          	addiw	a1,a1,837
    8000025c:	00c59593          	slli	a1,a1,0xc
    80000260:	67858593          	addi	a1,a1,1656 # 92678 <_start-0x7ff6d988>
    80000264:	00000613          	li	a2,0
    80000268:	f00580d3          	fmv.w.x	ft1,a1
    8000026c:	f0060153          	fmv.w.x	ft2,a2
    80000270:	2020a053          	fsgnjx.s	ft0,ft1,ft2
    80000274:	e0000553          	fmv.x.w	a0,ft0
    80000278:	923453b7          	lui	t2,0x92345
    8000027c:	6783839b          	addiw	t2,t2,1656
    80000280:	02000193          	li	gp,32
    80000284:	02751e63          	bne	a0,t2,800002c0 <fail>

0000000080000288 <test_33>:
    80000288:	000925b7          	lui	a1,0x92
    8000028c:	3455859b          	addiw	a1,a1,837
    80000290:	00c59593          	slli	a1,a1,0xc
    80000294:	67858593          	addi	a1,a1,1656 # 92678 <_start-0x7ff6d988>
    80000298:	fff00613          	li	a2,-1
    8000029c:	f00580d3          	fmv.w.x	ft1,a1
    800002a0:	f0060153          	fmv.w.x	ft2,a2
    800002a4:	2020a053          	fsgnjx.s	ft0,ft1,ft2
    800002a8:	e0000553          	fmv.x.w	a0,ft0
    800002ac:	123453b7          	lui	t2,0x12345
    800002b0:	6783839b          	addiw	t2,t2,1656
    800002b4:	02100193          	li	gp,33
    800002b8:	00751463          	bne	a0,t2,800002c0 <fail>
    800002bc:	00301663          	bne	zero,gp,800002c8 <pass>

00000000800002c0 <fail>:
    800002c0:	00100513          	li	a0,1
    800002c4:	00c0006f          	j	800002d0 <halt>

00000000800002c8 <pass>:
    800002c8:	00000513          	li	a0,0
    800002cc:	0040006f          	j	800002d0 <halt>

00000000800002d0 <halt>:
    800002d0:	0000006f          	j	800002d0 <halt>
    800002d4:	0000                	unimp
    800002d6:	0000                	unimp
    800002d8:	0000                	unimp
    800002da:	0000                	unimp
    800002dc:	0000                	unimp
    800002de:	0000                	unimp
    800002e0:	0000                	unimp
    800002e2:	0000                	unimp
    800002e4:	0000                	unimp
    800002e6:	0000                	unimp
    800002e8:	0000                	unimp
    800002ea:	0000                	unimp
    800002ec:	0000                	unimp
    800002ee:	0000                	unimp
    800002f0:	0000                	unimp
    800002f2:	0000                	unimp
    800002f4:	0000                	unimp
    800002f6:	0000                	unimp
    800002f8:	0000                	unimp
    800002fa:	0000                	unimp
    800002fc:	0000                	unimp
    800002fe:	0000                	unimp
    80000300:	0000                	unimp
    80000302:	0000                	unimp
