
rv32uzbs-p-binvi:     file format elf32-littleriscv


Disassembly of section .text.init:

80000000 <_start>:
80000000:	00200193          	li	gp,2
80000004:	00100693          	li	a3,1
80000008:	68069713          	0x68069713
8000000c:	00000393          	li	t2,0
80000010:	28771e63          	bne	a4,t2,800002ac <fail>

80000014 <test_3>:
80000014:	00300193          	li	gp,3
80000018:	00100693          	li	a3,1
8000001c:	68169713          	0x68169713
80000020:	00300393          	li	t2,3
80000024:	28771463          	bne	a4,t2,800002ac <fail>

80000028 <test_4>:
80000028:	00400193          	li	gp,4
8000002c:	00100693          	li	a3,1
80000030:	68769713          	0x68769713
80000034:	08100393          	li	t2,129
80000038:	26771a63          	bne	a4,t2,800002ac <fail>

8000003c <test_5>:
8000003c:	00500193          	li	gp,5
80000040:	00100693          	li	a3,1
80000044:	68e69713          	0x68e69713
80000048:	000043b7          	lui	t2,0x4
8000004c:	00138393          	addi	t2,t2,1 # 4001 <_start-0x7fffbfff>
80000050:	24771e63          	bne	a4,t2,800002ac <fail>

80000054 <test_6>:
80000054:	00600193          	li	gp,6
80000058:	00100693          	li	a3,1
8000005c:	69f69713          	0x69f69713
80000060:	800003b7          	lui	t2,0x80000
80000064:	00138393          	addi	t2,t2,1 # 80000001 <_end+0xffffe001>
80000068:	24771263          	bne	a4,t2,800002ac <fail>

8000006c <test_7>:
8000006c:	00700193          	li	gp,7
80000070:	fff00693          	li	a3,-1
80000074:	68069713          	0x68069713
80000078:	ffe00393          	li	t2,-2
8000007c:	22771863          	bne	a4,t2,800002ac <fail>

80000080 <test_8>:
80000080:	00800193          	li	gp,8
80000084:	fff00693          	li	a3,-1
80000088:	68169713          	0x68169713
8000008c:	ffd00393          	li	t2,-3
80000090:	20771e63          	bne	a4,t2,800002ac <fail>

80000094 <test_9>:
80000094:	00900193          	li	gp,9
80000098:	fff00693          	li	a3,-1
8000009c:	68769713          	0x68769713
800000a0:	f7f00393          	li	t2,-129
800000a4:	20771463          	bne	a4,t2,800002ac <fail>

800000a8 <test_10>:
800000a8:	00a00193          	li	gp,10
800000ac:	fff00693          	li	a3,-1
800000b0:	68e69713          	0x68e69713
800000b4:	ffffc3b7          	lui	t2,0xffffc
800000b8:	fff38393          	addi	t2,t2,-1 # ffffbfff <_end+0x7fff9fff>
800000bc:	1e771863          	bne	a4,t2,800002ac <fail>

800000c0 <test_11>:
800000c0:	00b00193          	li	gp,11
800000c4:	fff00693          	li	a3,-1
800000c8:	69f69713          	0x69f69713
800000cc:	800003b7          	lui	t2,0x80000
800000d0:	fff38393          	addi	t2,t2,-1 # 7fffffff <_end+0xffffdfff>
800000d4:	1c771c63          	bne	a4,t2,800002ac <fail>

800000d8 <test_12>:
800000d8:	00c00193          	li	gp,12
800000dc:	212126b7          	lui	a3,0x21212
800000e0:	12168693          	addi	a3,a3,289 # 21212121 <_start-0x5edededf>
800000e4:	68069713          	0x68069713
800000e8:	212123b7          	lui	t2,0x21212
800000ec:	12038393          	addi	t2,t2,288 # 21212120 <_start-0x5ededee0>
800000f0:	1a771e63          	bne	a4,t2,800002ac <fail>

800000f4 <test_13>:
800000f4:	00d00193          	li	gp,13
800000f8:	212126b7          	lui	a3,0x21212
800000fc:	12168693          	addi	a3,a3,289 # 21212121 <_start-0x5edededf>
80000100:	68169713          	0x68169713
80000104:	212123b7          	lui	t2,0x21212
80000108:	12338393          	addi	t2,t2,291 # 21212123 <_start-0x5edededd>
8000010c:	1a771063          	bne	a4,t2,800002ac <fail>

80000110 <test_14>:
80000110:	00e00193          	li	gp,14
80000114:	212126b7          	lui	a3,0x21212
80000118:	12168693          	addi	a3,a3,289 # 21212121 <_start-0x5edededf>
8000011c:	68769713          	0x68769713
80000120:	212123b7          	lui	t2,0x21212
80000124:	1a138393          	addi	t2,t2,417 # 212121a1 <_start-0x5edede5f>
80000128:	18771263          	bne	a4,t2,800002ac <fail>

8000012c <test_15>:
8000012c:	00f00193          	li	gp,15
80000130:	212126b7          	lui	a3,0x21212
80000134:	12168693          	addi	a3,a3,289 # 21212121 <_start-0x5edededf>
80000138:	68e69713          	0x68e69713
8000013c:	212163b7          	lui	t2,0x21216
80000140:	12138393          	addi	t2,t2,289 # 21216121 <_start-0x5ede9edf>
80000144:	16771463          	bne	a4,t2,800002ac <fail>

80000148 <test_16>:
80000148:	01000193          	li	gp,16
8000014c:	212126b7          	lui	a3,0x21212
80000150:	12168693          	addi	a3,a3,289 # 21212121 <_start-0x5edededf>
80000154:	69f69713          	0x69f69713
80000158:	a12123b7          	lui	t2,0xa1212
8000015c:	12138393          	addi	t2,t2,289 # a1212121 <_end+0x21210121>
80000160:	14771663          	bne	a4,t2,800002ac <fail>

80000164 <test_17>:
80000164:	01100193          	li	gp,17
80000168:	00100593          	li	a1,1
8000016c:	68759593          	0x68759593
80000170:	08100393          	li	t2,129
80000174:	12759c63          	bne	a1,t2,800002ac <fail>

80000178 <test_18>:
80000178:	01200193          	li	gp,18
8000017c:	00000213          	li	tp,0
80000180:	00100093          	li	ra,1
80000184:	68709713          	0x68709713
80000188:	00070313          	mv	t1,a4
8000018c:	00120213          	addi	tp,tp,1 # 1 <_start-0x7fffffff>
80000190:	00200293          	li	t0,2
80000194:	fe5216e3          	bne	tp,t0,80000180 <test_18+0x8>
80000198:	08100393          	li	t2,129
8000019c:	10731863          	bne	t1,t2,800002ac <fail>

800001a0 <test_19>:
800001a0:	01300193          	li	gp,19
800001a4:	00000213          	li	tp,0
800001a8:	00100093          	li	ra,1
800001ac:	68e09713          	0x68e09713
800001b0:	00000013          	nop
800001b4:	00070313          	mv	t1,a4
800001b8:	00120213          	addi	tp,tp,1 # 1 <_start-0x7fffffff>
800001bc:	00200293          	li	t0,2
800001c0:	fe5214e3          	bne	tp,t0,800001a8 <test_19+0x8>
800001c4:	000043b7          	lui	t2,0x4
800001c8:	00138393          	addi	t2,t2,1 # 4001 <_start-0x7fffbfff>
800001cc:	0e731063          	bne	t1,t2,800002ac <fail>

800001d0 <test_20>:
800001d0:	01400193          	li	gp,20
800001d4:	00000213          	li	tp,0
800001d8:	00100093          	li	ra,1
800001dc:	69f09713          	0x69f09713
800001e0:	00000013          	nop
800001e4:	00000013          	nop
800001e8:	00070313          	mv	t1,a4
800001ec:	00120213          	addi	tp,tp,1 # 1 <_start-0x7fffffff>
800001f0:	00200293          	li	t0,2
800001f4:	fe5212e3          	bne	tp,t0,800001d8 <test_20+0x8>
800001f8:	800003b7          	lui	t2,0x80000
800001fc:	00138393          	addi	t2,t2,1 # 80000001 <_end+0xffffe001>
80000200:	0a731663          	bne	t1,t2,800002ac <fail>

80000204 <test_21>:
80000204:	01500193          	li	gp,21
80000208:	00000213          	li	tp,0
8000020c:	00100093          	li	ra,1
80000210:	68709713          	0x68709713
80000214:	00120213          	addi	tp,tp,1 # 1 <_start-0x7fffffff>
80000218:	00200293          	li	t0,2
8000021c:	fe5218e3          	bne	tp,t0,8000020c <test_21+0x8>
80000220:	08100393          	li	t2,129
80000224:	08771463          	bne	a4,t2,800002ac <fail>

80000228 <test_22>:
80000228:	01600193          	li	gp,22
8000022c:	00000213          	li	tp,0
80000230:	00100093          	li	ra,1
80000234:	00000013          	nop
80000238:	68e09713          	0x68e09713
8000023c:	00120213          	addi	tp,tp,1 # 1 <_start-0x7fffffff>
80000240:	00200293          	li	t0,2
80000244:	fe5216e3          	bne	tp,t0,80000230 <test_22+0x8>
80000248:	000043b7          	lui	t2,0x4
8000024c:	00138393          	addi	t2,t2,1 # 4001 <_start-0x7fffbfff>
80000250:	04771e63          	bne	a4,t2,800002ac <fail>

80000254 <test_23>:
80000254:	01700193          	li	gp,23
80000258:	00000213          	li	tp,0
8000025c:	00100093          	li	ra,1
80000260:	00000013          	nop
80000264:	00000013          	nop
80000268:	69f09713          	0x69f09713
8000026c:	00120213          	addi	tp,tp,1 # 1 <_start-0x7fffffff>
80000270:	00200293          	li	t0,2
80000274:	fe5214e3          	bne	tp,t0,8000025c <test_23+0x8>
80000278:	800003b7          	lui	t2,0x80000
8000027c:	00138393          	addi	t2,t2,1 # 80000001 <_end+0xffffe001>
80000280:	02771663          	bne	a4,t2,800002ac <fail>

80000284 <test_24>:
80000284:	01800193          	li	gp,24
80000288:	68f01093          	0x68f01093
8000028c:	000083b7          	lui	t2,0x8
80000290:	00709e63          	bne	ra,t2,800002ac <fail>

80000294 <test_25>:
80000294:	01900193          	li	gp,25
80000298:	40000093          	li	ra,1024
8000029c:	68a09013          	0x68a09013
800002a0:	00000393          	li	t2,0
800002a4:	00701463          	bne	zero,t2,800002ac <fail>
800002a8:	00301663          	bne	zero,gp,800002b4 <pass>

800002ac <fail>:
800002ac:	00100513          	li	a0,1
800002b0:	00c0006f          	j	800002bc <halt>

800002b4 <pass>:
800002b4:	00000513          	li	a0,0
800002b8:	0040006f          	j	800002bc <halt>

800002bc <halt>:
800002bc:	0000006f          	j	800002bc <halt>
800002c0:	0000                	unimp
800002c2:	0000                	unimp
