
rv64si-p-dirty:     file format elf64-littleriscv


Disassembly of section .text.init:

0000000080000000 <_start>:
    80000000:	fff0051b          	addiw	a0,zero,-1
    80000004:	03f51513          	slli	a0,a0,0x3f
    80000008:	00002597          	auipc	a1,0x2
    8000000c:	ff858593          	addi	a1,a1,-8 # 80002000 <begin_signature>
    80000010:	00c5d593          	srli	a1,a1,0xc
    80000014:	00a5e5b3          	or	a1,a1,a0
    80000018:	18059073          	csrw	satp,a1
    8000001c:	12000073          	sfence.vma
    80000020:	000215b7          	lui	a1,0x21
    80000024:	8005859b          	addiw	a1,a1,-2048
    80000028:	3005a073          	csrs	mstatus,a1
    8000002c:	00200193          	li	gp,2
    80000030:	00100393          	li	t2,1
    80000034:	80002517          	auipc	a0,0x80002
    80000038:	fc752a23          	sw	t2,-44(a0) # 2008 <_start-0x7fffdff8>
    8000003c:	00300193          	li	gp,3
    80000040:	000415b7          	lui	a1,0x41
    80000044:	8005859b          	addiw	a1,a1,-2048
    80000048:	3005a073          	csrs	mstatus,a1
    8000004c:	80002297          	auipc	t0,0x80002
    80000050:	fbc2a283          	lw	t0,-68(t0) # 2008 <_start-0x7fffdff8>
    80000054:	0e029663          	bnez	t0,80000140 <die>
    80000058:	80002517          	auipc	a0,0x80002
    8000005c:	fa752823          	sw	t2,-80(a0) # 2008 <_start-0x7fffdff8>
    80000060:	80002297          	auipc	t0,0x80002
    80000064:	fa82a283          	lw	t0,-88(t0) # 2008 <_start-0x7fffdff8>
    80000068:	0c729c63          	bne	t0,t2,80000140 <die>
    8000006c:	000202b7          	lui	t0,0x20
    80000070:	3002b073          	csrc	mstatus,t0
    80000074:	00002297          	auipc	t0,0x2
    80000078:	f8c2a283          	lw	t0,-116(t0) # 80002000 <begin_signature>
    8000007c:	0c000513          	li	a0,192
    80000080:	00a2f2b3          	and	t0,t0,a0
    80000084:	0aa29e63          	bne	t0,a0,80000140 <die>
    80000088:	000202b7          	lui	t0,0x20
    8000008c:	3002a073          	csrs	mstatus,t0
    80000090:	00400193          	li	gp,4
    80000094:	80002517          	auipc	a0,0x80002
    80000098:	f6c52503          	lw	a0,-148(a0) # 2000 <_start-0x7fffe000>
    8000009c:	40056513          	ori	a0,a0,1024
    800000a0:	80002297          	auipc	t0,0x80002
    800000a4:	f6a2a023          	sw	a0,-160(t0) # 2000 <_start-0x7fffe000>
    800000a8:	12000073          	sfence.vma
    800000ac:	80002297          	auipc	t0,0x80002
    800000b0:	f4a2aa23          	sw	a0,-172(t0) # 2000 <_start-0x7fffe000>
    800000b4:	08c0006f          	j	80000140 <die>
    800000b8:	00000513          	li	a0,0
    800000bc:	08c0006f          	j	80000148 <halt>
    800000c0:	00301663          	bne	zero,gp,800000cc <pass>

00000000800000c4 <fail>:
    800000c4:	00100513          	li	a0,1
    800000c8:	0800006f          	j	80000148 <halt>

00000000800000cc <pass>:
    800000cc:	00000513          	li	a0,0
    800000d0:	0780006f          	j	80000148 <halt>

00000000800000d4 <mtvec_handler>:
    800000d4:	342022f3          	csrr	t0,mcause
    800000d8:	ff128293          	addi	t0,t0,-15
    800000dc:	06029263          	bnez	t0,80000140 <die>
    800000e0:	00200313          	li	t1,2
    800000e4:	02619263          	bne	gp,t1,80000108 <skip+0x10>
    800000e8:	00002297          	auipc	t0,0x2
    800000ec:	f182a283          	lw	t0,-232(t0) # 80002000 <begin_signature>
    800000f0:	0802f313          	andi	t1,t0,128
    800000f4:	04031663          	bnez	t1,80000140 <die>

00000000800000f8 <skip>:
    800000f8:	341022f3          	csrr	t0,mepc
    800000fc:	00428293          	addi	t0,t0,4
    80000100:	34129073          	csrw	mepc,t0
    80000104:	30200073          	mret
    80000108:	00300313          	li	t1,3
    8000010c:	02619463          	bne	gp,t1,80000134 <skip+0x3c>
    80000110:	00002297          	auipc	t0,0x2
    80000114:	ef02a283          	lw	t0,-272(t0) # 80002000 <begin_signature>
    80000118:	0802f313          	andi	t1,t0,128
    8000011c:	02031263          	bnez	t1,80000140 <die>
    80000120:	0802e293          	ori	t0,t0,128
    80000124:	00002317          	auipc	t1,0x2
    80000128:	ec532e23          	sw	t0,-292(t1) # 80002000 <begin_signature>
    8000012c:	12000073          	sfence.vma
    80000130:	30200073          	mret
    80000134:	00400313          	li	t1,4
    80000138:	00619463          	bne	gp,t1,80000140 <die>
    8000013c:	f91ff06f          	j	800000cc <pass>

0000000080000140 <die>:
    80000140:	00100513          	li	a0,1
    80000144:	0040006f          	j	80000148 <halt>

0000000080000148 <halt>:
    80000148:	0000006f          	j	80000148 <halt>
    8000014c:	0000                	unimp
    8000014e:	0000                	unimp
    80000150:	0000                	unimp
    80000152:	0000                	unimp
    80000154:	0000                	unimp
    80000156:	0000                	unimp
    80000158:	0000                	unimp
    8000015a:	0000                	unimp
    8000015c:	0000                	unimp
    8000015e:	0000                	unimp
    80000160:	0000                	unimp
    80000162:	0000                	unimp
    80000164:	0000                	unimp
    80000166:	0000                	unimp
    80000168:	0000                	unimp
    8000016a:	0000                	unimp
    8000016c:	0000                	unimp
    8000016e:	0000                	unimp
    80000170:	0000                	unimp
    80000172:	0000                	unimp
    80000174:	0000                	unimp
    80000176:	0000                	unimp
    80000178:	0000                	unimp
    8000017a:	0000                	unimp
    8000017c:	0000                	unimp
    8000017e:	0000                	unimp
    80000180:	0000                	unimp
    80000182:	0000                	unimp
