
rv64si-p-csr:     file format elf64-littleriscv


Disassembly of section .text.init:

0000000080000000 <_start>:
    80000000:	0480006f          	j	80000048 <reset_vector>

0000000080000004 <trap_vector>:
    80000004:	34202f73          	csrr	t5,mcause
    80000008:	00800f93          	li	t6,8
    8000000c:	03ff0863          	beq	t5,t6,8000003c <write_tohost>
    80000010:	00900f93          	li	t6,9
    80000014:	03ff0463          	beq	t5,t6,8000003c <write_tohost>
    80000018:	00b00f93          	li	t6,11
    8000001c:	03ff0063          	beq	t5,t6,8000003c <write_tohost>
    80000020:	00000f13          	li	t5,0
    80000024:	000f0463          	beqz	t5,8000002c <trap_vector+0x28>
    80000028:	000f0067          	jr	t5
    8000002c:	34202f73          	csrr	t5,mcause
    80000030:	000f5463          	bgez	t5,80000038 <handle_exception>
    80000034:	0040006f          	j	80000038 <handle_exception>

0000000080000038 <handle_exception>:
    80000038:	5391e193          	ori	gp,gp,1337

000000008000003c <write_tohost>:
    8000003c:	00001f17          	auipc	t5,0x1
    80000040:	fc3f2223          	sw	gp,-60(t5) # 80001000 <tohost>
    80000044:	ff9ff06f          	j	8000003c <write_tohost>

0000000080000048 <reset_vector>:
    80000048:	00000093          	li	ra,0
    8000004c:	00000113          	li	sp,0
    80000050:	00000193          	li	gp,0
    80000054:	00000213          	li	tp,0
    80000058:	00000293          	li	t0,0
    8000005c:	00000313          	li	t1,0
    80000060:	00000393          	li	t2,0
    80000064:	00000413          	li	s0,0
    80000068:	00000493          	li	s1,0
    8000006c:	00000513          	li	a0,0
    80000070:	00000593          	li	a1,0
    80000074:	00000613          	li	a2,0
    80000078:	00000693          	li	a3,0
    8000007c:	00000713          	li	a4,0
    80000080:	00000793          	li	a5,0
    80000084:	00000813          	li	a6,0
    80000088:	00000893          	li	a7,0
    8000008c:	00000913          	li	s2,0
    80000090:	00000993          	li	s3,0
    80000094:	00000a13          	li	s4,0
    80000098:	00000a93          	li	s5,0
    8000009c:	00000b13          	li	s6,0
    800000a0:	00000b93          	li	s7,0
    800000a4:	00000c13          	li	s8,0
    800000a8:	00000c93          	li	s9,0
    800000ac:	00000d13          	li	s10,0
    800000b0:	00000d93          	li	s11,0
    800000b4:	00000e13          	li	t3,0
    800000b8:	00000e93          	li	t4,0
    800000bc:	00000f13          	li	t5,0
    800000c0:	00000f93          	li	t6,0
    800000c4:	f1402573          	csrr	a0,mhartid
    800000c8:	00051063          	bnez	a0,800000c8 <reset_vector+0x80>
    800000cc:	00000297          	auipc	t0,0x0
    800000d0:	01028293          	addi	t0,t0,16 # 800000dc <reset_vector+0x94>
    800000d4:	30529073          	csrw	mtvec,t0
    800000d8:	18005073          	csrwi	satp,0
    800000dc:	00000297          	auipc	t0,0x0
    800000e0:	02428293          	addi	t0,t0,36 # 80000100 <reset_vector+0xb8>
    800000e4:	30529073          	csrw	mtvec,t0
    800000e8:	0010029b          	addiw	t0,zero,1
    800000ec:	03529293          	slli	t0,t0,0x35
    800000f0:	fff28293          	addi	t0,t0,-1
    800000f4:	3b029073          	csrw	pmpaddr0,t0
    800000f8:	01f00293          	li	t0,31
    800000fc:	3a029073          	csrw	pmpcfg0,t0
    80000100:	30405073          	csrwi	mie,0
    80000104:	00000297          	auipc	t0,0x0
    80000108:	01428293          	addi	t0,t0,20 # 80000118 <reset_vector+0xd0>
    8000010c:	30529073          	csrw	mtvec,t0
    80000110:	30205073          	csrwi	medeleg,0
    80000114:	30305073          	csrwi	mideleg,0
    80000118:	00000193          	li	gp,0
    8000011c:	00000297          	auipc	t0,0x0
    80000120:	ee828293          	addi	t0,t0,-280 # 80000004 <trap_vector>
    80000124:	30529073          	csrw	mtvec,t0
    80000128:	00100513          	li	a0,1
    8000012c:	01f51513          	slli	a0,a0,0x1f
    80000130:	00055663          	bgez	a0,8000013c <reset_vector+0xf4>
    80000134:	00000513          	li	a0,0
    80000138:	2200006f          	j	80000358 <halt>
    8000013c:	00000297          	auipc	t0,0x0
    80000140:	1dc28293          	addi	t0,t0,476 # 80000318 <stvec_handler>
    80000144:	00028a63          	beqz	t0,80000158 <reset_vector+0x110>
    80000148:	10529073          	csrw	stvec,t0
    8000014c:	0000b2b7          	lui	t0,0xb
    80000150:	1092829b          	addiw	t0,t0,265 # b109 <_start-0x7fff4ef7>
    80000154:	30229073          	csrw	medeleg,t0
    80000158:	30005073          	csrwi	mstatus,0
    8000015c:	00001537          	lui	a0,0x1
    80000160:	8005051b          	addiw	a0,a0,-2048 # 800 <_start-0x7ffff800>
    80000164:	30052073          	csrs	mstatus,a0
    80000168:	02200513          	li	a0,34
    8000016c:	30352073          	csrs	mideleg,a0
    80000170:	00000297          	auipc	t0,0x0
    80000174:	01428293          	addi	t0,t0,20 # 80000184 <test_18>
    80000178:	34129073          	csrw	mepc,t0
    8000017c:	f1402573          	csrr	a0,mhartid
    80000180:	30200073          	mret

0000000080000184 <test_18>:
    80000184:	10002573          	csrr	a0,sstatus
    80000188:	0030059b          	addiw	a1,zero,3
    8000018c:	02059593          	slli	a1,a1,0x20
    80000190:	00b57533          	and	a0,a0,a1
    80000194:	0010039b          	addiw	t2,zero,1
    80000198:	02139393          	slli	t2,t2,0x21
    8000019c:	01200193          	li	gp,18
    800001a0:	16751463          	bne	a0,t2,80000308 <fail>

00000000800001a4 <test_20>:
    800001a4:	14001073          	csrw	sscratch,zero
    800001a8:	14002573          	csrr	a0,sscratch
    800001ac:	00000393          	li	t2,0
    800001b0:	01400193          	li	gp,20
    800001b4:	14751a63          	bne	a0,t2,80000308 <fail>

00000000800001b8 <test_21>:
    800001b8:	14005573          	csrrwi	a0,sscratch,0
    800001bc:	1407d573          	csrrwi	a0,sscratch,15
    800001c0:	00000393          	li	t2,0
    800001c4:	01500193          	li	gp,21
    800001c8:	14751063          	bne	a0,t2,80000308 <fail>

00000000800001cc <test_22>:
    800001cc:	14086073          	csrsi	sscratch,16
    800001d0:	14002573          	csrr	a0,sscratch
    800001d4:	01f00393          	li	t2,31
    800001d8:	01600193          	li	gp,22
    800001dc:	12751663          	bne	a0,t2,80000308 <fail>
    800001e0:	1401d073          	csrwi	sscratch,3

00000000800001e4 <test_2>:
    800001e4:	14002573          	csrr	a0,sscratch
    800001e8:	00300393          	li	t2,3
    800001ec:	00200193          	li	gp,2
    800001f0:	10751c63          	bne	a0,t2,80000308 <fail>

00000000800001f4 <test_3>:
    800001f4:	1400f5f3          	csrrci	a1,sscratch,1
    800001f8:	00300393          	li	t2,3
    800001fc:	00300193          	li	gp,3
    80000200:	10759463          	bne	a1,t2,80000308 <fail>

0000000080000204 <test_4>:
    80000204:	14026673          	csrrsi	a2,sscratch,4
    80000208:	00200393          	li	t2,2
    8000020c:	00400193          	li	gp,4
    80000210:	0e761c63          	bne	a2,t2,80000308 <fail>

0000000080000214 <test_5>:
    80000214:	140156f3          	csrrwi	a3,sscratch,2
    80000218:	00600393          	li	t2,6
    8000021c:	00500193          	li	gp,5
    80000220:	0e769463          	bne	a3,t2,80000308 <fail>

0000000080000224 <test_6>:
    80000224:	0bad2537          	lui	a0,0xbad2
    80000228:	dea5051b          	addiw	a0,a0,-534 # bad1dea <_start-0x7452e216>
    8000022c:	140515f3          	csrrw	a1,sscratch,a0
    80000230:	00200393          	li	t2,2
    80000234:	00600193          	li	gp,6
    80000238:	0c759863          	bne	a1,t2,80000308 <fail>

000000008000023c <test_7>:
    8000023c:	00002537          	lui	a0,0x2
    80000240:	dea5051b          	addiw	a0,a0,-534 # 1dea <_start-0x7fffe216>
    80000244:	140535f3          	csrrc	a1,sscratch,a0
    80000248:	0bad23b7          	lui	t2,0xbad2
    8000024c:	dea3839b          	addiw	t2,t2,-534 # bad1dea <_start-0x7452e216>
    80000250:	00700193          	li	gp,7
    80000254:	0a759a63          	bne	a1,t2,80000308 <fail>

0000000080000258 <test_8>:
    80000258:	0000c537          	lui	a0,0xc
    8000025c:	eef5051b          	addiw	a0,a0,-273 # beef <_start-0x7fff4111>
    80000260:	140525f3          	csrrs	a1,sscratch,a0
    80000264:	0bad03b7          	lui	t2,0xbad0
    80000268:	00800193          	li	gp,8
    8000026c:	08759e63          	bne	a1,t2,80000308 <fail>

0000000080000270 <test_9>:
    80000270:	0bad2537          	lui	a0,0xbad2
    80000274:	dea5051b          	addiw	a0,a0,-534 # bad1dea <_start-0x7452e216>
    80000278:	14051573          	csrrw	a0,sscratch,a0
    8000027c:	0badc3b7          	lui	t2,0xbadc
    80000280:	eef3839b          	addiw	t2,t2,-273 # badbeef <_start-0x74524111>
    80000284:	00900193          	li	gp,9
    80000288:	08751063          	bne	a0,t2,80000308 <fail>

000000008000028c <test_10>:
    8000028c:	00002537          	lui	a0,0x2
    80000290:	dea5051b          	addiw	a0,a0,-534 # 1dea <_start-0x7fffe216>
    80000294:	14053573          	csrrc	a0,sscratch,a0
    80000298:	0bad23b7          	lui	t2,0xbad2
    8000029c:	dea3839b          	addiw	t2,t2,-534 # bad1dea <_start-0x7452e216>
    800002a0:	00a00193          	li	gp,10
    800002a4:	06751263          	bne	a0,t2,80000308 <fail>

00000000800002a8 <test_11>:
    800002a8:	0000c537          	lui	a0,0xc
    800002ac:	eef5051b          	addiw	a0,a0,-273 # beef <_start-0x7fff4111>
    800002b0:	14052573          	csrrs	a0,sscratch,a0
    800002b4:	0bad03b7          	lui	t2,0xbad0
    800002b8:	00b00193          	li	gp,11
    800002bc:	04751663          	bne	a0,t2,80000308 <fail>

00000000800002c0 <test_12>:
    800002c0:	14002573          	csrr	a0,sscratch
    800002c4:	0badc3b7          	lui	t2,0xbadc
    800002c8:	eef3839b          	addiw	t2,t2,-273 # badbeef <_start-0x74524111>
    800002cc:	00c00193          	li	gp,12
    800002d0:	02751c63          	bne	a0,t2,80000308 <fail>
    800002d4:	10000293          	li	t0,256
    800002d8:	1002b073          	csrc	sstatus,t0
    800002dc:	00000297          	auipc	t0,0x0
    800002e0:	01028293          	addi	t0,t0,16 # 800002ec <test_15>
    800002e4:	14129073          	csrw	sepc,t0
    800002e8:	10200073          	sret

00000000800002ec <test_15>:
    800002ec:	00000013          	nop
    800002f0:	00000393          	li	t2,0
    800002f4:	00f00193          	li	gp,15
    800002f8:	00701863          	bne	zero,t2,80000308 <fail>

00000000800002fc <finish>:
    800002fc:	00000513          	li	a0,0
    80000300:	0580006f          	j	80000358 <halt>
    80000304:	00301663          	bne	zero,gp,80000310 <pass>

0000000080000308 <fail>:
    80000308:	00100513          	li	a0,1
    8000030c:	04c0006f          	j	80000358 <halt>

0000000080000310 <pass>:
    80000310:	00000513          	li	a0,0
    80000314:	0440006f          	j	80000358 <halt>

0000000080000318 <stvec_handler>:
    80000318:	00c00293          	li	t0,12
    8000031c:	0051e663          	bltu	gp,t0,80000328 <stvec_handler+0x10>
    80000320:	00e00293          	li	t0,14
    80000324:	0032fc63          	bgeu	t0,gp,8000033c <privileged>
    80000328:	142022f3          	csrr	t0,scause
    8000032c:	00800313          	li	t1,8
    80000330:	fc629ce3          	bne	t0,t1,80000308 <fail>
    80000334:	00000513          	li	a0,0
    80000338:	0200006f          	j	80000358 <halt>

000000008000033c <privileged>:
    8000033c:	142022f3          	csrr	t0,scause
    80000340:	00200313          	li	t1,2
    80000344:	fc6292e3          	bne	t0,t1,80000308 <fail>
    80000348:	141022f3          	csrr	t0,sepc
    8000034c:	00428293          	addi	t0,t0,4
    80000350:	14129073          	csrw	sepc,t0
    80000354:	10200073          	sret

0000000080000358 <halt>:
    80000358:	0000006f          	j	80000358 <halt>
    8000035c:	0000                	.2byte	0x0
    8000035e:	0000                	.2byte	0x0
    80000360:	0000                	.2byte	0x0
    80000362:	0000                	.2byte	0x0
    80000364:	0000                	.2byte	0x0
    80000366:	0000                	.2byte	0x0
    80000368:	0000                	.2byte	0x0
    8000036a:	0000                	.2byte	0x0
    8000036c:	0000                	.2byte	0x0
    8000036e:	0000                	.2byte	0x0
    80000370:	0000                	.2byte	0x0
    80000372:	0000                	.2byte	0x0
    80000374:	0000                	.2byte	0x0
    80000376:	0000                	.2byte	0x0
    80000378:	0000                	.2byte	0x0
    8000037a:	0000                	.2byte	0x0
    8000037c:	0000                	.2byte	0x0
    8000037e:	0000                	.2byte	0x0
