
rv32uf-p-fadd:     file format elf32-littleriscv


Disassembly of section .text.init:

80000000 <_start>:
80000000:	00200193          	li	gp,2
80000004:	00002517          	auipc	a0,0x2
80000008:	ffc50513          	addi	a0,a0,-4 # 80002000 <test_2_data>
8000000c:	00052007          	flw	ft0,0(a0)
80000010:	00452087          	flw	ft1,4(a0)
80000014:	00852107          	flw	ft2,8(a0)
80000018:	00c52683          	lw	a3,12(a0)
8000001c:	001071d3          	fadd.s	ft3,ft0,ft1
80000020:	e0018553          	fmv.x.w	a0,ft3
80000024:	001015f3          	fsflags	a1,zero
80000028:	00000613          	li	a2,0
8000002c:	1ed51063          	bne	a0,a3,8000020c <fail>
80000030:	1cc59e63          	bne	a1,a2,8000020c <fail>

80000034 <test_3>:
80000034:	00300193          	li	gp,3
80000038:	00002517          	auipc	a0,0x2
8000003c:	fd850513          	addi	a0,a0,-40 # 80002010 <test_3_data>
80000040:	00052007          	flw	ft0,0(a0)
80000044:	00452087          	flw	ft1,4(a0)
80000048:	00852107          	flw	ft2,8(a0)
8000004c:	00c52683          	lw	a3,12(a0)
80000050:	001071d3          	fadd.s	ft3,ft0,ft1
80000054:	e0018553          	fmv.x.w	a0,ft3
80000058:	001015f3          	fsflags	a1,zero
8000005c:	00100613          	li	a2,1
80000060:	1ad51663          	bne	a0,a3,8000020c <fail>
80000064:	1ac59463          	bne	a1,a2,8000020c <fail>

80000068 <test_4>:
80000068:	00400193          	li	gp,4
8000006c:	00002517          	auipc	a0,0x2
80000070:	fb450513          	addi	a0,a0,-76 # 80002020 <test_4_data>
80000074:	00052007          	flw	ft0,0(a0)
80000078:	00452087          	flw	ft1,4(a0)
8000007c:	00852107          	flw	ft2,8(a0)
80000080:	00c52683          	lw	a3,12(a0)
80000084:	001071d3          	fadd.s	ft3,ft0,ft1
80000088:	e0018553          	fmv.x.w	a0,ft3
8000008c:	001015f3          	fsflags	a1,zero
80000090:	00100613          	li	a2,1
80000094:	16d51c63          	bne	a0,a3,8000020c <fail>
80000098:	16c59a63          	bne	a1,a2,8000020c <fail>

8000009c <test_5>:
8000009c:	00500193          	li	gp,5
800000a0:	00002517          	auipc	a0,0x2
800000a4:	f9050513          	addi	a0,a0,-112 # 80002030 <test_5_data>
800000a8:	00052007          	flw	ft0,0(a0)
800000ac:	00452087          	flw	ft1,4(a0)
800000b0:	00852107          	flw	ft2,8(a0)
800000b4:	00c52683          	lw	a3,12(a0)
800000b8:	081071d3          	fsub.s	ft3,ft0,ft1
800000bc:	e0018553          	fmv.x.w	a0,ft3
800000c0:	001015f3          	fsflags	a1,zero
800000c4:	00000613          	li	a2,0
800000c8:	14d51263          	bne	a0,a3,8000020c <fail>
800000cc:	14c59063          	bne	a1,a2,8000020c <fail>

800000d0 <test_6>:
800000d0:	00600193          	li	gp,6
800000d4:	00002517          	auipc	a0,0x2
800000d8:	f6c50513          	addi	a0,a0,-148 # 80002040 <test_6_data>
800000dc:	00052007          	flw	ft0,0(a0)
800000e0:	00452087          	flw	ft1,4(a0)
800000e4:	00852107          	flw	ft2,8(a0)
800000e8:	00c52683          	lw	a3,12(a0)
800000ec:	081071d3          	fsub.s	ft3,ft0,ft1
800000f0:	e0018553          	fmv.x.w	a0,ft3
800000f4:	001015f3          	fsflags	a1,zero
800000f8:	00100613          	li	a2,1
800000fc:	10d51863          	bne	a0,a3,8000020c <fail>
80000100:	10c59663          	bne	a1,a2,8000020c <fail>

80000104 <test_7>:
80000104:	00700193          	li	gp,7
80000108:	00002517          	auipc	a0,0x2
8000010c:	f4850513          	addi	a0,a0,-184 # 80002050 <test_7_data>
80000110:	00052007          	flw	ft0,0(a0)
80000114:	00452087          	flw	ft1,4(a0)
80000118:	00852107          	flw	ft2,8(a0)
8000011c:	00c52683          	lw	a3,12(a0)
80000120:	081071d3          	fsub.s	ft3,ft0,ft1
80000124:	e0018553          	fmv.x.w	a0,ft3
80000128:	001015f3          	fsflags	a1,zero
8000012c:	00100613          	li	a2,1
80000130:	0cd51e63          	bne	a0,a3,8000020c <fail>
80000134:	0cc59c63          	bne	a1,a2,8000020c <fail>

80000138 <test_8>:
80000138:	00800193          	li	gp,8
8000013c:	00002517          	auipc	a0,0x2
80000140:	f2450513          	addi	a0,a0,-220 # 80002060 <test_8_data>
80000144:	00052007          	flw	ft0,0(a0)
80000148:	00452087          	flw	ft1,4(a0)
8000014c:	00852107          	flw	ft2,8(a0)
80000150:	00c52683          	lw	a3,12(a0)
80000154:	101071d3          	fmul.s	ft3,ft0,ft1
80000158:	e0018553          	fmv.x.w	a0,ft3
8000015c:	001015f3          	fsflags	a1,zero
80000160:	00000613          	li	a2,0
80000164:	0ad51463          	bne	a0,a3,8000020c <fail>
80000168:	0ac59263          	bne	a1,a2,8000020c <fail>

8000016c <test_9>:
8000016c:	00900193          	li	gp,9
80000170:	00002517          	auipc	a0,0x2
80000174:	f0050513          	addi	a0,a0,-256 # 80002070 <test_9_data>
80000178:	00052007          	flw	ft0,0(a0)
8000017c:	00452087          	flw	ft1,4(a0)
80000180:	00852107          	flw	ft2,8(a0)
80000184:	00c52683          	lw	a3,12(a0)
80000188:	101071d3          	fmul.s	ft3,ft0,ft1
8000018c:	e0018553          	fmv.x.w	a0,ft3
80000190:	001015f3          	fsflags	a1,zero
80000194:	00100613          	li	a2,1
80000198:	06d51a63          	bne	a0,a3,8000020c <fail>
8000019c:	06c59863          	bne	a1,a2,8000020c <fail>

800001a0 <test_10>:
800001a0:	00a00193          	li	gp,10
800001a4:	00002517          	auipc	a0,0x2
800001a8:	edc50513          	addi	a0,a0,-292 # 80002080 <test_10_data>
800001ac:	00052007          	flw	ft0,0(a0)
800001b0:	00452087          	flw	ft1,4(a0)
800001b4:	00852107          	flw	ft2,8(a0)
800001b8:	00c52683          	lw	a3,12(a0)
800001bc:	101071d3          	fmul.s	ft3,ft0,ft1
800001c0:	e0018553          	fmv.x.w	a0,ft3
800001c4:	001015f3          	fsflags	a1,zero
800001c8:	00100613          	li	a2,1
800001cc:	04d51063          	bne	a0,a3,8000020c <fail>
800001d0:	02c59e63          	bne	a1,a2,8000020c <fail>

800001d4 <test_11>:
800001d4:	00b00193          	li	gp,11
800001d8:	00002517          	auipc	a0,0x2
800001dc:	eb850513          	addi	a0,a0,-328 # 80002090 <test_11_data>
800001e0:	00052007          	flw	ft0,0(a0)
800001e4:	00452087          	flw	ft1,4(a0)
800001e8:	00852107          	flw	ft2,8(a0)
800001ec:	00c52683          	lw	a3,12(a0)
800001f0:	081071d3          	fsub.s	ft3,ft0,ft1
800001f4:	e0018553          	fmv.x.w	a0,ft3
800001f8:	001015f3          	fsflags	a1,zero
800001fc:	01000613          	li	a2,16
80000200:	00d51663          	bne	a0,a3,8000020c <fail>
80000204:	00c59463          	bne	a1,a2,8000020c <fail>
80000208:	00301663          	bne	zero,gp,80000214 <pass>

8000020c <fail>:
8000020c:	00100513          	li	a0,1
80000210:	00c0006f          	j	8000021c <halt>

80000214 <pass>:
80000214:	00000513          	li	a0,0
80000218:	0040006f          	j	8000021c <halt>

8000021c <halt>:
8000021c:	0000006f          	j	8000021c <halt>
80000220:	0000                	unimp
80000222:	0000                	unimp
80000224:	0000                	unimp
80000226:	0000                	unimp
80000228:	0000                	unimp
8000022a:	0000                	unimp
8000022c:	0000                	unimp
8000022e:	0000                	unimp
80000230:	0000                	unimp
80000232:	0000                	unimp
80000234:	0000                	unimp
80000236:	0000                	unimp
80000238:	0000                	unimp
8000023a:	0000                	unimp
8000023c:	0000                	unimp
8000023e:	0000                	unimp
80000240:	0000                	unimp
80000242:	0000                	unimp

Disassembly of section .data:

80002000 <test_2_data>:
80002000:	0000                	unimp
80002002:	4020                	lw	s0,64(s0)
80002004:	0000                	unimp
80002006:	3f80                	fld	fs0,56(a5)
80002008:	0000                	unimp
8000200a:	0000                	unimp
8000200c:	0000                	unimp
8000200e:	4060                	lw	s0,68(s0)

80002010 <test_3_data>:
80002010:	c49a6333          	0xc49a6333
80002014:	cccd                	beqz	s1,800020ce <_end+0x2e>
80002016:	3f8c                	fld	fa1,56(a5)
80002018:	0000                	unimp
8000201a:	0000                	unimp
8000201c:	4000                	lw	s0,0(s0)
8000201e:	c49a                	sw	t1,72(sp)

80002020 <test_4_data>:
80002020:	40490fdb          	0x40490fdb
80002024:	322bcc77          	0x322bcc77
80002028:	0000                	unimp
8000202a:	0000                	unimp
8000202c:	40490fdb          	0x40490fdb

80002030 <test_5_data>:
80002030:	0000                	unimp
80002032:	4020                	lw	s0,64(s0)
80002034:	0000                	unimp
80002036:	3f80                	fld	fs0,56(a5)
80002038:	0000                	unimp
8000203a:	0000                	unimp
8000203c:	0000                	unimp
8000203e:	3fc0                	fld	fs0,184(a5)

80002040 <test_6_data>:
80002040:	c49a6333          	0xc49a6333
80002044:	cccd                	beqz	s1,800020fe <_end+0x5e>
80002046:	bf8c                	fsd	fa1,56(a5)
80002048:	0000                	unimp
8000204a:	0000                	unimp
8000204c:	4000                	lw	s0,0(s0)
8000204e:	c49a                	sw	t1,72(sp)

80002050 <test_7_data>:
80002050:	40490fdb          	0x40490fdb
80002054:	322bcc77          	0x322bcc77
80002058:	0000                	unimp
8000205a:	0000                	unimp
8000205c:	40490fdb          	0x40490fdb

80002060 <test_8_data>:
80002060:	0000                	unimp
80002062:	4020                	lw	s0,64(s0)
80002064:	0000                	unimp
80002066:	3f80                	fld	fs0,56(a5)
80002068:	0000                	unimp
8000206a:	0000                	unimp
8000206c:	0000                	unimp
8000206e:	4020                	lw	s0,64(s0)

80002070 <test_9_data>:
80002070:	c49a6333          	0xc49a6333
80002074:	cccd                	beqz	s1,8000212e <_end+0x8e>
80002076:	bf8c                	fsd	fa1,56(a5)
80002078:	0000                	unimp
8000207a:	0000                	unimp
8000207c:	d385                	beqz	a5,80001f9c <fromhost+0xf5c>
8000207e:	44a9                	li	s1,10

80002080 <test_10_data>:
80002080:	40490fdb          	0x40490fdb
80002084:	322bcc77          	0x322bcc77
80002088:	0000                	unimp
8000208a:	0000                	unimp
8000208c:	ee2d                	bnez	a2,80002106 <_end+0x66>
8000208e:	3306                	fld	ft6,96(sp)

80002090 <test_11_data>:
80002090:	0000                	unimp
80002092:	7f80                	flw	fs0,56(a5)
80002094:	0000                	unimp
80002096:	7f80                	flw	fs0,56(a5)
80002098:	0000                	unimp
8000209a:	0000                	unimp
8000209c:	0000                	unimp
8000209e:	7fc0                	flw	fs0,60(a5)
