
rv32uf-p-fclass:     file format elf32-littleriscv


Disassembly of section .text.init:

80000000 <_start>:
80000000:	ff800537          	lui	a0,0xff800
80000004:	f0050553          	fmv.w.x	fa0,a0
80000008:	e0051553          	fclass.s	a0,fa0
8000000c:	00100393          	li	t2,1
80000010:	00200193          	li	gp,2
80000014:	0e751663          	bne	a0,t2,80000100 <fail>

80000018 <test_3>:
80000018:	bf800537          	lui	a0,0xbf800
8000001c:	f0050553          	fmv.w.x	fa0,a0
80000020:	e0051553          	fclass.s	a0,fa0
80000024:	00200393          	li	t2,2
80000028:	00300193          	li	gp,3
8000002c:	0c751a63          	bne	a0,t2,80000100 <fail>

80000030 <test_4>:
80000030:	80800537          	lui	a0,0x80800
80000034:	fff50513          	addi	a0,a0,-1 # 807fffff <_end+0x7fdfff>
80000038:	f0050553          	fmv.w.x	fa0,a0
8000003c:	e0051553          	fclass.s	a0,fa0
80000040:	00400393          	li	t2,4
80000044:	00400193          	li	gp,4
80000048:	0a751c63          	bne	a0,t2,80000100 <fail>

8000004c <test_5>:
8000004c:	80000537          	lui	a0,0x80000
80000050:	f0050553          	fmv.w.x	fa0,a0
80000054:	e0051553          	fclass.s	a0,fa0
80000058:	00800393          	li	t2,8
8000005c:	00500193          	li	gp,5
80000060:	0a751063          	bne	a0,t2,80000100 <fail>

80000064 <test_6>:
80000064:	00000513          	li	a0,0
80000068:	f0050553          	fmv.w.x	fa0,a0
8000006c:	e0051553          	fclass.s	a0,fa0
80000070:	01000393          	li	t2,16
80000074:	00600193          	li	gp,6
80000078:	08751463          	bne	a0,t2,80000100 <fail>

8000007c <test_7>:
8000007c:	00800537          	lui	a0,0x800
80000080:	fff50513          	addi	a0,a0,-1 # 7fffff <_start-0x7f800001>
80000084:	f0050553          	fmv.w.x	fa0,a0
80000088:	e0051553          	fclass.s	a0,fa0
8000008c:	02000393          	li	t2,32
80000090:	00700193          	li	gp,7
80000094:	06751663          	bne	a0,t2,80000100 <fail>

80000098 <test_8>:
80000098:	3f800537          	lui	a0,0x3f800
8000009c:	f0050553          	fmv.w.x	fa0,a0
800000a0:	e0051553          	fclass.s	a0,fa0
800000a4:	04000393          	li	t2,64
800000a8:	00800193          	li	gp,8
800000ac:	04751a63          	bne	a0,t2,80000100 <fail>

800000b0 <test_9>:
800000b0:	7f800537          	lui	a0,0x7f800
800000b4:	f0050553          	fmv.w.x	fa0,a0
800000b8:	e0051553          	fclass.s	a0,fa0
800000bc:	08000393          	li	t2,128
800000c0:	00900193          	li	gp,9
800000c4:	02751e63          	bne	a0,t2,80000100 <fail>

800000c8 <test_10>:
800000c8:	7f800537          	lui	a0,0x7f800
800000cc:	00150513          	addi	a0,a0,1 # 7f800001 <_start-0x7fffff>
800000d0:	f0050553          	fmv.w.x	fa0,a0
800000d4:	e0051553          	fclass.s	a0,fa0
800000d8:	10000393          	li	t2,256
800000dc:	00a00193          	li	gp,10
800000e0:	02751063          	bne	a0,t2,80000100 <fail>

800000e4 <test_11>:
800000e4:	7fc00537          	lui	a0,0x7fc00
800000e8:	f0050553          	fmv.w.x	fa0,a0
800000ec:	e0051553          	fclass.s	a0,fa0
800000f0:	20000393          	li	t2,512
800000f4:	00b00193          	li	gp,11
800000f8:	00751463          	bne	a0,t2,80000100 <fail>
800000fc:	00301663          	bne	zero,gp,80000108 <pass>

80000100 <fail>:
80000100:	00100513          	li	a0,1
80000104:	00c0006f          	j	80000110 <halt>

80000108 <pass>:
80000108:	00000513          	li	a0,0
8000010c:	0040006f          	j	80000110 <halt>

80000110 <halt>:
80000110:	0000006f          	j	80000110 <halt>
80000114:	0000                	unimp
80000116:	0000                	unimp
80000118:	0000                	unimp
8000011a:	0000                	unimp
8000011c:	0000                	unimp
8000011e:	0000                	unimp
80000120:	0000                	unimp
80000122:	0000                	unimp
80000124:	0000                	unimp
80000126:	0000                	unimp
80000128:	0000                	unimp
8000012a:	0000                	unimp
8000012c:	0000                	unimp
8000012e:	0000                	unimp
80000130:	0000                	unimp
80000132:	0000                	unimp
80000134:	0000                	unimp
80000136:	0000                	unimp
80000138:	0000                	unimp
8000013a:	0000                	unimp
8000013c:	0000                	unimp
8000013e:	0000                	unimp
80000140:	0000                	unimp
80000142:	0000                	unimp
