
rv32uf-p-fcmp:     file format elf32-littleriscv


Disassembly of section .text.init:

80000000 <_start>:
80000000:	00200193          	li	gp,2
80000004:	00002517          	auipc	a0,0x2
80000008:	ffc50513          	addi	a0,a0,-4 # 80002000 <test_2_data>
8000000c:	00052007          	flw	ft0,0(a0)
80000010:	00452087          	flw	ft1,4(a0)
80000014:	00852107          	flw	ft2,8(a0)
80000018:	00c52683          	lw	a3,12(a0)
8000001c:	a0102553          	feq.s	a0,ft0,ft1
80000020:	001015f3          	fsflags	a1,zero
80000024:	00000613          	li	a2,0
80000028:	2ad51663          	bne	a0,a3,800002d4 <fail>
8000002c:	2ac59463          	bne	a1,a2,800002d4 <fail>

80000030 <test_3>:
80000030:	00300193          	li	gp,3
80000034:	00002517          	auipc	a0,0x2
80000038:	fdc50513          	addi	a0,a0,-36 # 80002010 <test_3_data>
8000003c:	00052007          	flw	ft0,0(a0)
80000040:	00452087          	flw	ft1,4(a0)
80000044:	00852107          	flw	ft2,8(a0)
80000048:	00c52683          	lw	a3,12(a0)
8000004c:	a0100553          	fle.s	a0,ft0,ft1
80000050:	001015f3          	fsflags	a1,zero
80000054:	00000613          	li	a2,0
80000058:	26d51e63          	bne	a0,a3,800002d4 <fail>
8000005c:	26c59c63          	bne	a1,a2,800002d4 <fail>

80000060 <test_4>:
80000060:	00400193          	li	gp,4
80000064:	00002517          	auipc	a0,0x2
80000068:	fbc50513          	addi	a0,a0,-68 # 80002020 <test_4_data>
8000006c:	00052007          	flw	ft0,0(a0)
80000070:	00452087          	flw	ft1,4(a0)
80000074:	00852107          	flw	ft2,8(a0)
80000078:	00c52683          	lw	a3,12(a0)
8000007c:	a0101553          	flt.s	a0,ft0,ft1
80000080:	001015f3          	fsflags	a1,zero
80000084:	00000613          	li	a2,0
80000088:	24d51663          	bne	a0,a3,800002d4 <fail>
8000008c:	24c59463          	bne	a1,a2,800002d4 <fail>

80000090 <test_5>:
80000090:	00500193          	li	gp,5
80000094:	00002517          	auipc	a0,0x2
80000098:	f9c50513          	addi	a0,a0,-100 # 80002030 <test_5_data>
8000009c:	00052007          	flw	ft0,0(a0)
800000a0:	00452087          	flw	ft1,4(a0)
800000a4:	00852107          	flw	ft2,8(a0)
800000a8:	00c52683          	lw	a3,12(a0)
800000ac:	a0102553          	feq.s	a0,ft0,ft1
800000b0:	001015f3          	fsflags	a1,zero
800000b4:	00000613          	li	a2,0
800000b8:	20d51e63          	bne	a0,a3,800002d4 <fail>
800000bc:	20c59c63          	bne	a1,a2,800002d4 <fail>

800000c0 <test_6>:
800000c0:	00600193          	li	gp,6
800000c4:	00002517          	auipc	a0,0x2
800000c8:	f7c50513          	addi	a0,a0,-132 # 80002040 <test_6_data>
800000cc:	00052007          	flw	ft0,0(a0)
800000d0:	00452087          	flw	ft1,4(a0)
800000d4:	00852107          	flw	ft2,8(a0)
800000d8:	00c52683          	lw	a3,12(a0)
800000dc:	a0100553          	fle.s	a0,ft0,ft1
800000e0:	001015f3          	fsflags	a1,zero
800000e4:	00000613          	li	a2,0
800000e8:	1ed51663          	bne	a0,a3,800002d4 <fail>
800000ec:	1ec59463          	bne	a1,a2,800002d4 <fail>

800000f0 <test_7>:
800000f0:	00700193          	li	gp,7
800000f4:	00002517          	auipc	a0,0x2
800000f8:	f5c50513          	addi	a0,a0,-164 # 80002050 <test_7_data>
800000fc:	00052007          	flw	ft0,0(a0)
80000100:	00452087          	flw	ft1,4(a0)
80000104:	00852107          	flw	ft2,8(a0)
80000108:	00c52683          	lw	a3,12(a0)
8000010c:	a0101553          	flt.s	a0,ft0,ft1
80000110:	001015f3          	fsflags	a1,zero
80000114:	00000613          	li	a2,0
80000118:	1ad51e63          	bne	a0,a3,800002d4 <fail>
8000011c:	1ac59c63          	bne	a1,a2,800002d4 <fail>

80000120 <test_8>:
80000120:	00800193          	li	gp,8
80000124:	00002517          	auipc	a0,0x2
80000128:	f3c50513          	addi	a0,a0,-196 # 80002060 <test_8_data>
8000012c:	00052007          	flw	ft0,0(a0)
80000130:	00452087          	flw	ft1,4(a0)
80000134:	00852107          	flw	ft2,8(a0)
80000138:	00c52683          	lw	a3,12(a0)
8000013c:	a0102553          	feq.s	a0,ft0,ft1
80000140:	001015f3          	fsflags	a1,zero
80000144:	00000613          	li	a2,0
80000148:	18d51663          	bne	a0,a3,800002d4 <fail>
8000014c:	18c59463          	bne	a1,a2,800002d4 <fail>

80000150 <test_9>:
80000150:	00900193          	li	gp,9
80000154:	00002517          	auipc	a0,0x2
80000158:	f1c50513          	addi	a0,a0,-228 # 80002070 <test_9_data>
8000015c:	00052007          	flw	ft0,0(a0)
80000160:	00452087          	flw	ft1,4(a0)
80000164:	00852107          	flw	ft2,8(a0)
80000168:	00c52683          	lw	a3,12(a0)
8000016c:	a0102553          	feq.s	a0,ft0,ft1
80000170:	001015f3          	fsflags	a1,zero
80000174:	00000613          	li	a2,0
80000178:	14d51e63          	bne	a0,a3,800002d4 <fail>
8000017c:	14c59c63          	bne	a1,a2,800002d4 <fail>

80000180 <test_10>:
80000180:	00a00193          	li	gp,10
80000184:	00002517          	auipc	a0,0x2
80000188:	efc50513          	addi	a0,a0,-260 # 80002080 <test_10_data>
8000018c:	00052007          	flw	ft0,0(a0)
80000190:	00452087          	flw	ft1,4(a0)
80000194:	00852107          	flw	ft2,8(a0)
80000198:	00c52683          	lw	a3,12(a0)
8000019c:	a0102553          	feq.s	a0,ft0,ft1
800001a0:	001015f3          	fsflags	a1,zero
800001a4:	01000613          	li	a2,16
800001a8:	12d51663          	bne	a0,a3,800002d4 <fail>
800001ac:	12c59463          	bne	a1,a2,800002d4 <fail>

800001b0 <test_11>:
800001b0:	00b00193          	li	gp,11
800001b4:	00002517          	auipc	a0,0x2
800001b8:	edc50513          	addi	a0,a0,-292 # 80002090 <test_11_data>
800001bc:	00052007          	flw	ft0,0(a0)
800001c0:	00452087          	flw	ft1,4(a0)
800001c4:	00852107          	flw	ft2,8(a0)
800001c8:	00c52683          	lw	a3,12(a0)
800001cc:	a0101553          	flt.s	a0,ft0,ft1
800001d0:	001015f3          	fsflags	a1,zero
800001d4:	01000613          	li	a2,16
800001d8:	0ed51e63          	bne	a0,a3,800002d4 <fail>
800001dc:	0ec59c63          	bne	a1,a2,800002d4 <fail>

800001e0 <test_12>:
800001e0:	00c00193          	li	gp,12
800001e4:	00002517          	auipc	a0,0x2
800001e8:	ebc50513          	addi	a0,a0,-324 # 800020a0 <test_12_data>
800001ec:	00052007          	flw	ft0,0(a0)
800001f0:	00452087          	flw	ft1,4(a0)
800001f4:	00852107          	flw	ft2,8(a0)
800001f8:	00c52683          	lw	a3,12(a0)
800001fc:	a0101553          	flt.s	a0,ft0,ft1
80000200:	001015f3          	fsflags	a1,zero
80000204:	01000613          	li	a2,16
80000208:	0cd51663          	bne	a0,a3,800002d4 <fail>
8000020c:	0cc59463          	bne	a1,a2,800002d4 <fail>

80000210 <test_13>:
80000210:	00d00193          	li	gp,13
80000214:	00002517          	auipc	a0,0x2
80000218:	e9c50513          	addi	a0,a0,-356 # 800020b0 <test_13_data>
8000021c:	00052007          	flw	ft0,0(a0)
80000220:	00452087          	flw	ft1,4(a0)
80000224:	00852107          	flw	ft2,8(a0)
80000228:	00c52683          	lw	a3,12(a0)
8000022c:	a0101553          	flt.s	a0,ft0,ft1
80000230:	001015f3          	fsflags	a1,zero
80000234:	01000613          	li	a2,16
80000238:	08d51e63          	bne	a0,a3,800002d4 <fail>
8000023c:	08c59c63          	bne	a1,a2,800002d4 <fail>

80000240 <test_14>:
80000240:	00e00193          	li	gp,14
80000244:	00002517          	auipc	a0,0x2
80000248:	e7c50513          	addi	a0,a0,-388 # 800020c0 <test_14_data>
8000024c:	00052007          	flw	ft0,0(a0)
80000250:	00452087          	flw	ft1,4(a0)
80000254:	00852107          	flw	ft2,8(a0)
80000258:	00c52683          	lw	a3,12(a0)
8000025c:	a0100553          	fle.s	a0,ft0,ft1
80000260:	001015f3          	fsflags	a1,zero
80000264:	01000613          	li	a2,16
80000268:	06d51663          	bne	a0,a3,800002d4 <fail>
8000026c:	06c59463          	bne	a1,a2,800002d4 <fail>

80000270 <test_15>:
80000270:	00f00193          	li	gp,15
80000274:	00002517          	auipc	a0,0x2
80000278:	e5c50513          	addi	a0,a0,-420 # 800020d0 <test_15_data>
8000027c:	00052007          	flw	ft0,0(a0)
80000280:	00452087          	flw	ft1,4(a0)
80000284:	00852107          	flw	ft2,8(a0)
80000288:	00c52683          	lw	a3,12(a0)
8000028c:	a0100553          	fle.s	a0,ft0,ft1
80000290:	001015f3          	fsflags	a1,zero
80000294:	01000613          	li	a2,16
80000298:	02d51e63          	bne	a0,a3,800002d4 <fail>
8000029c:	02c59c63          	bne	a1,a2,800002d4 <fail>

800002a0 <test_16>:
800002a0:	01000193          	li	gp,16
800002a4:	00002517          	auipc	a0,0x2
800002a8:	e3c50513          	addi	a0,a0,-452 # 800020e0 <test_16_data>
800002ac:	00052007          	flw	ft0,0(a0)
800002b0:	00452087          	flw	ft1,4(a0)
800002b4:	00852107          	flw	ft2,8(a0)
800002b8:	00c52683          	lw	a3,12(a0)
800002bc:	a0100553          	fle.s	a0,ft0,ft1
800002c0:	001015f3          	fsflags	a1,zero
800002c4:	01000613          	li	a2,16
800002c8:	00d51663          	bne	a0,a3,800002d4 <fail>
800002cc:	00c59463          	bne	a1,a2,800002d4 <fail>
800002d0:	00301663          	bne	zero,gp,800002dc <pass>

800002d4 <fail>:
800002d4:	00100513          	li	a0,1
800002d8:	00c0006f          	j	800002e4 <halt>

800002dc <pass>:
800002dc:	00000513          	li	a0,0
800002e0:	0040006f          	j	800002e4 <halt>

800002e4 <halt>:
800002e4:	0000006f          	j	800002e4 <halt>
800002e8:	0000                	unimp
800002ea:	0000                	unimp
800002ec:	0000                	unimp
800002ee:	0000                	unimp
800002f0:	0000                	unimp
800002f2:	0000                	unimp
800002f4:	0000                	unimp
800002f6:	0000                	unimp
800002f8:	0000                	unimp
800002fa:	0000                	unimp
800002fc:	0000                	unimp
800002fe:	0000                	unimp
80000300:	0000                	unimp
80000302:	0000                	unimp

Disassembly of section .data:

80002000 <test_2_data>:
80002000:	bfae147b          	0xbfae147b
80002004:	bfae147b          	0xbfae147b
80002008:	0000                	unimp
8000200a:	0000                	unimp
8000200c:	0001                	nop
8000200e:	0000                	unimp

80002010 <test_3_data>:
80002010:	bfae147b          	0xbfae147b
80002014:	bfae147b          	0xbfae147b
80002018:	0000                	unimp
8000201a:	0000                	unimp
8000201c:	0001                	nop
8000201e:	0000                	unimp

80002020 <test_4_data>:
80002020:	bfae147b          	0xbfae147b
80002024:	bfae147b          	0xbfae147b
80002028:	0000                	unimp
8000202a:	0000                	unimp
8000202c:	0000                	unimp
8000202e:	0000                	unimp

80002030 <test_5_data>:
80002030:	5c29                	li	s8,-22
80002032:	147bbfaf          	0x147bbfaf
80002036:	bfae                	fsd	fa1,504(sp)
80002038:	0000                	unimp
8000203a:	0000                	unimp
8000203c:	0000                	unimp
8000203e:	0000                	unimp

80002040 <test_6_data>:
80002040:	5c29                	li	s8,-22
80002042:	147bbfaf          	0x147bbfaf
80002046:	bfae                	fsd	fa1,504(sp)
80002048:	0000                	unimp
8000204a:	0000                	unimp
8000204c:	0001                	nop
8000204e:	0000                	unimp

80002050 <test_7_data>:
80002050:	5c29                	li	s8,-22
80002052:	147bbfaf          	0x147bbfaf
80002056:	bfae                	fsd	fa1,504(sp)
80002058:	0000                	unimp
8000205a:	0000                	unimp
8000205c:	0001                	nop
8000205e:	0000                	unimp

80002060 <test_8_data>:
80002060:	ffff                	0xffff
80002062:	7fff                	0x7fff
80002064:	0000                	unimp
80002066:	0000                	unimp
80002068:	0000                	unimp
8000206a:	0000                	unimp
8000206c:	0000                	unimp
8000206e:	0000                	unimp

80002070 <test_9_data>:
80002070:	ffff                	0xffff
80002072:	7fff                	0x7fff
80002074:	ffff                	0xffff
80002076:	7fff                	0x7fff
80002078:	0000                	unimp
8000207a:	0000                	unimp
8000207c:	0000                	unimp
8000207e:	0000                	unimp

80002080 <test_10_data>:
80002080:	0001                	nop
80002082:	7f80                	flw	fs0,56(a5)
80002084:	0000                	unimp
80002086:	0000                	unimp
80002088:	0000                	unimp
8000208a:	0000                	unimp
8000208c:	0000                	unimp
8000208e:	0000                	unimp

80002090 <test_11_data>:
80002090:	ffff                	0xffff
80002092:	7fff                	0x7fff
80002094:	0000                	unimp
80002096:	0000                	unimp
80002098:	0000                	unimp
8000209a:	0000                	unimp
8000209c:	0000                	unimp
8000209e:	0000                	unimp

800020a0 <test_12_data>:
800020a0:	ffff                	0xffff
800020a2:	7fff                	0x7fff
800020a4:	ffff                	0xffff
800020a6:	7fff                	0x7fff
800020a8:	0000                	unimp
800020aa:	0000                	unimp
800020ac:	0000                	unimp
800020ae:	0000                	unimp

800020b0 <test_13_data>:
800020b0:	0001                	nop
800020b2:	7f80                	flw	fs0,56(a5)
800020b4:	0000                	unimp
800020b6:	0000                	unimp
800020b8:	0000                	unimp
800020ba:	0000                	unimp
800020bc:	0000                	unimp
800020be:	0000                	unimp

800020c0 <test_14_data>:
800020c0:	ffff                	0xffff
800020c2:	7fff                	0x7fff
800020c4:	0000                	unimp
800020c6:	0000                	unimp
800020c8:	0000                	unimp
800020ca:	0000                	unimp
800020cc:	0000                	unimp
800020ce:	0000                	unimp

800020d0 <test_15_data>:
800020d0:	ffff                	0xffff
800020d2:	7fff                	0x7fff
800020d4:	ffff                	0xffff
800020d6:	7fff                	0x7fff
800020d8:	0000                	unimp
800020da:	0000                	unimp
800020dc:	0000                	unimp
800020de:	0000                	unimp

800020e0 <test_16_data>:
800020e0:	0001                	nop
800020e2:	7f80                	flw	fs0,56(a5)
800020e4:	0000                	unimp
800020e6:	0000                	unimp
800020e8:	0000                	unimp
800020ea:	0000                	unimp
800020ec:	0000                	unimp
800020ee:	0000                	unimp
